
C:/progs/pico/pico2vibe/build/rp2350-zero/univibe_rp2350_dma.elf:     file format elf32-littlearm

Sections:
Idx Name          Size      VMA       LMA       File off  Algn
  0 .text         00009044  10000000  10000000  00001000  2**3
                  CONTENTS, ALLOC, LOAD, READONLY, CODE
  1 .rodata       000004c0  10009048  10009048  0000a048  2**3
                  CONTENTS, ALLOC, LOAD, READONLY, DATA
  2 .ARM.exidx    00000008  10009508  10009508  0000a508  2**2
                  CONTENTS, ALLOC, LOAD, READONLY, DATA
  3 .binary_info  00000020  10009510  10009510  0000a510  2**2
                  CONTENTS, ALLOC, LOAD, READONLY, DATA
  4 .ram_vector_table 00000110  20000000  20000000  0000d000  2**2
                  ALLOC
  5 .uninitialized_data 00000000  20000110  20000110  0000caa4  2**0
                  CONTENTS
  6 .data         00001560  20000110  10009530  0000b110  2**3
                  CONTENTS, ALLOC, LOAD, READONLY, CODE
  7 .tdata        00000000  20001670  20001670  0000caa4  2**0
                  CONTENTS, ALLOC, LOAD, DATA, THREAD_LOCAL
  8 .tbss         00000000  20001670  20001670  00000000  2**0
                  ALLOC, THREAD_LOCAL
  9 .bss          000019c8  20001670  1000aa90  0000d670  2**3
                  ALLOC
 10 .heap         00000800  20003038  1000aa90  0000d038  2**2
                  ALLOC, READONLY
 11 .scratch_x    00000000  20080000  20080000  0000caa4  2**0
                  CONTENTS
 12 .scratch_y    00000000  20081000  20081000  0000caa4  2**0
                  CONTENTS
 13 .stack_dummy  00000800  20081000  20081000  0000d000  2**5
                  ALLOC, READONLY
 14 .flash_end    00000014  1000aa90  1000aa90  0000ca90  2**2
                  CONTENTS, ALLOC, LOAD, READONLY, DATA
 15 .ARM.attributes 00000034  00000000  00000000  0000caa4  2**0
                  CONTENTS, READONLY
 16 .comment      00000049  00000000  00000000  0000cad8  2**0
                  CONTENTS, READONLY
 17 .debug_info   0004177b  00000000  00000000  0000cb21  2**0
                  CONTENTS, READONLY, DEBUGGING, OCTETS
 18 .debug_abbrev 000092c2  00000000  00000000  0004e29c  2**0
                  CONTENTS, READONLY, DEBUGGING, OCTETS
 19 .debug_loc    00032020  00000000  00000000  0005755e  2**0
                  CONTENTS, READONLY, DEBUGGING, OCTETS
 20 .debug_aranges 00001478  00000000  00000000  00089580  2**3
                  CONTENTS, READONLY, DEBUGGING, OCTETS
 21 .debug_ranges 00012660  00000000  00000000  0008a9f8  2**3
                  CONTENTS, READONLY, DEBUGGING, OCTETS
 22 .debug_line   0002792b  00000000  00000000  0009d058  2**0
                  CONTENTS, READONLY, DEBUGGING, OCTETS
 23 .debug_str    0000bfed  00000000  00000000  000c4983  2**0
                  CONTENTS, READONLY, DEBUGGING, OCTETS
 24 .debug_frame  000038b4  00000000  00000000  000d0970  2**2
                  CONTENTS, READONLY, DEBUGGING, OCTETS

C:/progs/pico/pico2vibe/build/rp2350-zero/univibe_rp2350_dma.elf:     file format elf32-littlearm


Disassembly of section .text:

10000000 <__VECTOR_TABLE>:
10000000:	20082000 	.word	0x20082000
10000004:	1000015d 	.word	0x1000015d
10000008:	1000011b 	.word	0x1000011b
1000000c:	1000011d 	.word	0x1000011d
10000010:	10000111 	.word	0x10000111
10000014:	10000111 	.word	0x10000111
10000018:	10000111 	.word	0x10000111
1000001c:	10000111 	.word	0x10000111
10000020:	10000119 	.word	0x10000119
10000024:	10000119 	.word	0x10000119
10000028:	10000119 	.word	0x10000119
1000002c:	1000011f 	.word	0x1000011f
10000030:	10000111 	.word	0x10000111
10000034:	10000119 	.word	0x10000119
10000038:	10000121 	.word	0x10000121
1000003c:	10000123 	.word	0x10000123
10000040:	10000111 	.word	0x10000111
10000044:	10000111 	.word	0x10000111
10000048:	10000111 	.word	0x10000111
1000004c:	10000111 	.word	0x10000111
10000050:	10000111 	.word	0x10000111
10000054:	10000111 	.word	0x10000111
10000058:	10000111 	.word	0x10000111
1000005c:	10000111 	.word	0x10000111
10000060:	10000111 	.word	0x10000111
10000064:	10000111 	.word	0x10000111
10000068:	10000111 	.word	0x10000111
1000006c:	10000111 	.word	0x10000111
10000070:	10000111 	.word	0x10000111
10000074:	10000111 	.word	0x10000111
10000078:	10000111 	.word	0x10000111
1000007c:	10000111 	.word	0x10000111
10000080:	10000111 	.word	0x10000111
10000084:	10000111 	.word	0x10000111
10000088:	10000111 	.word	0x10000111
1000008c:	10000111 	.word	0x10000111
10000090:	10000111 	.word	0x10000111
10000094:	10000111 	.word	0x10000111
10000098:	10000111 	.word	0x10000111
1000009c:	10000111 	.word	0x10000111
100000a0:	10000111 	.word	0x10000111
100000a4:	10000111 	.word	0x10000111
100000a8:	10000111 	.word	0x10000111
100000ac:	10000111 	.word	0x10000111
100000b0:	10000111 	.word	0x10000111
100000b4:	10000111 	.word	0x10000111
100000b8:	10000111 	.word	0x10000111
100000bc:	10000111 	.word	0x10000111
100000c0:	10000111 	.word	0x10000111
100000c4:	10000111 	.word	0x10000111
100000c8:	10000111 	.word	0x10000111
100000cc:	10000111 	.word	0x10000111
100000d0:	10000111 	.word	0x10000111
100000d4:	10000111 	.word	0x10000111
100000d8:	10000111 	.word	0x10000111
100000dc:	10000111 	.word	0x10000111
100000e0:	10000111 	.word	0x10000111
100000e4:	10000111 	.word	0x10000111
100000e8:	10000111 	.word	0x10000111
100000ec:	10000111 	.word	0x10000111
100000f0:	10000111 	.word	0x10000111
100000f4:	10000111 	.word	0x10000111
100000f8:	10000111 	.word	0x10000111
100000fc:	10000111 	.word	0x10000111
10000100:	10000111 	.word	0x10000111
10000104:	10000111 	.word	0x10000111
10000108:	10000111 	.word	0x10000111
1000010c:	10000111 	.word	0x10000111

10000110 <__unhandled_user_irq>:
10000110:	f3ef 8005 	mrs	r0, IPSR
10000114:	3810      	subs	r0, #16

10000116 <unhandled_user_irq_num_in_r0>:
10000116:	be00      	bkpt	0x0000

10000118 <isr_invalid>:
10000118:	be00      	bkpt	0x0000

1000011a <isr_nmi>:
1000011a:	be00      	bkpt	0x0000

1000011c <isr_hardfault>:
1000011c:	be00      	bkpt	0x0000

1000011e <isr_svcall>:
1000011e:	be00      	bkpt	0x0000

10000120 <isr_pendsv>:
10000120:	be00      	bkpt	0x0000

10000122 <isr_systick>:
10000122:	be00      	bkpt	0x0000

10000124 <__default_isrs_end>:
10000124:	7188ebf2 	.word	0x7188ebf2
10000128:	10009510 	.word	0x10009510
1000012c:	10009530 	.word	0x10009530
10000130:	100001a0 	.word	0x100001a0
10000134:	e71aa390 	.word	0xe71aa390

10000138 <__binary_info_header_end>:
10000138:	ffffded3 	.word	0xffffded3
1000013c:	10210142 	.word	0x10210142
10000140:	000001ff 	.word	0x000001ff
10000144:	0000a958 	.word	0x0000a958
10000148:	ab123579 	.word	0xab123579

1000014c <_entry_point>:
1000014c:	f04f 0000 	mov.w	r0, #0

10000150 <_enter_vtable_in_r0>:
10000150:	491e      	ldr	r1, [pc, #120]	; (100001cc <data_cpy_table+0x2c>)
10000152:	6008      	str	r0, [r1, #0]
10000154:	c806      	ldmia	r0!, {r1, r2}
10000156:	f381 8808 	msr	MSP, r1
1000015a:	4710      	bx	r2

1000015c <_reset_handler>:
1000015c:	f04f 4050 	mov.w	r0, #3489660928	; 0xd0000000
10000160:	6800      	ldr	r0, [r0, #0]
10000162:	b110      	cbz	r0, 1000016a <hold_non_core0_in_bootrom+0x6>

10000164 <hold_non_core0_in_bootrom>:
10000164:	f04f 0000 	mov.w	r0, #0
10000168:	e7f2      	b.n	10000150 <_enter_vtable_in_r0>
1000016a:	a40d      	add	r4, pc, #52	; (adr r4, 100001a0 <data_cpy_table>)
1000016c:	cc0e      	ldmia	r4!, {r1, r2, r3}
1000016e:	2900      	cmp	r1, #0
10000170:	d002      	beq.n	10000178 <hold_non_core0_in_bootrom+0x14>
10000172:	f000 f812 	bl	1000019a <data_cpy>
10000176:	e7f9      	b.n	1000016c <hold_non_core0_in_bootrom+0x8>
10000178:	4915      	ldr	r1, [pc, #84]	; (100001d0 <data_cpy_table+0x30>)
1000017a:	4a16      	ldr	r2, [pc, #88]	; (100001d4 <data_cpy_table+0x34>)
1000017c:	2000      	movs	r0, #0
1000017e:	e000      	b.n	10000182 <bss_fill_test>

10000180 <bss_fill_loop>:
10000180:	c101      	stmia	r1!, {r0}

10000182 <bss_fill_test>:
10000182:	4291      	cmp	r1, r2
10000184:	d1fc      	bne.n	10000180 <bss_fill_loop>

10000186 <platform_entry>:
10000186:	4914      	ldr	r1, [pc, #80]	; (100001d8 <data_cpy_table+0x38>)
10000188:	4788      	blx	r1
1000018a:	4914      	ldr	r1, [pc, #80]	; (100001dc <data_cpy_table+0x3c>)
1000018c:	4788      	blx	r1
1000018e:	4914      	ldr	r1, [pc, #80]	; (100001e0 <data_cpy_table+0x40>)
10000190:	4788      	blx	r1
10000192:	be00      	bkpt	0x0000
10000194:	e7fd      	b.n	10000192 <platform_entry+0xc>

10000196 <data_cpy_loop>:
10000196:	c901      	ldmia	r1!, {r0}
10000198:	c201      	stmia	r2!, {r0}

1000019a <data_cpy>:
1000019a:	429a      	cmp	r2, r3
1000019c:	d3fb      	bcc.n	10000196 <data_cpy_loop>
1000019e:	4770      	bx	lr

100001a0 <data_cpy_table>:
100001a0:	10009530 	.word	0x10009530
100001a4:	20000110 	.word	0x20000110
100001a8:	20001670 	.word	0x20001670
100001ac:	1000aa90 	.word	0x1000aa90
100001b0:	20080000 	.word	0x20080000
100001b4:	20080000 	.word	0x20080000
100001b8:	1000aa90 	.word	0x1000aa90
100001bc:	20081000 	.word	0x20081000
100001c0:	20081000 	.word	0x20081000
100001c4:	00000000 	.word	0x00000000
100001c8:	4770      	bx	lr
100001ca:	0000      	.short	0x0000
100001cc:	e000ed08 	.word	0xe000ed08
100001d0:	20001670 	.word	0x20001670
100001d4:	20003038 	.word	0x20003038
100001d8:	10005f7d 	.word	0x10005f7d
100001dc:	1000200d 	.word	0x1000200d
100001e0:	10005f75 	.word	0x10005f75

100001e4 <_init>:
100001e4:	b5f8      	push	{r3, r4, r5, r6, r7, lr}
100001e6:	bf00      	nop

100001e8 <__do_global_dtors_aux>:
100001e8:	b510      	push	{r4, lr}
100001ea:	4c05      	ldr	r4, [pc, #20]	; (10000200 <__do_global_dtors_aux+0x18>)
100001ec:	7823      	ldrb	r3, [r4, #0]
100001ee:	b933      	cbnz	r3, 100001fe <__do_global_dtors_aux+0x16>
100001f0:	4b04      	ldr	r3, [pc, #16]	; (10000204 <__do_global_dtors_aux+0x1c>)
100001f2:	b113      	cbz	r3, 100001fa <__do_global_dtors_aux+0x12>
100001f4:	4804      	ldr	r0, [pc, #16]	; (10000208 <__do_global_dtors_aux+0x20>)
100001f6:	e000      	b.n	100001fa <__do_global_dtors_aux+0x12>
100001f8:	bf00      	nop
100001fa:	2301      	movs	r3, #1
100001fc:	7023      	strb	r3, [r4, #0]
100001fe:	bd10      	pop	{r4, pc}
10000200:	200017f8 	.word	0x200017f8
10000204:	00000000 	.word	0x00000000
10000208:	10009044 	.word	0x10009044

1000020c <frame_dummy>:
1000020c:	b508      	push	{r3, lr}
1000020e:	4b03      	ldr	r3, [pc, #12]	; (1000021c <frame_dummy+0x10>)
10000210:	b11b      	cbz	r3, 1000021a <frame_dummy+0xe>
10000212:	4903      	ldr	r1, [pc, #12]	; (10000220 <frame_dummy+0x14>)
10000214:	4803      	ldr	r0, [pc, #12]	; (10000224 <frame_dummy+0x18>)
10000216:	e000      	b.n	1000021a <frame_dummy+0xe>
10000218:	bf00      	nop
1000021a:	bd08      	pop	{r3, pc}
1000021c:	00000000 	.word	0x00000000
10000220:	200017fc 	.word	0x200017fc
10000224:	10009044 	.word	0x10009044

10000228 <_ZL16dma_irq0_handlerv>:
10000228:	f04f 41a0 	mov.w	r1, #1342177280	; 0x50000000
1000022c:	2301      	movs	r3, #1
1000022e:	4a2c      	ldr	r2, [pc, #176]	; (100002e0 <_ZL16dma_irq0_handlerv+0xb8>)
10000230:	b470      	push	{r4, r5, r6}
10000232:	6814      	ldr	r4, [r2, #0]
10000234:	f8d1 040c 	ldr.w	r0, [r1, #1036]	; 0x40c
10000238:	40a3      	lsls	r3, r4
1000023a:	4218      	tst	r0, r3
1000023c:	d017      	beq.n	1000026e <_ZL16dma_irq0_handlerv+0x46>
1000023e:	4c29      	ldr	r4, [pc, #164]	; (100002e4 <_ZL16dma_irq0_handlerv+0xbc>)
10000240:	f8c1 340c 	str.w	r3, [r1, #1036]	; 0x40c
10000244:	6821      	ldr	r1, [r4, #0]
10000246:	4d28      	ldr	r5, [pc, #160]	; (100002e8 <_ZL16dma_irq0_handlerv+0xc0>)
10000248:	f081 0001 	eor.w	r0, r1, #1
1000024c:	5c6b      	ldrb	r3, [r5, r1]
1000024e:	bb53      	cbnz	r3, 100002a6 <_ZL16dma_irq0_handlerv+0x7e>
10000250:	f3bf 8f5f 	dmb	sy
10000254:	6813      	ldr	r3, [r2, #0]
10000256:	2201      	movs	r2, #1
10000258:	546a      	strb	r2, [r5, r1]
1000025a:	2140      	movs	r1, #64	; 0x40
1000025c:	4a23      	ldr	r2, [pc, #140]	; (100002ec <_ZL16dma_irq0_handlerv+0xc4>)
1000025e:	019b      	lsls	r3, r3, #6
10000260:	f103 43a0 	add.w	r3, r3, #1342177280	; 0x50000000
10000264:	eb02 2200 	add.w	r2, r2, r0, lsl #8
10000268:	6020      	str	r0, [r4, #0]
1000026a:	605a      	str	r2, [r3, #4]
1000026c:	61d9      	str	r1, [r3, #28]
1000026e:	f04f 41a0 	mov.w	r1, #1342177280	; 0x50000000
10000272:	2201      	movs	r2, #1
10000274:	481e      	ldr	r0, [pc, #120]	; (100002f0 <_ZL16dma_irq0_handlerv+0xc8>)
10000276:	f8d1 440c 	ldr.w	r4, [r1, #1036]	; 0x40c
1000027a:	6803      	ldr	r3, [r0, #0]
1000027c:	409a      	lsls	r2, r3
1000027e:	4214      	tst	r4, r2
10000280:	d00f      	beq.n	100002a2 <_ZL16dma_irq0_handlerv+0x7a>
10000282:	4c1c      	ldr	r4, [pc, #112]	; (100002f4 <_ZL16dma_irq0_handlerv+0xcc>)
10000284:	f8c1 240c 	str.w	r2, [r1, #1036]	; 0x40c
10000288:	6822      	ldr	r2, [r4, #0]
1000028a:	2a00      	cmp	r2, #0
1000028c:	dd10      	ble.n	100002b0 <_ZL16dma_irq0_handlerv+0x88>
1000028e:	6821      	ldr	r1, [r4, #0]
10000290:	4a19      	ldr	r2, [pc, #100]	; (100002f8 <_ZL16dma_irq0_handlerv+0xd0>)
10000292:	3901      	subs	r1, #1
10000294:	6021      	str	r1, [r4, #0]
10000296:	2140      	movs	r1, #64	; 0x40
10000298:	019b      	lsls	r3, r3, #6
1000029a:	f103 43a0 	add.w	r3, r3, #1342177280	; 0x50000000
1000029e:	601a      	str	r2, [r3, #0]
100002a0:	61d9      	str	r1, [r3, #28]
100002a2:	bc70      	pop	{r4, r5, r6}
100002a4:	4770      	bx	lr
100002a6:	4e15      	ldr	r6, [pc, #84]	; (100002fc <_ZL16dma_irq0_handlerv+0xd4>)
100002a8:	6833      	ldr	r3, [r6, #0]
100002aa:	3301      	adds	r3, #1
100002ac:	6033      	str	r3, [r6, #0]
100002ae:	e7cf      	b.n	10000250 <_ZL16dma_irq0_handlerv+0x28>
100002b0:	4913      	ldr	r1, [pc, #76]	; (10000300 <_ZL16dma_irq0_handlerv+0xd8>)
100002b2:	4d14      	ldr	r5, [pc, #80]	; (10000304 <_ZL16dma_irq0_handlerv+0xdc>)
100002b4:	680c      	ldr	r4, [r1, #0]
100002b6:	5d2a      	ldrb	r2, [r5, r4]
100002b8:	b162      	cbz	r2, 100002d4 <_ZL16dma_irq0_handlerv+0xac>
100002ba:	f3bf 8f5f 	dmb	sy
100002be:	2600      	movs	r6, #0
100002c0:	552e      	strb	r6, [r5, r4]
100002c2:	6803      	ldr	r3, [r0, #0]
100002c4:	6808      	ldr	r0, [r1, #0]
100002c6:	4a10      	ldr	r2, [pc, #64]	; (10000308 <_ZL16dma_irq0_handlerv+0xe0>)
100002c8:	f080 0001 	eor.w	r0, r0, #1
100002cc:	eb02 2204 	add.w	r2, r2, r4, lsl #8
100002d0:	6008      	str	r0, [r1, #0]
100002d2:	e7e0      	b.n	10000296 <_ZL16dma_irq0_handlerv+0x6e>
100002d4:	480d      	ldr	r0, [pc, #52]	; (1000030c <_ZL16dma_irq0_handlerv+0xe4>)
100002d6:	4a08      	ldr	r2, [pc, #32]	; (100002f8 <_ZL16dma_irq0_handlerv+0xd0>)
100002d8:	6801      	ldr	r1, [r0, #0]
100002da:	3101      	adds	r1, #1
100002dc:	6001      	str	r1, [r0, #0]
100002de:	e7da      	b.n	10000296 <_ZL16dma_irq0_handlerv+0x6e>
100002e0:	20001190 	.word	0x20001190
100002e4:	20001c1c 	.word	0x20001c1c
100002e8:	20001c20 	.word	0x20001c20
100002ec:	20001814 	.word	0x20001814
100002f0:	20001194 	.word	0x20001194
100002f4:	20001198 	.word	0x20001198
100002f8:	20001c28 	.word	0x20001c28
100002fc:	20001c14 	.word	0x20001c14
10000300:	20001d28 	.word	0x20001d28
10000304:	20001c24 	.word	0x20001c24
10000308:	20001a14 	.word	0x20001a14
1000030c:	20001c18 	.word	0x20001c18

10000310 <_ZN6VibeUi4initEP4Vibe>:
10000310:	b5f8      	push	{r3, r4, r5, r6, r7, lr}
10000312:	2203      	movs	r2, #3
10000314:	4604      	mov	r4, r0
10000316:	2500      	movs	r5, #0
10000318:	2302      	movs	r3, #2
1000031a:	e9c4 5508 	strd	r5, r5, [r4, #32]
1000031e:	4618      	mov	r0, r3
10000320:	e9c4 3201 	strd	r3, r2, [r4, #4]
10000324:	6021      	str	r1, [r4, #0]
10000326:	83a5      	strh	r5, [r4, #28]
10000328:	f884 5028 	strb.w	r5, [r4, #40]	; 0x28
1000032c:	f884 5030 	strb.w	r5, [r4, #48]	; 0x30
10000330:	7325      	strb	r5, [r4, #12]
10000332:	f002 fd87 	bl	10002e44 <gpio_init>
10000336:	6860      	ldr	r0, [r4, #4]
10000338:	ec45 0044 	gpioc_bit_oe_put r0, r5
1000033c:	2101      	movs	r1, #1
1000033e:	462a      	mov	r2, r5
10000340:	f002 fd66 	bl	10002e10 <gpio_set_pulls>
10000344:	68a0      	ldr	r0, [r4, #8]
10000346:	f002 fd7d 	bl	10002e44 <gpio_init>
1000034a:	68a0      	ldr	r0, [r4, #8]
1000034c:	ec45 0044 	gpioc_bit_oe_put r0, r5
10000350:	f04f 4750 	mov.w	r7, #3489660928	; 0xd0000000
10000354:	2601      	movs	r6, #1
10000356:	462a      	mov	r2, r5
10000358:	2101      	movs	r1, #1
1000035a:	f002 fd59 	bl	10002e10 <gpio_set_pulls>
1000035e:	e9d4 2301 	ldrd	r2, r3, [r4, #4]
10000362:	6879      	ldr	r1, [r7, #4]
10000364:	fa06 f202 	lsl.w	r2, r6, r2
10000368:	420a      	tst	r2, r1
1000036a:	6879      	ldr	r1, [r7, #4]
1000036c:	fa06 f303 	lsl.w	r3, r6, r3
10000370:	bf14      	ite	ne
10000372:	4632      	movne	r2, r6
10000374:	462a      	moveq	r2, r5
10000376:	420b      	tst	r3, r1
10000378:	bf14      	ite	ne
1000037a:	4633      	movne	r3, r6
1000037c:	462b      	moveq	r3, r5
1000037e:	2004      	movs	r0, #4
10000380:	ea43 0342 	orr.w	r3, r3, r2, lsl #1
10000384:	6120      	str	r0, [r4, #16]
10000386:	73a5      	strb	r5, [r4, #14]
10000388:	7363      	strb	r3, [r4, #13]
1000038a:	f002 fd5b 	bl	10002e44 <gpio_init>
1000038e:	6920      	ldr	r0, [r4, #16]
10000390:	ec45 0044 	gpioc_bit_oe_put r0, r5
10000394:	462a      	mov	r2, r5
10000396:	4631      	mov	r1, r6
10000398:	f002 fd3a 	bl	10002e10 <gpio_set_pulls>
1000039c:	6923      	ldr	r3, [r4, #16]
1000039e:	687a      	ldr	r2, [r7, #4]
100003a0:	fa06 f303 	lsl.w	r3, r6, r3
100003a4:	4213      	tst	r3, r2
100003a6:	bf0c      	ite	eq
100003a8:	4633      	moveq	r3, r6
100003aa:	462b      	movne	r3, r5
100003ac:	4f2b      	ldr	r7, [pc, #172]	; (1000045c <_ZN6VibeUi4initEP4Vibe+0x14c>)
100003ae:	f363 0507 	bfi	r5, r3, #0, #8
100003b2:	6aba      	ldr	r2, [r7, #40]	; 0x28
100003b4:	f363 250f 	bfi	r5, r3, #8, #8
100003b8:	2006      	movs	r0, #6
100003ba:	61a2      	str	r2, [r4, #24]
100003bc:	82a5      	strh	r5, [r4, #20]
100003be:	f002 fd41 	bl	10002e44 <gpio_init>
100003c2:	2306      	movs	r3, #6
100003c4:	ec46 3044 	gpioc_bit_oe_put r3, r6
100003c8:	2007      	movs	r0, #7
100003ca:	f002 fd3b 	bl	10002e44 <gpio_init>
100003ce:	2307      	movs	r3, #7
100003d0:	ec46 3044 	gpioc_bit_oe_put r3, r6
100003d4:	7f21      	ldrb	r1, [r4, #28]
100003d6:	6823      	ldr	r3, [r4, #0]
100003d8:	6ab8      	ldr	r0, [r7, #40]	; 0x28
100003da:	f884 1028 	strb.w	r1, [r4, #40]	; 0x28
100003de:	b10b      	cbz	r3, 100003e4 <_ZN6VibeUi4initEP4Vibe+0xd4>
100003e0:	781b      	ldrb	r3, [r3, #0]
100003e2:	4073      	eors	r3, r6
100003e4:	f894 202a 	ldrb.w	r2, [r4, #42]	; 0x2a
100003e8:	f884 3030 	strb.w	r3, [r4, #48]	; 0x30
100003ec:	b19a      	cbz	r2, 10000416 <_ZN6VibeUi4initEP4Vibe+0x106>
100003ee:	6ae5      	ldr	r5, [r4, #44]	; 0x2c
100003f0:	1b46      	subs	r6, r0, r5
100003f2:	2e00      	cmp	r6, #0
100003f4:	db2d      	blt.n	10000452 <_ZN6VibeUi4initEP4Vibe+0x142>
100003f6:	f505 359c 	add.w	r5, r5, #79872	; 0x13800
100003fa:	3580      	adds	r5, #128	; 0x80
100003fc:	62e5      	str	r5, [r4, #44]	; 0x2c
100003fe:	f894 5029 	ldrb.w	r5, [r4, #41]	; 0x29
10000402:	3a01      	subs	r2, #1
10000404:	b2d2      	uxtb	r2, r2
10000406:	f085 0501 	eor.w	r5, r5, #1
1000040a:	f884 202a 	strb.w	r2, [r4, #42]	; 0x2a
1000040e:	f884 5029 	strb.w	r5, [r4, #41]	; 0x29
10000412:	b102      	cbz	r2, 10000416 <_ZN6VibeUi4initEP4Vibe+0x106>
10000414:	4629      	mov	r1, r5
10000416:	2206      	movs	r2, #6
10000418:	ec41 2040 	gpioc_bit_out_put r2, r1
1000041c:	f894 2032 	ldrb.w	r2, [r4, #50]	; 0x32
10000420:	b19a      	cbz	r2, 1000044a <_ZN6VibeUi4initEP4Vibe+0x13a>
10000422:	6b61      	ldr	r1, [r4, #52]	; 0x34
10000424:	1a40      	subs	r0, r0, r1
10000426:	2800      	cmp	r0, #0
10000428:	f894 0031 	ldrb.w	r0, [r4, #49]	; 0x31
1000042c:	db0c      	blt.n	10000448 <_ZN6VibeUi4initEP4Vibe+0x138>
1000042e:	3a01      	subs	r2, #1
10000430:	f501 319c 	add.w	r1, r1, #79872	; 0x13800
10000434:	f080 0001 	eor.w	r0, r0, #1
10000438:	b2d2      	uxtb	r2, r2
1000043a:	3180      	adds	r1, #128	; 0x80
1000043c:	f884 0031 	strb.w	r0, [r4, #49]	; 0x31
10000440:	f884 2032 	strb.w	r2, [r4, #50]	; 0x32
10000444:	6361      	str	r1, [r4, #52]	; 0x34
10000446:	b102      	cbz	r2, 1000044a <_ZN6VibeUi4initEP4Vibe+0x13a>
10000448:	4603      	mov	r3, r0
1000044a:	2207      	movs	r2, #7
1000044c:	ec43 2040 	gpioc_bit_out_put r2, r3
10000450:	bdf8      	pop	{r3, r4, r5, r6, r7, pc}
10000452:	f894 5029 	ldrb.w	r5, [r4, #41]	; 0x29
10000456:	4629      	mov	r1, r5
10000458:	e7dd      	b.n	10000416 <_ZN6VibeUi4initEP4Vibe+0x106>
1000045a:	bf00      	nop
1000045c:	400b0000 	.word	0x400b0000

10000460 <_ZN4Vibe27update_smoothed_user_paramsEv>:
10000460:	ed90 7a05 	vldr	s14, [r0, #20]
10000464:	eeb5 7ac0 	vcmpe.f32	s14, #0.0
10000468:	eef1 fa10 	vmrs	APSR_nzcv, fpscr
1000046c:	b510      	push	{r4, lr}
1000046e:	4604      	mov	r4, r0
10000470:	ed2d 8b06 	vpush	{d8-d10}
10000474:	f100 8223 	bmi.w	100008be <_ZN4Vibe27update_smoothed_user_paramsEv+0x45e>
10000478:	eef7 7a00 	vmov.f32	s15, #112	; 0x3f800000  1.0
1000047c:	eeb4 7a67 	vcmp.f32	s14, s15
10000480:	eef1 fa10 	vmrs	APSR_nzcv, fpscr
10000484:	fe37 7a87 	vselgt.f32	s14, s15, s14
10000488:	edd4 7a06 	vldr	s15, [r4, #24]
1000048c:	eef5 7ac0 	vcmpe.f32	s15, #0.0
10000490:	eef1 fa10 	vmrs	APSR_nzcv, fpscr
10000494:	ed84 7a05 	vstr	s14, [r4, #20]
10000498:	f100 820e 	bmi.w	100008b8 <_ZN4Vibe27update_smoothed_user_paramsEv+0x458>
1000049c:	ed9f 7aea 	vldr	s14, [pc, #936]	; 10000848 <_ZN4Vibe27update_smoothed_user_paramsEv+0x3e8>
100004a0:	eef4 7a47 	vcmp.f32	s15, s14
100004a4:	eef1 fa10 	vmrs	APSR_nzcv, fpscr
100004a8:	fe77 7a27 	vselgt.f32	s15, s14, s15
100004ac:	ed94 7a07 	vldr	s14, [r4, #28]
100004b0:	eeb5 7ac0 	vcmpe.f32	s14, #0.0
100004b4:	eef1 fa10 	vmrs	APSR_nzcv, fpscr
100004b8:	edc4 7a06 	vstr	s15, [r4, #24]
100004bc:	f100 81f9 	bmi.w	100008b2 <_ZN4Vibe27update_smoothed_user_paramsEv+0x452>
100004c0:	eef7 7a00 	vmov.f32	s15, #112	; 0x3f800000  1.0
100004c4:	eeb4 7a67 	vcmp.f32	s14, s15
100004c8:	eef1 fa10 	vmrs	APSR_nzcv, fpscr
100004cc:	fe37 7a87 	vselgt.f32	s14, s15, s14
100004d0:	edd4 7a08 	vldr	s15, [r4, #32]
100004d4:	eef6 6a00 	vmov.f32	s13, #96	; 0x3f000000  0.5
100004d8:	eef4 7ae6 	vcmpe.f32	s15, s13
100004dc:	eef1 fa10 	vmrs	APSR_nzcv, fpscr
100004e0:	ed84 7a07 	vstr	s14, [r4, #28]
100004e4:	f100 81e2 	bmi.w	100008ac <_ZN4Vibe27update_smoothed_user_paramsEv+0x44c>
100004e8:	eeb1 7a08 	vmov.f32	s14, #24	; 0x40c00000  6.0
100004ec:	eef4 7a47 	vcmp.f32	s15, s14
100004f0:	eef1 fa10 	vmrs	APSR_nzcv, fpscr
100004f4:	fe77 7a27 	vselgt.f32	s15, s14, s15
100004f8:	ed94 7a09 	vldr	s14, [r4, #36]	; 0x24
100004fc:	eef5 6a00 	vmov.f32	s13, #80	; 0x3e800000  0.250
10000500:	eeb4 7ae6 	vcmpe.f32	s14, s13
10000504:	eef1 fa10 	vmrs	APSR_nzcv, fpscr
10000508:	edc4 7a08 	vstr	s15, [r4, #32]
1000050c:	d47b      	bmi.n	10000606 <_ZN4Vibe27update_smoothed_user_paramsEv+0x1a6>
1000050e:	eef0 7a00 	vmov.f32	s15, #0	; 0x40000000  2.0
10000512:	eeb4 7a67 	vcmp.f32	s14, s15
10000516:	eef1 fa10 	vmrs	APSR_nzcv, fpscr
1000051a:	fe37 7a87 	vselgt.f32	s14, s15, s14
1000051e:	edd4 7a0a 	vldr	s15, [r4, #40]	; 0x28
10000522:	eef5 7ac0 	vcmpe.f32	s15, #0.0
10000526:	eef1 fa10 	vmrs	APSR_nzcv, fpscr
1000052a:	ed84 7a09 	vstr	s14, [r4, #36]	; 0x24
1000052e:	d467      	bmi.n	10000600 <_ZN4Vibe27update_smoothed_user_paramsEv+0x1a0>
10000530:	eeb7 7a00 	vmov.f32	s14, #112	; 0x3f800000  1.0
10000534:	eef4 7a47 	vcmp.f32	s15, s14
10000538:	eef1 fa10 	vmrs	APSR_nzcv, fpscr
1000053c:	fe77 7a27 	vselgt.f32	s15, s14, s15
10000540:	ed94 7a0b 	vldr	s14, [r4, #44]	; 0x2c
10000544:	eef4 7ac7 	vcmpe.f32	s15, s14
10000548:	eef1 fa10 	vmrs	APSR_nzcv, fpscr
1000054c:	edc4 7a0a 	vstr	s15, [r4, #40]	; 0x28
10000550:	dc07      	bgt.n	10000562 <_ZN4Vibe27update_smoothed_user_paramsEv+0x102>
10000552:	eef7 7a00 	vmov.f32	s15, #112	; 0x3f800000  1.0
10000556:	eeb4 7ae7 	vcmpe.f32	s14, s15
1000055a:	eef1 fa10 	vmrs	APSR_nzcv, fpscr
1000055e:	fe77 7a87 	vselgt.f32	s15, s15, s14
10000562:	ed94 7a0c 	vldr	s14, [r4, #48]	; 0x30
10000566:	eddf 6ab9 	vldr	s13, [pc, #740]	; 1000084c <_ZN4Vibe27update_smoothed_user_paramsEv+0x3ec>
1000056a:	eeb4 7ae6 	vcmpe.f32	s14, s13
1000056e:	eef1 fa10 	vmrs	APSR_nzcv, fpscr
10000572:	edc4 7a0b 	vstr	s15, [r4, #44]	; 0x2c
10000576:	f100 8196 	bmi.w	100008a6 <_ZN4Vibe27update_smoothed_user_paramsEv+0x446>
1000057a:	eef2 7a08 	vmov.f32	s15, #40	; 0x41400000  12.0
1000057e:	eeb4 7a67 	vcmp.f32	s14, s15
10000582:	eef1 fa10 	vmrs	APSR_nzcv, fpscr
10000586:	fe37 7a87 	vselgt.f32	s14, s15, s14
1000058a:	edd4 7a0d 	vldr	s15, [r4, #52]	; 0x34
1000058e:	eef5 7ac0 	vcmpe.f32	s15, #0.0
10000592:	eef1 fa10 	vmrs	APSR_nzcv, fpscr
10000596:	ed84 7a0c 	vstr	s14, [r4, #48]	; 0x30
1000059a:	f100 8181 	bmi.w	100008a0 <_ZN4Vibe27update_smoothed_user_paramsEv+0x440>
1000059e:	ed9f 7aac 	vldr	s14, [pc, #688]	; 10000850 <_ZN4Vibe27update_smoothed_user_paramsEv+0x3f0>
100005a2:	eef4 7a47 	vcmp.f32	s15, s14
100005a6:	eef1 fa10 	vmrs	APSR_nzcv, fpscr
100005aa:	fe77 7a27 	vselgt.f32	s15, s14, s15
100005ae:	ed94 7a0e 	vldr	s14, [r4, #56]	; 0x38
100005b2:	eddf 6aa8 	vldr	s13, [pc, #672]	; 10000854 <_ZN4Vibe27update_smoothed_user_paramsEv+0x3f4>
100005b6:	eeb4 7ae6 	vcmpe.f32	s14, s13
100005ba:	eef1 fa10 	vmrs	APSR_nzcv, fpscr
100005be:	edc4 7a0d 	vstr	s15, [r4, #52]	; 0x34
100005c2:	f100 816a 	bmi.w	1000089a <_ZN4Vibe27update_smoothed_user_paramsEv+0x43a>
100005c6:	eef6 7a00 	vmov.f32	s15, #96	; 0x3f000000  0.5
100005ca:	eeb4 7a67 	vcmp.f32	s14, s15
100005ce:	eef1 fa10 	vmrs	APSR_nzcv, fpscr
100005d2:	fe37 7a87 	vselgt.f32	s14, s15, s14
100005d6:	edd4 7a1c 	vldr	s15, [r4, #112]	; 0x70
100005da:	eef7 6a00 	vmov.f32	s13, #112	; 0x3f800000  1.0
100005de:	eef4 7ae6 	vcmpe.f32	s15, s13
100005e2:	eef1 fa10 	vmrs	APSR_nzcv, fpscr
100005e6:	ed84 7a0e 	vstr	s14, [r4, #56]	; 0x38
100005ea:	d40f      	bmi.n	1000060c <_ZN4Vibe27update_smoothed_user_paramsEv+0x1ac>
100005ec:	ed9f 7a9a 	vldr	s14, [pc, #616]	; 10000858 <_ZN4Vibe27update_smoothed_user_paramsEv+0x3f8>
100005f0:	eef4 7ac7 	vcmpe.f32	s15, s14
100005f4:	eef1 fa10 	vmrs	APSR_nzcv, fpscr
100005f8:	f340 8164 	ble.w	100008c4 <_ZN4Vibe27update_smoothed_user_paramsEv+0x464>
100005fc:	4897      	ldr	r0, [pc, #604]	; (1000085c <_ZN4Vibe27update_smoothed_user_paramsEv+0x3fc>)
100005fe:	e006      	b.n	1000060e <_ZN4Vibe27update_smoothed_user_paramsEv+0x1ae>
10000600:	eddf 7a98 	vldr	s15, [pc, #608]	; 10000864 <_ZN4Vibe27update_smoothed_user_paramsEv+0x404>
10000604:	e79c      	b.n	10000540 <_ZN4Vibe27update_smoothed_user_paramsEv+0xe0>
10000606:	eeb0 7a66 	vmov.f32	s14, s13
1000060a:	e788      	b.n	1000051e <_ZN4Vibe27update_smoothed_user_paramsEv+0xbe>
1000060c:	4894      	ldr	r0, [pc, #592]	; (10000860 <_ZN4Vibe27update_smoothed_user_paramsEv+0x400>)
1000060e:	f004 f98f 	bl	10004930 <__wrap_expf>
10000612:	f504 63c3 	add.w	r3, r4, #1560	; 0x618
10000616:	edd3 4a00 	vldr	s9, [r3]
1000061a:	eef7 8a00 	vmov.f32	s17, #112	; 0x3f800000  1.0
1000061e:	edd4 1a05 	vldr	s3, [r4, #20]
10000622:	ee07 0a90 	vmov	s15, r0
10000626:	f204 611c 	addw	r1, r4, #1564	; 0x61c
1000062a:	ee78 7ae7 	vsub.f32	s15, s17, s15
1000062e:	edd1 9a00 	vldr	s19, [r1]
10000632:	ed94 2a06 	vldr	s4, [r4, #24]
10000636:	ee71 1ae4 	vsub.f32	s3, s3, s9
1000063a:	f504 62c4 	add.w	r2, r4, #1568	; 0x620
1000063e:	ed92 aa00 	vldr	s20, [r2]
10000642:	f204 6124 	addw	r1, r4, #1572	; 0x624
10000646:	f504 62c5 	add.w	r2, r4, #1576	; 0x628
1000064a:	ed91 9a00 	vldr	s18, [r1]
1000064e:	ed92 5a00 	vldr	s10, [r2]
10000652:	ee32 8a69 	vsub.f32	s16, s4, s19
10000656:	edd4 2a07 	vldr	s5, [r4, #28]
1000065a:	ed94 3a08 	vldr	s6, [r4, #32]
1000065e:	edd4 3a09 	vldr	s7, [r4, #36]	; 0x24
10000662:	eee7 4aa1 	vfma.f32	s9, s15, s3
10000666:	f504 62c6 	add.w	r2, r4, #1584	; 0x630
1000066a:	ed92 4a00 	vldr	s8, [r2]
1000066e:	f204 612c 	addw	r1, r4, #1580	; 0x62c
10000672:	f504 62c7 	add.w	r2, r4, #1592	; 0x638
10000676:	ed91 7a00 	vldr	s14, [r1]
1000067a:	ed92 6a00 	vldr	s12, [r2]
1000067e:	f204 6134 	addw	r1, r4, #1588	; 0x634
10000682:	f204 623c 	addw	r2, r4, #1596	; 0x63c
10000686:	ee32 0aca 	vsub.f32	s0, s5, s20
1000068a:	edd1 5a00 	vldr	s11, [r1]
1000068e:	edd2 6a00 	vldr	s13, [r2]
10000692:	ee73 0a49 	vsub.f32	s1, s6, s18
10000696:	ee33 1ac5 	vsub.f32	s2, s7, s10
1000069a:	edd4 1a0a 	vldr	s3, [r4, #40]	; 0x28
1000069e:	ed94 2a0b 	vldr	s4, [r4, #44]	; 0x2c
100006a2:	edd4 2a0c 	vldr	s5, [r4, #48]	; 0x30
100006a6:	ed94 3a0d 	vldr	s6, [r4, #52]	; 0x34
100006aa:	edd4 3a0e 	vldr	s7, [r4, #56]	; 0x38
100006ae:	eee7 9a88 	vfma.f32	s19, s15, s16
100006b2:	eef5 4ac0 	vcmpe.f32	s9, #0.0
100006b6:	eeb0 8a4a 	vmov.f32	s16, s20
100006ba:	ee71 1ac7 	vsub.f32	s3, s3, s14
100006be:	eea7 8a80 	vfma.f32	s16, s15, s0
100006c2:	ee32 2a44 	vsub.f32	s4, s4, s8
100006c6:	eeb0 0a49 	vmov.f32	s0, s18
100006ca:	ee72 2ae5 	vsub.f32	s5, s5, s11
100006ce:	ee33 3a46 	vsub.f32	s6, s6, s12
100006d2:	ee73 3ae6 	vsub.f32	s7, s7, s13
100006d6:	eef1 fa10 	vmrs	APSR_nzcv, fpscr
100006da:	eea7 0aa0 	vfma.f32	s0, s15, s1
100006de:	eea7 5a81 	vfma.f32	s10, s15, s2
100006e2:	eea7 7aa1 	vfma.f32	s14, s15, s3
100006e6:	eea7 4a82 	vfma.f32	s8, s15, s4
100006ea:	eee7 5aa2 	vfma.f32	s11, s15, s5
100006ee:	eea7 6a83 	vfma.f32	s12, s15, s6
100006f2:	eee7 6aa3 	vfma.f32	s13, s15, s7
100006f6:	f100 80cd 	bmi.w	10000894 <_ZN4Vibe27update_smoothed_user_paramsEv+0x434>
100006fa:	eef4 4a68 	vcmp.f32	s9, s17
100006fe:	eef1 fa10 	vmrs	APSR_nzcv, fpscr
10000702:	fe78 4aa4 	vselgt.f32	s9, s17, s9
10000706:	eef5 9ac0 	vcmpe.f32	s19, #0.0
1000070a:	eef1 fa10 	vmrs	APSR_nzcv, fpscr
1000070e:	edc3 4a00 	vstr	s9, [r3]
10000712:	f100 80bc 	bmi.w	1000088e <_ZN4Vibe27update_smoothed_user_paramsEv+0x42e>
10000716:	eddf 7a4c 	vldr	s15, [pc, #304]	; 10000848 <_ZN4Vibe27update_smoothed_user_paramsEv+0x3e8>
1000071a:	eef4 9a67 	vcmp.f32	s19, s15
1000071e:	eef1 fa10 	vmrs	APSR_nzcv, fpscr
10000722:	fe77 9aa9 	vselgt.f32	s19, s15, s19
10000726:	eeb5 8ac0 	vcmpe.f32	s16, #0.0
1000072a:	eef1 fa10 	vmrs	APSR_nzcv, fpscr
1000072e:	edc3 9a01 	vstr	s19, [r3, #4]
10000732:	f100 80a9 	bmi.w	10000888 <_ZN4Vibe27update_smoothed_user_paramsEv+0x428>
10000736:	eef7 7a00 	vmov.f32	s15, #112	; 0x3f800000  1.0
1000073a:	eeb4 8a67 	vcmp.f32	s16, s15
1000073e:	eef1 fa10 	vmrs	APSR_nzcv, fpscr
10000742:	fe37 8a88 	vselgt.f32	s16, s15, s16
10000746:	eef6 7a00 	vmov.f32	s15, #96	; 0x3f000000  0.5
1000074a:	eeb4 0ae7 	vcmpe.f32	s0, s15
1000074e:	eef1 fa10 	vmrs	APSR_nzcv, fpscr
10000752:	ed83 8a02 	vstr	s16, [r3, #8]
10000756:	f100 8094 	bmi.w	10000882 <_ZN4Vibe27update_smoothed_user_paramsEv+0x422>
1000075a:	eef1 7a08 	vmov.f32	s15, #24	; 0x40c00000  6.0
1000075e:	eeb4 0a67 	vcmp.f32	s0, s15
10000762:	eef1 fa10 	vmrs	APSR_nzcv, fpscr
10000766:	fe37 0a80 	vselgt.f32	s0, s15, s0
1000076a:	eef5 7a00 	vmov.f32	s15, #80	; 0x3e800000  0.250
1000076e:	eeb4 5ae7 	vcmpe.f32	s10, s15
10000772:	eef1 fa10 	vmrs	APSR_nzcv, fpscr
10000776:	ed83 0a03 	vstr	s0, [r3, #12]
1000077a:	d47f      	bmi.n	1000087c <_ZN4Vibe27update_smoothed_user_paramsEv+0x41c>
1000077c:	eef0 7a00 	vmov.f32	s15, #0	; 0x40000000  2.0
10000780:	eeb4 5a67 	vcmp.f32	s10, s15
10000784:	eef1 fa10 	vmrs	APSR_nzcv, fpscr
10000788:	fe37 5a85 	vselgt.f32	s10, s15, s10
1000078c:	eeb5 7ac0 	vcmpe.f32	s14, #0.0
10000790:	eef1 fa10 	vmrs	APSR_nzcv, fpscr
10000794:	ed83 5a04 	vstr	s10, [r3, #16]
10000798:	d44c      	bmi.n	10000834 <_ZN4Vibe27update_smoothed_user_paramsEv+0x3d4>
1000079a:	eef7 7a00 	vmov.f32	s15, #112	; 0x3f800000  1.0
1000079e:	eeb4 7a67 	vcmp.f32	s14, s15
100007a2:	eef1 fa10 	vmrs	APSR_nzcv, fpscr
100007a6:	fe37 7a87 	vselgt.f32	s14, s15, s14
100007aa:	eeb4 4ac7 	vcmpe.f32	s8, s14
100007ae:	eef1 fa10 	vmrs	APSR_nzcv, fpscr
100007b2:	ed83 7a05 	vstr	s14, [r3, #20]
100007b6:	d407      	bmi.n	100007c8 <_ZN4Vibe27update_smoothed_user_paramsEv+0x368>
100007b8:	eeb7 7a00 	vmov.f32	s14, #112	; 0x3f800000  1.0
100007bc:	eeb4 4ac7 	vcmpe.f32	s8, s14
100007c0:	eef1 fa10 	vmrs	APSR_nzcv, fpscr
100007c4:	fe37 7a04 	vselgt.f32	s14, s14, s8
100007c8:	eddf 7a20 	vldr	s15, [pc, #128]	; 1000084c <_ZN4Vibe27update_smoothed_user_paramsEv+0x3ec>
100007cc:	eef4 5ae7 	vcmpe.f32	s11, s15
100007d0:	eef1 fa10 	vmrs	APSR_nzcv, fpscr
100007d4:	ed83 7a06 	vstr	s14, [r3, #24]
100007d8:	d44d      	bmi.n	10000876 <_ZN4Vibe27update_smoothed_user_paramsEv+0x416>
100007da:	eef2 7a08 	vmov.f32	s15, #40	; 0x41400000  12.0
100007de:	eef4 5a67 	vcmp.f32	s11, s15
100007e2:	eef1 fa10 	vmrs	APSR_nzcv, fpscr
100007e6:	fe77 5aa5 	vselgt.f32	s11, s15, s11
100007ea:	eeb5 6ac0 	vcmpe.f32	s12, #0.0
100007ee:	eef1 fa10 	vmrs	APSR_nzcv, fpscr
100007f2:	edc3 5a07 	vstr	s11, [r3, #28]
100007f6:	d43b      	bmi.n	10000870 <_ZN4Vibe27update_smoothed_user_paramsEv+0x410>
100007f8:	eddf 7a15 	vldr	s15, [pc, #84]	; 10000850 <_ZN4Vibe27update_smoothed_user_paramsEv+0x3f0>
100007fc:	eeb4 6a67 	vcmp.f32	s12, s15
10000800:	eef1 fa10 	vmrs	APSR_nzcv, fpscr
10000804:	fe37 6a86 	vselgt.f32	s12, s15, s12
10000808:	eddf 7a12 	vldr	s15, [pc, #72]	; 10000854 <_ZN4Vibe27update_smoothed_user_paramsEv+0x3f4>
1000080c:	eef4 6ae7 	vcmpe.f32	s13, s15
10000810:	eef1 fa10 	vmrs	APSR_nzcv, fpscr
10000814:	ed83 6a08 	vstr	s12, [r3, #32]
10000818:	d40f      	bmi.n	1000083a <_ZN4Vibe27update_smoothed_user_paramsEv+0x3da>
1000081a:	ecbd 8b06 	vpop	{d8-d10}
1000081e:	eef6 7a00 	vmov.f32	s15, #96	; 0x3f000000  0.5
10000822:	eef4 6a67 	vcmp.f32	s13, s15
10000826:	eef1 fa10 	vmrs	APSR_nzcv, fpscr
1000082a:	fe77 6aa6 	vselgt.f32	s13, s15, s13
1000082e:	edc3 6a09 	vstr	s13, [r3, #36]	; 0x24
10000832:	bd10      	pop	{r4, pc}
10000834:	ed9f 7a0b 	vldr	s14, [pc, #44]	; 10000864 <_ZN4Vibe27update_smoothed_user_paramsEv+0x404>
10000838:	e7b7      	b.n	100007aa <_ZN4Vibe27update_smoothed_user_paramsEv+0x34a>
1000083a:	eef0 6a67 	vmov.f32	s13, s15
1000083e:	ecbd 8b06 	vpop	{d8-d10}
10000842:	edc3 6a09 	vstr	s13, [r3, #36]	; 0x24
10000846:	bd10      	pop	{r4, pc}
10000848:	3f266666 	.word	0x3f266666
1000084c:	3ca3d70a 	.word	0x3ca3d70a
10000850:	3d4ccccd 	.word	0x3d4ccccd
10000854:	3ba3d70a 	.word	0x3ba3d70a
10000858:	42a00000 	.word	0x42a00000
1000085c:	bebabef7 	.word	0xbebabef7
10000860:	bb956592 	.word	0xbb956592
10000864:	00000000 	.word	0x00000000
10000868:	c0c90fdb 	.word	0xc0c90fdb
1000086c:	3a3e37c6 	.word	0x3a3e37c6
10000870:	ed1f 6a04 	vldr	s12, [pc, #-16]	; 10000864 <_ZN4Vibe27update_smoothed_user_paramsEv+0x404>
10000874:	e7c8      	b.n	10000808 <_ZN4Vibe27update_smoothed_user_paramsEv+0x3a8>
10000876:	eef0 5a67 	vmov.f32	s11, s15
1000087a:	e7b6      	b.n	100007ea <_ZN4Vibe27update_smoothed_user_paramsEv+0x38a>
1000087c:	eeb0 5a67 	vmov.f32	s10, s15
10000880:	e784      	b.n	1000078c <_ZN4Vibe27update_smoothed_user_paramsEv+0x32c>
10000882:	eeb0 0a67 	vmov.f32	s0, s15
10000886:	e770      	b.n	1000076a <_ZN4Vibe27update_smoothed_user_paramsEv+0x30a>
10000888:	ed1f 8a0a 	vldr	s16, [pc, #-40]	; 10000864 <_ZN4Vibe27update_smoothed_user_paramsEv+0x404>
1000088c:	e75b      	b.n	10000746 <_ZN4Vibe27update_smoothed_user_paramsEv+0x2e6>
1000088e:	ed5f 9a0b 	vldr	s19, [pc, #-44]	; 10000864 <_ZN4Vibe27update_smoothed_user_paramsEv+0x404>
10000892:	e748      	b.n	10000726 <_ZN4Vibe27update_smoothed_user_paramsEv+0x2c6>
10000894:	ed5f 4a0d 	vldr	s9, [pc, #-52]	; 10000864 <_ZN4Vibe27update_smoothed_user_paramsEv+0x404>
10000898:	e735      	b.n	10000706 <_ZN4Vibe27update_smoothed_user_paramsEv+0x2a6>
1000089a:	eeb0 7a66 	vmov.f32	s14, s13
1000089e:	e69a      	b.n	100005d6 <_ZN4Vibe27update_smoothed_user_paramsEv+0x176>
100008a0:	ed5f 7a10 	vldr	s15, [pc, #-64]	; 10000864 <_ZN4Vibe27update_smoothed_user_paramsEv+0x404>
100008a4:	e683      	b.n	100005ae <_ZN4Vibe27update_smoothed_user_paramsEv+0x14e>
100008a6:	eeb0 7a66 	vmov.f32	s14, s13
100008aa:	e66e      	b.n	1000058a <_ZN4Vibe27update_smoothed_user_paramsEv+0x12a>
100008ac:	eef0 7a66 	vmov.f32	s15, s13
100008b0:	e622      	b.n	100004f8 <_ZN4Vibe27update_smoothed_user_paramsEv+0x98>
100008b2:	ed1f 7a14 	vldr	s14, [pc, #-80]	; 10000864 <_ZN4Vibe27update_smoothed_user_paramsEv+0x404>
100008b6:	e60b      	b.n	100004d0 <_ZN4Vibe27update_smoothed_user_paramsEv+0x70>
100008b8:	ed5f 7a16 	vldr	s15, [pc, #-88]	; 10000864 <_ZN4Vibe27update_smoothed_user_paramsEv+0x404>
100008bc:	e5f6      	b.n	100004ac <_ZN4Vibe27update_smoothed_user_paramsEv+0x4c>
100008be:	ed1f 7a17 	vldr	s14, [pc, #-92]	; 10000864 <_ZN4Vibe27update_smoothed_user_paramsEv+0x404>
100008c2:	e5e1      	b.n	10000488 <_ZN4Vibe27update_smoothed_user_paramsEv+0x28>
100008c4:	ed5f 6a18 	vldr	s13, [pc, #-96]	; 10000868 <_ZN4Vibe27update_smoothed_user_paramsEv+0x408>
100008c8:	ed1f 7a18 	vldr	s14, [pc, #-96]	; 1000086c <_ZN4Vibe27update_smoothed_user_paramsEv+0x40c>
100008cc:	ee67 7aa6 	vmul.f32	s15, s15, s13
100008d0:	ee67 7a87 	vmul.f32	s15, s15, s14
100008d4:	ee17 0a90 	vmov	r0, s15
100008d8:	e699      	b.n	1000060e <_ZN4Vibe27update_smoothed_user_paramsEv+0x1ae>
100008da:	bf00      	nop

100008dc <_ZN4Vibe10init_vibesEv>:
100008dc:	e92d 4ff0 	stmdb	sp!, {r4, r5, r6, r7, r8, r9, sl, fp, lr}
100008e0:	eddf 7a48 	vldr	s15, [pc, #288]	; 10000a04 <_ZN4Vibe10init_vibesEv+0x128>
100008e4:	b089      	sub	sp, #36	; 0x24
100008e6:	46ea      	mov	sl, sp
100008e8:	eddf 4a47 	vldr	s9, [pc, #284]	; 10000a08 <_ZN4Vibe10init_vibesEv+0x12c>
100008ec:	eeb0 5a00 	vmov.f32	s10, #0	; 0x40000000  2.0
100008f0:	eeff 5a00 	vmov.f32	s11, #240	; 0xbf800000 -1.0
100008f4:	eddf 1a45 	vldr	s3, [pc, #276]	; 10000a0c <_ZN4Vibe10init_vibesEv+0x130>
100008f8:	ed9f 2a45 	vldr	s4, [pc, #276]	; 10000a10 <_ZN4Vibe10init_vibesEv+0x134>
100008fc:	eddf 2a45 	vldr	s5, [pc, #276]	; 10000a14 <_ZN4Vibe10init_vibesEv+0x138>
10000900:	2500      	movs	r5, #0
10000902:	ed9f 3a45 	vldr	s6, [pc, #276]	; 10000a18 <_ZN4Vibe10init_vibesEv+0x13c>
10000906:	466f      	mov	r7, sp
10000908:	f8df e11c 	ldr.w	lr, [pc, #284]	; 10000a28 <_ZN4Vibe10init_vibesEv+0x14c>
1000090c:	f8df c11c 	ldr.w	ip, [pc, #284]	; 10000a2c <_ZN4Vibe10init_vibesEv+0x150>
10000910:	4942      	ldr	r1, [pc, #264]	; (10000a1c <_ZN4Vibe10init_vibesEv+0x140>)
10000912:	4b43      	ldr	r3, [pc, #268]	; (10000a20 <_ZN4Vibe10init_vibesEv+0x144>)
10000914:	f500 6282 	add.w	r2, r0, #1040	; 0x410
10000918:	f8c0 e3e8 	str.w	lr, [r0, #1000]	; 0x3e8
1000091c:	f8c0 c3ec 	str.w	ip, [r0, #1004]	; 0x3ec
10000920:	edc0 7af9 	vstr	s15, [r0, #996]	; 0x3e4
10000924:	f8df b108 	ldr.w	fp, [pc, #264]	; 10000a30 <_ZN4Vibe10init_vibesEv+0x154>
10000928:	6011      	str	r1, [r2, #0]
1000092a:	4c3e      	ldr	r4, [pc, #248]	; (10000a24 <_ZN4Vibe10init_vibesEv+0x148>)
1000092c:	f8c0 33e0 	str.w	r3, [r0, #992]	; 0x3e0
10000930:	f8d0 3614 	ldr.w	r3, [r0, #1556]	; 0x614
10000934:	4606      	mov	r6, r0
10000936:	4686      	mov	lr, r0
10000938:	405c      	eors	r4, r3
1000093a:	f500 7c7c 	add.w	ip, r0, #1008	; 0x3f0
1000093e:	e8bb 000f 	ldmia.w	fp!, {r0, r1, r2, r3}
10000942:	e8aa 000f 	stmia.w	sl!, {r0, r1, r2, r3}
10000946:	e89b 000f 	ldmia.w	fp, {r0, r1, r2, r3}
1000094a:	e88a 000f 	stmia.w	sl, {r0, r1, r2, r3}
1000094e:	f8df 90e4 	ldr.w	r9, [pc, #228]	; 10000a34 <_ZN4Vibe10init_vibesEv+0x158>
10000952:	f8df 80e4 	ldr.w	r8, [pc, #228]	; 10000a38 <_ZN4Vibe10init_vibesEv+0x15c>
10000956:	fb09 8404 	mla	r4, r9, r4, r8
1000095a:	0a23      	lsrs	r3, r4, #8
1000095c:	ee06 3a90 	vmov	s13, r3
10000960:	eef8 6ae6 	vcvt.f32.s32	s13, s13
10000964:	fb09 8404 	mla	r4, r9, r4, r8
10000968:	0a21      	lsrs	r1, r4, #8
1000096a:	eeb7 6a00 	vmov.f32	s12, #112	; 0x3f800000  1.0
1000096e:	ee66 6aa4 	vmul.f32	s13, s13, s9
10000972:	ee07 1a10 	vmov	s14, r1
10000976:	eef0 3a65 	vmov.f32	s7, s11
1000097a:	eeb8 7ac7 	vcvt.f32.s32	s14, s14
1000097e:	eee6 3a85 	vfma.f32	s7, s13, s10
10000982:	eef0 6a46 	vmov.f32	s13, s12
10000986:	ee27 7a24 	vmul.f32	s14, s14, s9
1000098a:	ecf7 7a01 	vldmia	r7!, {s15}
1000098e:	eeb0 4a65 	vmov.f32	s8, s11
10000992:	eee3 6aa1 	vfma.f32	s13, s7, s3
10000996:	eea7 4a05 	vfma.f32	s8, s14, s10
1000099a:	ee67 7aa6 	vmul.f32	s15, s15, s13
1000099e:	eeb0 7a46 	vmov.f32	s14, s12
100009a2:	2268      	movs	r2, #104	; 0x68
100009a4:	ecec 7a01 	vstmia	ip!, {s15}
100009a8:	2300      	movs	r3, #0
100009aa:	eea4 7a02 	vfma.f32	s14, s8, s4
100009ae:	ee67 7aa2 	vmul.f32	s15, s15, s5
100009b2:	4496      	add	lr, r2
100009b4:	fb02 6205 	mla	r2, r2, r5, r6
100009b8:	3501      	adds	r5, #1
100009ba:	2d08      	cmp	r5, #8
100009bc:	ed8e 7a25 	vstr	s14, [lr, #148]	; 0x94
100009c0:	ed8e 3a24 	vstr	s6, [lr, #144]	; 0x90
100009c4:	ed8c 6a28 	vstr	s12, [ip, #160]	; 0xa0
100009c8:	edcc 7a30 	vstr	s15, [ip, #192]	; 0xc0
100009cc:	e9c2 3326 	strd	r3, r3, [r2, #152]	; 0x98
100009d0:	e9c2 3328 	strd	r3, r3, [r2, #160]	; 0xa0
100009d4:	e9c2 332a 	strd	r3, r3, [r2, #168]	; 0xa8
100009d8:	e9c2 332c 	strd	r3, r3, [r2, #176]	; 0xb0
100009dc:	e9c2 332e 	strd	r3, r3, [r2, #184]	; 0xb8
100009e0:	e9c2 3330 	strd	r3, r3, [r2, #192]	; 0xc0
100009e4:	e9c2 3332 	strd	r3, r3, [r2, #200]	; 0xc8
100009e8:	e9c2 3334 	strd	r3, r3, [r2, #208]	; 0xd0
100009ec:	e9c2 3336 	strd	r3, r3, [r2, #216]	; 0xd8
100009f0:	e9c2 3338 	strd	r3, r3, [r2, #224]	; 0xe0
100009f4:	e9c2 333a 	strd	r3, r3, [r2, #232]	; 0xe8
100009f8:	e9c2 333c 	strd	r3, r3, [r2, #240]	; 0xf0
100009fc:	d1ab      	bne.n	10000956 <_ZN4Vibe10init_vibesEv+0x7a>
100009fe:	b009      	add	sp, #36	; 0x24
10000a00:	e8bd 8ff0 	ldmia.w	sp!, {r4, r5, r6, r7, r8, r9, sl, fp, pc}
10000a04:	47ac4400 	.word	0x47ac4400
10000a08:	33800001 	.word	0x33800001
10000a0c:	3dcccccd 	.word	0x3dcccccd
10000a10:	3d4ccccd 	.word	0x3d4ccccd
10000a14:	4dc5ab07 	.word	0x4dc5ab07
10000a18:	00000000 	.word	0x00000000
10000a1c:	43160000 	.word	0x43160000
10000a20:	bf7e4dfd 	.word	0xbf7e4dfd
10000a24:	51f15eed 	.word	0x51f15eed
10000a28:	4592e000 	.word	0x4592e000
10000a2c:	358637bd 	.word	0x358637bd
10000a30:	10009088 	.word	0x10009088
10000a34:	0019660d 	.word	0x0019660d
10000a38:	3c6ef35f 	.word	0x3c6ef35f

10000a3c <_ZN4VibeC1EPfS0_>:
10000a3c:	b5f8      	push	{r3, r4, r5, r6, r7, lr}
10000a3e:	2701      	movs	r7, #1
10000a40:	4604      	mov	r4, r0
10000a42:	2500      	movs	r5, #0
10000a44:	f04f 567e 	mov.w	r6, #1065353216	; 0x3f800000
10000a48:	ed9f 6a4a 	vldr	s12, [pc, #296]	; 10000b74 <_ZN4VibeC1EPfS0_+0x138>
10000a4c:	eddf 6a4a 	vldr	s13, [pc, #296]	; 10000b78 <_ZN4VibeC1EPfS0_+0x13c>
10000a50:	eeb6 7a00 	vmov.f32	s14, #96	; 0x3f000000  0.5
10000a54:	eef0 7a0c 	vmov.f32	s15, #12	; 0x40600000  3.5
10000a58:	7007      	strb	r7, [r0, #0]
10000a5a:	f04f 577a 	mov.w	r7, #1048576000	; 0x3e800000
10000a5e:	4b47      	ldr	r3, [pc, #284]	; (10000b7c <_ZN4VibeC1EPfS0_+0x140>)
10000a60:	e9c0 1201 	strd	r1, r2, [r0, #4]
10000a64:	6443      	str	r3, [r0, #68]	; 0x44
10000a66:	6503      	str	r3, [r0, #80]	; 0x50
10000a68:	4b45      	ldr	r3, [pc, #276]	; (10000b80 <_ZN4VibeC1EPfS0_+0x144>)
10000a6a:	4a46      	ldr	r2, [pc, #280]	; (10000b84 <_ZN4VibeC1EPfS0_+0x148>)
10000a6c:	6543      	str	r3, [r0, #84]	; 0x54
10000a6e:	4946      	ldr	r1, [pc, #280]	; (10000b88 <_ZN4VibeC1EPfS0_+0x14c>)
10000a70:	4b46      	ldr	r3, [pc, #280]	; (10000b8c <_ZN4VibeC1EPfS0_+0x150>)
10000a72:	62c1      	str	r1, [r0, #44]	; 0x2c
10000a74:	65c2      	str	r2, [r0, #92]	; 0x5c
10000a76:	6303      	str	r3, [r0, #48]	; 0x30
10000a78:	4945      	ldr	r1, [pc, #276]	; (10000b90 <_ZN4VibeC1EPfS0_+0x154>)
10000a7a:	4a46      	ldr	r2, [pc, #280]	; (10000b94 <_ZN4VibeC1EPfS0_+0x158>)
10000a7c:	4b46      	ldr	r3, [pc, #280]	; (10000b98 <_ZN4VibeC1EPfS0_+0x15c>)
10000a7e:	6601      	str	r1, [r0, #96]	; 0x60
10000a80:	6342      	str	r2, [r0, #52]	; 0x34
10000a82:	6403      	str	r3, [r0, #64]	; 0x40
10000a84:	4a45      	ldr	r2, [pc, #276]	; (10000b9c <_ZN4VibeC1EPfS0_+0x160>)
10000a86:	4946      	ldr	r1, [pc, #280]	; (10000ba0 <_ZN4VibeC1EPfS0_+0x164>)
10000a88:	4b46      	ldr	r3, [pc, #280]	; (10000ba4 <_ZN4VibeC1EPfS0_+0x168>)
10000a8a:	f8df c138 	ldr.w	ip, [pc, #312]	; 10000bc4 <_ZN4VibeC1EPfS0_+0x188>
10000a8e:	6481      	str	r1, [r0, #72]	; 0x48
10000a90:	6382      	str	r2, [r0, #56]	; 0x38
10000a92:	6643      	str	r3, [r0, #100]	; 0x64
10000a94:	f8df e130 	ldr.w	lr, [pc, #304]	; 10000bc8 <_ZN4VibeC1EPfS0_+0x18c>
10000a98:	4b43      	ldr	r3, [pc, #268]	; (10000ba8 <_ZN4VibeC1EPfS0_+0x16c>)
10000a9a:	4a44      	ldr	r2, [pc, #272]	; (10000bac <_ZN4VibeC1EPfS0_+0x170>)
10000a9c:	4944      	ldr	r1, [pc, #272]	; (10000bb0 <_ZN4VibeC1EPfS0_+0x174>)
10000a9e:	ed80 6a05 	vstr	s12, [r0, #20]
10000aa2:	edc0 6a06 	vstr	s13, [r0, #24]
10000aa6:	ed80 7a07 	vstr	s14, [r0, #28]
10000aaa:	edc0 7a08 	vstr	s15, [r0, #32]
10000aae:	f8c0 e028 	str.w	lr, [r0, #40]	; 0x28
10000ab2:	f8c0 c03c 	str.w	ip, [r0, #60]	; 0x3c
10000ab6:	f8c0 c058 	str.w	ip, [r0, #88]	; 0x58
10000aba:	60c6      	str	r6, [r0, #12]
10000abc:	6106      	str	r6, [r0, #16]
10000abe:	6246      	str	r6, [r0, #36]	; 0x24
10000ac0:	6745      	str	r5, [r0, #116]	; 0x74
10000ac2:	6785      	str	r5, [r0, #120]	; 0x78
10000ac4:	67c5      	str	r5, [r0, #124]	; 0x7c
10000ac6:	6681      	str	r1, [r0, #104]	; 0x68
10000ac8:	64c2      	str	r2, [r0, #76]	; 0x4c
10000aca:	2100      	movs	r1, #0
10000acc:	66e7      	str	r7, [r4, #108]	; 0x6c
10000ace:	f44f 7250 	mov.w	r2, #832	; 0x340
10000ad2:	6723      	str	r3, [r4, #112]	; 0x70
10000ad4:	3098      	adds	r0, #152	; 0x98
10000ad6:	f8c4 5080 	str.w	r5, [r4, #128]	; 0x80
10000ada:	f8c4 5088 	str.w	r5, [r4, #136]	; 0x88
10000ade:	f8c4 508c 	str.w	r5, [r4, #140]	; 0x8c
10000ae2:	f008 f9a5 	bl	10008e30 <memset>
10000ae6:	f8c4 60fc 	str.w	r6, [r4, #252]	; 0xfc
10000aea:	f8c4 6164 	str.w	r6, [r4, #356]	; 0x164
10000aee:	f8c4 61cc 	str.w	r6, [r4, #460]	; 0x1cc
10000af2:	f8c4 6234 	str.w	r6, [r4, #564]	; 0x234
10000af6:	f8c4 629c 	str.w	r6, [r4, #668]	; 0x29c
10000afa:	f8c4 6304 	str.w	r6, [r4, #772]	; 0x304
10000afe:	f8c4 636c 	str.w	r6, [r4, #876]	; 0x36c
10000b02:	f8c4 63d4 	str.w	r6, [r4, #980]	; 0x3d4
10000b06:	f8c4 53d8 	str.w	r5, [r4, #984]	; 0x3d8
10000b0a:	f8c4 53dc 	str.w	r5, [r4, #988]	; 0x3dc
10000b0e:	f8c4 53e0 	str.w	r5, [r4, #992]	; 0x3e0
10000b12:	f8c4 53e4 	str.w	r5, [r4, #996]	; 0x3e4
10000b16:	f8c4 53e8 	str.w	r5, [r4, #1000]	; 0x3e8
10000b1a:	f8c4 53ec 	str.w	r5, [r4, #1004]	; 0x3ec
10000b1e:	2220      	movs	r2, #32
10000b20:	2100      	movs	r1, #0
10000b22:	f504 707c 	add.w	r0, r4, #1008	; 0x3f0
10000b26:	f008 f983 	bl	10008e30 <memset>
10000b2a:	4b22      	ldr	r3, [pc, #136]	; (10000bb4 <_ZN4VibeC1EPfS0_+0x178>)
10000b2c:	f504 6282 	add.w	r2, r4, #1040	; 0x410
10000b30:	f504 6cc3 	add.w	ip, r4, #1560	; 0x618
10000b34:	f104 0e14 	add.w	lr, r4, #20
10000b38:	6015      	str	r5, [r2, #0]
10000b3a:	f8c4 3614 	str.w	r3, [r4, #1556]	; 0x614
10000b3e:	e8be 000f 	ldmia.w	lr!, {r0, r1, r2, r3}
10000b42:	e8ac 000f 	stmia.w	ip!, {r0, r1, r2, r3}
10000b46:	e8be 000f 	ldmia.w	lr!, {r0, r1, r2, r3}
10000b4a:	e8ac 000f 	stmia.w	ip!, {r0, r1, r2, r3}
10000b4e:	e89e 0003 	ldmia.w	lr, {r0, r1}
10000b52:	4e19      	ldr	r6, [pc, #100]	; (10000bb8 <_ZN4VibeC1EPfS0_+0x17c>)
10000b54:	4d19      	ldr	r5, [pc, #100]	; (10000bbc <_ZN4VibeC1EPfS0_+0x180>)
10000b56:	4f1a      	ldr	r7, [pc, #104]	; (10000bc0 <_ZN4VibeC1EPfS0_+0x184>)
10000b58:	e88c 0003 	stmia.w	ip, {r0, r1}
10000b5c:	4620      	mov	r0, r4
10000b5e:	f8c4 7084 	str.w	r7, [r4, #132]	; 0x84
10000b62:	f8c4 6090 	str.w	r6, [r4, #144]	; 0x90
10000b66:	f8c4 5094 	str.w	r5, [r4, #148]	; 0x94
10000b6a:	f7ff feb7 	bl	100008dc <_ZN4Vibe10init_vibesEv>
10000b6e:	4620      	mov	r0, r4
10000b70:	bdf8      	pop	{r3, r4, r5, r6, r7, pc}
10000b72:	bf00      	nop
10000b74:	3f59999a 	.word	0x3f59999a
10000b78:	3ed70a3d 	.word	0x3ed70a3d
10000b7c:	49742400 	.word	0x49742400
10000b80:	46435000 	.word	0x46435000
10000b84:	40200000 	.word	0x40200000
10000b88:	3f7ae148 	.word	0x3f7ae148
10000b8c:	3f99999a 	.word	0x3f99999a
10000b90:	40c00000 	.word	0x40c00000
10000b94:	3c9374bc 	.word	0x3c9374bc
10000b98:	3d23d70a 	.word	0x3d23d70a
10000b9c:	3da3d70a 	.word	0x3da3d70a
10000ba0:	40f33a93 	.word	0x40f33a93
10000ba4:	3eb33333 	.word	0x3eb33333
10000ba8:	41900000 	.word	0x41900000
10000bac:	4573c000 	.word	0x4573c000
10000bb0:	3e4ccccd 	.word	0x3e4ccccd
10000bb4:	13579bdf 	.word	0x13579bdf
10000bb8:	3d8f5818 	.word	0x3d8f5818
10000bbc:	3c9344a0 	.word	0x3c9344a0
10000bc0:	b646726c 	.word	0xb646726c
10000bc4:	3c23d70a 	.word	0x3c23d70a
10000bc8:	3f147ae1 	.word	0x3f147ae1

10000bcc <_ZN4Vibe6reseedEm>:
10000bcc:	b538      	push	{r3, r4, r5, lr}
10000bce:	4604      	mov	r4, r0
10000bd0:	ed2d 8b02 	vpush	{d8}
10000bd4:	2900      	cmp	r1, #0
10000bd6:	f000 814a 	beq.w	10000e6e <_ZN4Vibe6reseedEm+0x2a2>
10000bda:	4daa      	ldr	r5, [pc, #680]	; (10000e84 <_ZN4Vibe6reseedEm+0x2b8>)
10000bdc:	404d      	eors	r5, r1
10000bde:	eddf 7aaa 	vldr	s15, [pc, #680]	; 10000e88 <_ZN4Vibe6reseedEm+0x2bc>
10000be2:	ed94 7a05 	vldr	s14, [r4, #20]
10000be6:	eeb4 7ae7 	vcmpe.f32	s14, s15
10000bea:	eef1 fa10 	vmrs	APSR_nzcv, fpscr
10000bee:	edc4 7a22 	vstr	s15, [r4, #136]	; 0x88
10000bf2:	edc4 7a23 	vstr	s15, [r4, #140]	; 0x8c
10000bf6:	edc4 7af7 	vstr	s15, [r4, #988]	; 0x3dc
10000bfa:	edc4 7af6 	vstr	s15, [r4, #984]	; 0x3d8
10000bfe:	f8c4 1614 	str.w	r1, [r4, #1556]	; 0x614
10000c02:	f100 8131 	bmi.w	10000e68 <_ZN4Vibe6reseedEm+0x29c>
10000c06:	eef7 7a00 	vmov.f32	s15, #112	; 0x3f800000  1.0
10000c0a:	eeb4 7a67 	vcmp.f32	s14, s15
10000c0e:	eef1 fa10 	vmrs	APSR_nzcv, fpscr
10000c12:	fe37 7a87 	vselgt.f32	s14, s15, s14
10000c16:	edd4 7a06 	vldr	s15, [r4, #24]
10000c1a:	eef5 7ac0 	vcmpe.f32	s15, #0.0
10000c1e:	eef1 fa10 	vmrs	APSR_nzcv, fpscr
10000c22:	ed84 7a05 	vstr	s14, [r4, #20]
10000c26:	f100 811c 	bmi.w	10000e62 <_ZN4Vibe6reseedEm+0x296>
10000c2a:	ed9f 7a98 	vldr	s14, [pc, #608]	; 10000e8c <_ZN4Vibe6reseedEm+0x2c0>
10000c2e:	eef4 7a47 	vcmp.f32	s15, s14
10000c32:	eef1 fa10 	vmrs	APSR_nzcv, fpscr
10000c36:	fe77 7a27 	vselgt.f32	s15, s14, s15
10000c3a:	ed94 7a07 	vldr	s14, [r4, #28]
10000c3e:	eeb5 7ac0 	vcmpe.f32	s14, #0.0
10000c42:	eef1 fa10 	vmrs	APSR_nzcv, fpscr
10000c46:	edc4 7a06 	vstr	s15, [r4, #24]
10000c4a:	f100 8107 	bmi.w	10000e5c <_ZN4Vibe6reseedEm+0x290>
10000c4e:	eef7 7a00 	vmov.f32	s15, #112	; 0x3f800000  1.0
10000c52:	eeb4 7a67 	vcmp.f32	s14, s15
10000c56:	eef1 fa10 	vmrs	APSR_nzcv, fpscr
10000c5a:	fe37 7a87 	vselgt.f32	s14, s15, s14
10000c5e:	edd4 7a08 	vldr	s15, [r4, #32]
10000c62:	eef6 6a00 	vmov.f32	s13, #96	; 0x3f000000  0.5
10000c66:	eef4 7ae6 	vcmpe.f32	s15, s13
10000c6a:	eef1 fa10 	vmrs	APSR_nzcv, fpscr
10000c6e:	ed84 7a07 	vstr	s14, [r4, #28]
10000c72:	f100 80f0 	bmi.w	10000e56 <_ZN4Vibe6reseedEm+0x28a>
10000c76:	eeb1 7a08 	vmov.f32	s14, #24	; 0x40c00000  6.0
10000c7a:	eef4 7a47 	vcmp.f32	s15, s14
10000c7e:	eef1 fa10 	vmrs	APSR_nzcv, fpscr
10000c82:	fe77 7a27 	vselgt.f32	s15, s14, s15
10000c86:	ed94 7a09 	vldr	s14, [r4, #36]	; 0x24
10000c8a:	eef5 6a00 	vmov.f32	s13, #80	; 0x3e800000  0.250
10000c8e:	eeb4 7ae6 	vcmpe.f32	s14, s13
10000c92:	eef1 fa10 	vmrs	APSR_nzcv, fpscr
10000c96:	edc4 7a08 	vstr	s15, [r4, #32]
10000c9a:	f100 80d9 	bmi.w	10000e50 <_ZN4Vibe6reseedEm+0x284>
10000c9e:	eef0 7a00 	vmov.f32	s15, #0	; 0x40000000  2.0
10000ca2:	eeb4 7a67 	vcmp.f32	s14, s15
10000ca6:	eef1 fa10 	vmrs	APSR_nzcv, fpscr
10000caa:	fe37 7a87 	vselgt.f32	s14, s15, s14
10000cae:	edd4 7a0a 	vldr	s15, [r4, #40]	; 0x28
10000cb2:	eef5 7ac0 	vcmpe.f32	s15, #0.0
10000cb6:	eef1 fa10 	vmrs	APSR_nzcv, fpscr
10000cba:	ed84 7a09 	vstr	s14, [r4, #36]	; 0x24
10000cbe:	f100 8087 	bmi.w	10000dd0 <_ZN4Vibe6reseedEm+0x204>
10000cc2:	eeb7 7a00 	vmov.f32	s14, #112	; 0x3f800000  1.0
10000cc6:	eef4 7a47 	vcmp.f32	s15, s14
10000cca:	eef1 fa10 	vmrs	APSR_nzcv, fpscr
10000cce:	fe77 7a27 	vselgt.f32	s15, s14, s15
10000cd2:	ed94 7a0b 	vldr	s14, [r4, #44]	; 0x2c
10000cd6:	eef4 7ac7 	vcmpe.f32	s15, s14
10000cda:	eef1 fa10 	vmrs	APSR_nzcv, fpscr
10000cde:	edc4 7a0a 	vstr	s15, [r4, #40]	; 0x28
10000ce2:	dc07      	bgt.n	10000cf4 <_ZN4Vibe6reseedEm+0x128>
10000ce4:	eef7 7a00 	vmov.f32	s15, #112	; 0x3f800000  1.0
10000ce8:	eeb4 7ae7 	vcmpe.f32	s14, s15
10000cec:	eef1 fa10 	vmrs	APSR_nzcv, fpscr
10000cf0:	fe77 7a87 	vselgt.f32	s15, s15, s14
10000cf4:	edd4 6a0c 	vldr	s13, [r4, #48]	; 0x30
10000cf8:	ed9f 7a65 	vldr	s14, [pc, #404]	; 10000e90 <_ZN4Vibe6reseedEm+0x2c4>
10000cfc:	eef4 6ac7 	vcmpe.f32	s13, s14
10000d00:	eef1 fa10 	vmrs	APSR_nzcv, fpscr
10000d04:	edc4 7a0b 	vstr	s15, [r4, #44]	; 0x2c
10000d08:	f100 809f 	bmi.w	10000e4a <_ZN4Vibe6reseedEm+0x27e>
10000d0c:	eef2 7a08 	vmov.f32	s15, #40	; 0x41400000  12.0
10000d10:	eef4 6a67 	vcmp.f32	s13, s15
10000d14:	eef1 fa10 	vmrs	APSR_nzcv, fpscr
10000d18:	fe77 6aa6 	vselgt.f32	s13, s15, s13
10000d1c:	ed94 7a0d 	vldr	s14, [r4, #52]	; 0x34
10000d20:	eeb5 7ac0 	vcmpe.f32	s14, #0.0
10000d24:	eef1 fa10 	vmrs	APSR_nzcv, fpscr
10000d28:	edc4 6a0c 	vstr	s13, [r4, #48]	; 0x30
10000d2c:	f100 808a 	bmi.w	10000e44 <_ZN4Vibe6reseedEm+0x278>
10000d30:	eddf 7a58 	vldr	s15, [pc, #352]	; 10000e94 <_ZN4Vibe6reseedEm+0x2c8>
10000d34:	eeb4 7a67 	vcmp.f32	s14, s15
10000d38:	eef1 fa10 	vmrs	APSR_nzcv, fpscr
10000d3c:	fe37 7a87 	vselgt.f32	s14, s15, s14
10000d40:	edd4 7a0e 	vldr	s15, [r4, #56]	; 0x38
10000d44:	eddf 6a54 	vldr	s13, [pc, #336]	; 10000e98 <_ZN4Vibe6reseedEm+0x2cc>
10000d48:	eef4 7ae6 	vcmpe.f32	s15, s13
10000d4c:	eef1 fa10 	vmrs	APSR_nzcv, fpscr
10000d50:	ed84 7a0d 	vstr	s14, [r4, #52]	; 0x34
10000d54:	d470      	bmi.n	10000e38 <_ZN4Vibe6reseedEm+0x26c>
10000d56:	eeb6 7a00 	vmov.f32	s14, #96	; 0x3f000000  0.5
10000d5a:	eef4 7a47 	vcmp.f32	s15, s14
10000d5e:	eef1 fa10 	vmrs	APSR_nzcv, fpscr
10000d62:	fe77 7a27 	vselgt.f32	s15, s14, s15
10000d66:	ed94 7a0f 	vldr	s14, [r4, #60]	; 0x3c
10000d6a:	eddf 6a4c 	vldr	s13, [pc, #304]	; 10000e9c <_ZN4Vibe6reseedEm+0x2d0>
10000d6e:	eeb4 7ae6 	vcmpe.f32	s14, s13
10000d72:	edc4 7a0e 	vstr	s15, [r4, #56]	; 0x38
10000d76:	4a43      	ldr	r2, [pc, #268]	; (10000e84 <_ZN4Vibe6reseedEm+0x2b8>)
10000d78:	4b49      	ldr	r3, [pc, #292]	; (10000ea0 <_ZN4Vibe6reseedEm+0x2d4>)
10000d7a:	eddf 7a43 	vldr	s15, [pc, #268]	; 10000e88 <_ZN4Vibe6reseedEm+0x2bc>
10000d7e:	4291      	cmp	r1, r2
10000d80:	bf08      	it	eq
10000d82:	461d      	moveq	r5, r3
10000d84:	eef1 fa10 	vmrs	APSR_nzcv, fpscr
10000d88:	f504 6cc3 	add.w	ip, r4, #1560	; 0x618
10000d8c:	f104 0e14 	add.w	lr, r4, #20
10000d90:	e8be 000f 	ldmia.w	lr!, {r0, r1, r2, r3}
10000d94:	e8ac 000f 	stmia.w	ip!, {r0, r1, r2, r3}
10000d98:	e8be 000f 	ldmia.w	lr!, {r0, r1, r2, r3}
10000d9c:	e8ac 000f 	stmia.w	ip!, {r0, r1, r2, r3}
10000da0:	e89e 0003 	ldmia.w	lr, {r0, r1}
10000da4:	e88c 0003 	stmia.w	ip, {r0, r1}
10000da8:	edc4 7a20 	vstr	s15, [r4, #128]	; 0x80
10000dac:	edc4 7a1d 	vstr	s15, [r4, #116]	; 0x74
10000db0:	edc4 7a1e 	vstr	s15, [r4, #120]	; 0x78
10000db4:	edc4 7a1f 	vstr	s15, [r4, #124]	; 0x7c
10000db8:	f8c4 5084 	str.w	r5, [r4, #132]	; 0x84
10000dbc:	d40b      	bmi.n	10000dd6 <_ZN4Vibe6reseedEm+0x20a>
10000dbe:	eef5 7a00 	vmov.f32	s15, #80	; 0x3e800000  0.250
10000dc2:	eeb4 7ae7 	vcmpe.f32	s14, s15
10000dc6:	eef1 fa10 	vmrs	APSR_nzcv, fpscr
10000dca:	dd53      	ble.n	10000e74 <_ZN4Vibe6reseedEm+0x2a8>
10000dcc:	4835      	ldr	r0, [pc, #212]	; (10000ea4 <_ZN4Vibe6reseedEm+0x2d8>)
10000dce:	e003      	b.n	10000dd8 <_ZN4Vibe6reseedEm+0x20c>
10000dd0:	eddf 7a2d 	vldr	s15, [pc, #180]	; 10000e88 <_ZN4Vibe6reseedEm+0x2bc>
10000dd4:	e77d      	b.n	10000cd2 <_ZN4Vibe6reseedEm+0x106>
10000dd6:	4834      	ldr	r0, [pc, #208]	; (10000ea8 <_ZN4Vibe6reseedEm+0x2dc>)
10000dd8:	edd4 8a10 	vldr	s17, [r4, #64]	; 0x40
10000ddc:	eddf 7a2f 	vldr	s15, [pc, #188]	; 10000e9c <_ZN4Vibe6reseedEm+0x2d0>
10000de0:	eef4 8ae7 	vcmpe.f32	s17, s15
10000de4:	eef1 fa10 	vmrs	APSR_nzcv, fpscr
10000de8:	d429      	bmi.n	10000e3e <_ZN4Vibe6reseedEm+0x272>
10000dea:	eef6 7a00 	vmov.f32	s15, #96	; 0x3f000000  0.5
10000dee:	eef4 8a67 	vcmp.f32	s17, s15
10000df2:	eef1 fa10 	vmrs	APSR_nzcv, fpscr
10000df6:	fe77 8aa8 	vselgt.f32	s17, s15, s17
10000dfa:	f003 fd99 	bl	10004930 <__wrap_expf>
10000dfe:	eeb7 8a00 	vmov.f32	s16, #112	; 0x3f800000  1.0
10000e02:	ee07 0a90 	vmov	s15, r0
10000e06:	ed9f 7a29 	vldr	s14, [pc, #164]	; 10000eac <_ZN4Vibe6reseedEm+0x2e0>
10000e0a:	ee78 7a67 	vsub.f32	s15, s16, s15
10000e0e:	ee87 7a28 	vdiv.f32	s14, s14, s17
10000e12:	edc4 7a24 	vstr	s15, [r4, #144]	; 0x90
10000e16:	ee17 0a10 	vmov	r0, s14
10000e1a:	f003 fd89 	bl	10004930 <__wrap_expf>
10000e1e:	ee07 0a90 	vmov	s15, r0
10000e22:	ee38 8a67 	vsub.f32	s16, s16, s15
10000e26:	4620      	mov	r0, r4
10000e28:	ed84 8a25 	vstr	s16, [r4, #148]	; 0x94
10000e2c:	ecbd 8b02 	vpop	{d8}
10000e30:	e8bd 4038 	ldmia.w	sp!, {r3, r4, r5, lr}
10000e34:	f7ff bd52 	b.w	100008dc <_ZN4Vibe10init_vibesEv>
10000e38:	eef0 7a66 	vmov.f32	s15, s13
10000e3c:	e793      	b.n	10000d66 <_ZN4Vibe6reseedEm+0x19a>
10000e3e:	eef0 8a67 	vmov.f32	s17, s15
10000e42:	e7da      	b.n	10000dfa <_ZN4Vibe6reseedEm+0x22e>
10000e44:	ed9f 7a10 	vldr	s14, [pc, #64]	; 10000e88 <_ZN4Vibe6reseedEm+0x2bc>
10000e48:	e77a      	b.n	10000d40 <_ZN4Vibe6reseedEm+0x174>
10000e4a:	eef0 6a47 	vmov.f32	s13, s14
10000e4e:	e765      	b.n	10000d1c <_ZN4Vibe6reseedEm+0x150>
10000e50:	eeb0 7a66 	vmov.f32	s14, s13
10000e54:	e72b      	b.n	10000cae <_ZN4Vibe6reseedEm+0xe2>
10000e56:	eef0 7a66 	vmov.f32	s15, s13
10000e5a:	e714      	b.n	10000c86 <_ZN4Vibe6reseedEm+0xba>
10000e5c:	ed9f 7a0a 	vldr	s14, [pc, #40]	; 10000e88 <_ZN4Vibe6reseedEm+0x2bc>
10000e60:	e6fd      	b.n	10000c5e <_ZN4Vibe6reseedEm+0x92>
10000e62:	eddf 7a09 	vldr	s15, [pc, #36]	; 10000e88 <_ZN4Vibe6reseedEm+0x2bc>
10000e66:	e6e8      	b.n	10000c3a <_ZN4Vibe6reseedEm+0x6e>
10000e68:	eeb0 7a67 	vmov.f32	s14, s15
10000e6c:	e6d3      	b.n	10000c16 <_ZN4Vibe6reseedEm+0x4a>
10000e6e:	4d10      	ldr	r5, [pc, #64]	; (10000eb0 <_ZN4Vibe6reseedEm+0x2e4>)
10000e70:	4910      	ldr	r1, [pc, #64]	; (10000eb4 <_ZN4Vibe6reseedEm+0x2e8>)
10000e72:	e6b4      	b.n	10000bde <_ZN4Vibe6reseedEm+0x12>
10000e74:	eddf 7a0d 	vldr	s15, [pc, #52]	; 10000eac <_ZN4Vibe6reseedEm+0x2e0>
10000e78:	eec7 7a87 	vdiv.f32	s15, s15, s14
10000e7c:	ee17 0a90 	vmov	r0, s15
10000e80:	e7aa      	b.n	10000dd8 <_ZN4Vibe6reseedEm+0x20c>
10000e82:	bf00      	nop
10000e84:	a511e9b3 	.word	0xa511e9b3
10000e88:	00000000 	.word	0x00000000
10000e8c:	3f266666 	.word	0x3f266666
10000e90:	3ca3d70a 	.word	0x3ca3d70a
10000e94:	3d4ccccd 	.word	0x3d4ccccd
10000e98:	3ba3d70a 	.word	0x3ba3d70a
10000e9c:	3a83126f 	.word	0x3a83126f
10000ea0:	a341316c 	.word	0xa341316c
10000ea4:	bb3e37c6 	.word	0xbb3e37c6
10000ea8:	bf39c277 	.word	0xbf39c277
10000eac:	ba3e37c6 	.word	0xba3e37c6
10000eb0:	b646726c 	.word	0xb646726c
10000eb4:	13579bdf 	.word	0x13579bdf

10000eb8 <_ZN4Vibe8modulateEff>:
10000eb8:	ed90 4af9 	vldr	s8, [r0, #996]	; 0x3e4
10000ebc:	ed90 0af8 	vldr	s0, [r0, #992]	; 0x3e0
10000ec0:	edd0 0afa 	vldr	s1, [r0, #1000]	; 0x3e8
10000ec4:	ed90 5afb 	vldr	s10, [r0, #1004]	; 0x3ec
10000ec8:	ee24 1a00 	vmul.f32	s2, s8, s0
10000ecc:	ed2d 8b0e 	vpush	{d8-d14}
10000ed0:	edd0 2a13 	vldr	s5, [r0, #76]	; 0x4c
10000ed4:	edd0 8a14 	vldr	s17, [r0, #80]	; 0x50
10000ed8:	4603      	mov	r3, r0
10000eda:	f04f 0c00 	mov.w	ip, #0
10000ede:	ed9f 9a5b 	vldr	s18, [pc, #364]	; 1000104c <_ZN4Vibe8modulateEff+0x194>
10000ee2:	eef7 6a00 	vmov.f32	s13, #112	; 0x3f800000  1.0
10000ee6:	ed9f 3a5a 	vldr	s6, [pc, #360]	; 10001050 <_ZN4Vibe8modulateEff+0x198>
10000eea:	ee01 1a90 	vmov	s3, r1
10000eee:	ee02 2a10 	vmov	s4, r2
10000ef2:	eef1 3a45 	vneg.f32	s7, s10
10000ef6:	ee20 8a81 	vmul.f32	s16, s1, s2
10000efa:	f500 707c 	add.w	r0, r0, #1008	; 0x3f0
10000efe:	e091      	b.n	10001024 <_ZN4Vibe8modulateEff+0x16c>
10000f00:	eef4 8a67 	vcmp.f32	s17, s15
10000f04:	eef1 fa10 	vmrs	APSR_nzcv, fpscr
10000f08:	bf48      	it	mi
10000f0a:	eef0 7a68 	vmovmi.f32	s15, s17
10000f0e:	ecf0 aa01 	vldmia	r0!, {s21}
10000f12:	ee77 7a89 	vadd.f32	s15, s15, s18
10000f16:	ee85 6a2a 	vdiv.f32	s12, s10, s21
10000f1a:	ee30 7aa7 	vadd.f32	s14, s1, s15
10000f1e:	eeca da85 	vdiv.f32	s27, s21, s10
10000f22:	ee36 6a26 	vadd.f32	s12, s12, s13
10000f26:	ee27 7a04 	vmul.f32	s14, s14, s8
10000f2a:	ee64 5a27 	vmul.f32	s11, s8, s15
10000f2e:	ee27 7a2a 	vmul.f32	s14, s14, s21
10000f32:	ee7d daa6 	vadd.f32	s27, s27, s13
10000f36:	eeb0 aa46 	vmov.f32	s20, s12
10000f3a:	eef0 ca66 	vmov.f32	s25, s13
10000f3e:	eeb0 ba66 	vmov.f32	s22, s13
10000f42:	eea5 aa25 	vfma.f32	s20, s10, s11
10000f46:	eea3 6aa5 	vfma.f32	s12, s7, s11
10000f4a:	eee3 caa5 	vfma.f32	s25, s7, s11
10000f4e:	eea5 ba25 	vfma.f32	s22, s10, s11
10000f52:	ee60 9a2d 	vmul.f32	s19, s0, s27
10000f56:	ee64 5a07 	vmul.f32	s11, s8, s14
10000f5a:	eec6 4a8a 	vdiv.f32	s9, s13, s20
10000f5e:	ee35 ca2a 	vadd.f32	s24, s10, s21
10000f62:	ee21 da27 	vmul.f32	s26, s2, s15
10000f66:	ee68 ba07 	vmul.f32	s23, s16, s14
10000f6a:	ee3d ea87 	vadd.f32	s28, s27, s14
10000f6e:	eeb0 aa69 	vmov.f32	s20, s19
10000f72:	ee65 5a85 	vmul.f32	s11, s11, s10
10000f76:	ee6c 7a27 	vmul.f32	s15, s24, s15
10000f7a:	eead aa6a 	vfms.f32	s20, s26, s21
10000f7e:	eeed 9a2a 	vfma.f32	s19, s26, s21
10000f82:	ee6c caa4 	vmul.f32	s25, s25, s9
10000f86:	eec6 aa8e 	vdiv.f32	s21, s13, s28
10000f8a:	ee2b ba24 	vmul.f32	s22, s22, s9
10000f8e:	ee6b ba85 	vmul.f32	s23, s23, s10
10000f92:	ee66 4a24 	vmul.f32	s9, s12, s9
10000f96:	ee85 6a8c 	vdiv.f32	s12, s11, s24
10000f9a:	ee69 9aaa 	vmul.f32	s19, s19, s21
10000f9e:	eecb 5aa7 	vdiv.f32	s11, s23, s15
10000fa2:	ee76 7a26 	vadd.f32	s15, s12, s13
10000fa6:	edc3 4a31 	vstr	s9, [r3, #196]	; 0xc4
10000faa:	edc3 9a28 	vstr	s19, [r3, #160]	; 0xa0
10000fae:	ee73 4a65 	vsub.f32	s9, s6, s11
10000fb2:	eec6 9aa7 	vdiv.f32	s19, s13, s15
10000fb6:	ee3d 7ac7 	vsub.f32	s14, s27, s14
10000fba:	ee75 5a83 	vadd.f32	s11, s11, s6
10000fbe:	ee36 6ac6 	vsub.f32	s12, s13, s12
10000fc2:	ee27 7a2a 	vmul.f32	s14, s14, s21
10000fc6:	ee26 6a29 	vmul.f32	s12, s12, s19
10000fca:	ee2a aa2a 	vmul.f32	s20, s20, s21
10000fce:	ee64 4aa9 	vmul.f32	s9, s9, s19
10000fd2:	ee65 5aa9 	vmul.f32	s11, s11, s19
10000fd6:	ed83 7a2b 	vstr	s14, [r3, #172]	; 0xac
10000fda:	edc3 ca2f 	vstr	s25, [r3, #188]	; 0xbc
10000fde:	ed83 ba2e 	vstr	s22, [r3, #184]	; 0xb8
10000fe2:	ed83 aa29 	vstr	s20, [r3, #164]	; 0xa4
10000fe6:	edc3 4a35 	vstr	s9, [r3, #212]	; 0xd4
10000fea:	edc3 5a34 	vstr	s11, [r3, #208]	; 0xd0
10000fee:	ed83 6a37 	vstr	s12, [r3, #220]	; 0xdc
10000ff2:	ed90 6a28 	vldr	s12, [r0, #160]	; 0xa0
10000ff6:	edd0 7a30 	vldr	s15, [r0, #192]	; 0xc0
10000ffa:	ed83 7a3d 	vstr	s14, [r3, #244]	; 0xf4
10000ffe:	ee36 7a67 	vsub.f32	s14, s12, s15
10001002:	ee77 7a86 	vadd.f32	s15, s15, s12
10001006:	ee27 7a2a 	vmul.f32	s14, s14, s21
1000100a:	ee67 7aaa 	vmul.f32	s15, s15, s21
1000100e:	f10c 0c01 	add.w	ip, ip, #1
10001012:	f1bc 0f08 	cmp.w	ip, #8
10001016:	f103 0368 	add.w	r3, r3, #104	; 0x68
1000101a:	ed83 7a21 	vstr	s14, [r3, #132]	; 0x84
1000101e:	edc3 7a20 	vstr	s15, [r3, #128]	; 0x80
10001022:	d010      	beq.n	10001046 <_ZN4Vibe8modulateEff+0x18e>
10001024:	ed93 7a3f 	vldr	s14, [r3, #252]	; 0xfc
10001028:	f1bc 0f03 	cmp.w	ip, #3
1000102c:	fe72 7a21 	vselgt.f32	s15, s4, s3
10001030:	ee67 7a87 	vmul.f32	s15, s15, s14
10001034:	eef4 2ae7 	vcmpe.f32	s5, s15
10001038:	eef1 fa10 	vmrs	APSR_nzcv, fpscr
1000103c:	f77f af60 	ble.w	10000f00 <_ZN4Vibe8modulateEff+0x48>
10001040:	eef0 7a62 	vmov.f32	s15, s5
10001044:	e763      	b.n	10000f0e <_ZN4Vibe8modulateEff+0x56>
10001046:	ecbd 8b0e 	vpop	{d8-d14}
1000104a:	4770      	bx	lr
1000104c:	4592e000 	.word	0x4592e000
10001050:	00000000 	.word	0x00000000

10001054 <_ZN4Vibe3outEPfS0_>:
10001054:	ed9f 7adb 	vldr	s14, [pc, #876]	; 100013c4 <_ZN4Vibe3outEPfS0_+0x370>
10001058:	edd0 7a0f 	vldr	s15, [r0, #60]	; 0x3c
1000105c:	eef4 7ac7 	vcmpe.f32	s15, s14
10001060:	eef1 fa10 	vmrs	APSR_nzcv, fpscr
10001064:	b5f8      	push	{r3, r4, r5, r6, r7, lr}
10001066:	4604      	mov	r4, r0
10001068:	ed2d 8b0a 	vpush	{d8-d12}
1000106c:	460d      	mov	r5, r1
1000106e:	4616      	mov	r6, r2
10001070:	d409      	bmi.n	10001086 <_ZN4Vibe3outEPfS0_+0x32>
10001072:	eeb5 7a00 	vmov.f32	s14, #80	; 0x3e800000  0.250
10001076:	eef4 7ac7 	vcmpe.f32	s15, s14
1000107a:	eef1 fa10 	vmrs	APSR_nzcv, fpscr
1000107e:	f340 87a1 	ble.w	10001fc4 <_ZN4Vibe3outEPfS0_+0xf70>
10001082:	48d1      	ldr	r0, [pc, #836]	; (100013c8 <_ZN4Vibe3outEPfS0_+0x374>)
10001084:	e000      	b.n	10001088 <_ZN4Vibe3outEPfS0_+0x34>
10001086:	48d1      	ldr	r0, [pc, #836]	; (100013cc <_ZN4Vibe3outEPfS0_+0x378>)
10001088:	edd4 8a10 	vldr	s17, [r4, #64]	; 0x40
1000108c:	eddf 7acd 	vldr	s15, [pc, #820]	; 100013c4 <_ZN4Vibe3outEPfS0_+0x370>
10001090:	eef4 8ae7 	vcmpe.f32	s17, s15
10001094:	eef1 fa10 	vmrs	APSR_nzcv, fpscr
10001098:	d459      	bmi.n	1000114e <_ZN4Vibe3outEPfS0_+0xfa>
1000109a:	eef6 7a00 	vmov.f32	s15, #96	; 0x3f000000  0.5
1000109e:	eef4 8a67 	vcmp.f32	s17, s15
100010a2:	eef1 fa10 	vmrs	APSR_nzcv, fpscr
100010a6:	fe77 8aa8 	vselgt.f32	s17, s15, s17
100010aa:	f003 fc41 	bl	10004930 <__wrap_expf>
100010ae:	eeb7 8a00 	vmov.f32	s16, #112	; 0x3f800000  1.0
100010b2:	ee07 0a90 	vmov	s15, r0
100010b6:	ed9f 7ac6 	vldr	s14, [pc, #792]	; 100013d0 <_ZN4Vibe3outEPfS0_+0x37c>
100010ba:	ee78 7a67 	vsub.f32	s15, s16, s15
100010be:	ee87 7a28 	vdiv.f32	s14, s14, s17
100010c2:	edc4 7a24 	vstr	s15, [r4, #144]	; 0x90
100010c6:	ee17 0a10 	vmov	r0, s14
100010ca:	f003 fc31 	bl	10004930 <__wrap_expf>
100010ce:	ee07 0a90 	vmov	s15, r0
100010d2:	ee38 8a67 	vsub.f32	s16, s16, s15
100010d6:	4620      	mov	r0, r4
100010d8:	ed84 8a25 	vstr	s16, [r4, #148]	; 0x94
100010dc:	f504 67c3 	add.w	r7, r4, #1560	; 0x618
100010e0:	f7ff f9be 	bl	10000460 <_ZN4Vibe27update_smoothed_user_paramsEv>
100010e4:	edd7 8a07 	vldr	s17, [r7, #28]
100010e8:	eddf 7aba 	vldr	s15, [pc, #744]	; 100013d4 <_ZN4Vibe3outEPfS0_+0x380>
100010ec:	eef4 8ae7 	vcmpe.f32	s17, s15
100010f0:	eef1 fa10 	vmrs	APSR_nzcv, fpscr
100010f4:	f100 8120 	bmi.w	10001338 <_ZN4Vibe3outEPfS0_+0x2e4>
100010f8:	eef2 7a08 	vmov.f32	s15, #40	; 0x41400000  12.0
100010fc:	eef4 8a67 	vcmp.f32	s17, s15
10001100:	eef1 fa10 	vmrs	APSR_nzcv, fpscr
10001104:	fe77 8aa8 	vselgt.f32	s17, s15, s17
10001108:	ed97 8a08 	vldr	s16, [r7, #32]
1000110c:	eeb5 8ac0 	vcmpe.f32	s16, #0.0
10001110:	eef1 fa10 	vmrs	APSR_nzcv, fpscr
10001114:	f100 810d 	bmi.w	10001332 <_ZN4Vibe3outEPfS0_+0x2de>
10001118:	eddf 7aaf 	vldr	s15, [pc, #700]	; 100013d8 <_ZN4Vibe3outEPfS0_+0x384>
1000111c:	eeb4 8a67 	vcmp.f32	s16, s15
10001120:	eef1 fa10 	vmrs	APSR_nzcv, fpscr
10001124:	fe37 8a88 	vselgt.f32	s16, s15, s16
10001128:	edd7 7a09 	vldr	s15, [r7, #36]	; 0x24
1000112c:	ed9f 7aab 	vldr	s14, [pc, #684]	; 100013dc <_ZN4Vibe3outEPfS0_+0x388>
10001130:	eef4 7ac7 	vcmpe.f32	s15, s14
10001134:	eef1 fa10 	vmrs	APSR_nzcv, fpscr
10001138:	d40c      	bmi.n	10001154 <_ZN4Vibe3outEPfS0_+0x100>
1000113a:	eeb6 7a00 	vmov.f32	s14, #96	; 0x3f000000  0.5
1000113e:	eef4 7ac7 	vcmpe.f32	s15, s14
10001142:	eef1 fa10 	vmrs	APSR_nzcv, fpscr
10001146:	f340 8731 	ble.w	10001fac <_ZN4Vibe3outEPfS0_+0xf58>
1000114a:	48a5      	ldr	r0, [pc, #660]	; (100013e0 <_ZN4Vibe3outEPfS0_+0x38c>)
1000114c:	e003      	b.n	10001156 <_ZN4Vibe3outEPfS0_+0x102>
1000114e:	eef0 8a67 	vmov.f32	s17, s15
10001152:	e7aa      	b.n	100010aa <_ZN4Vibe3outEPfS0_+0x56>
10001154:	48a3      	ldr	r0, [pc, #652]	; (100013e4 <_ZN4Vibe3outEPfS0_+0x390>)
10001156:	f003 fbeb 	bl	10004930 <__wrap_expf>
1000115a:	eeb7 5a00 	vmov.f32	s10, #112	; 0x3f800000  1.0
1000115e:	ee07 0a90 	vmov	s15, r0
10001162:	f8d4 2084 	ldr.w	r2, [r4, #132]	; 0x84
10001166:	49a0      	ldr	r1, [pc, #640]	; (100013e8 <_ZN4Vibe3outEPfS0_+0x394>)
10001168:	4ba0      	ldr	r3, [pc, #640]	; (100013ec <_ZN4Vibe3outEPfS0_+0x398>)
1000116a:	ee35 6a67 	vsub.f32	s12, s10, s15
1000116e:	fb01 3302 	mla	r3, r1, r2, r3
10001172:	f8c4 3084 	str.w	r3, [r4, #132]	; 0x84
10001176:	0a1b      	lsrs	r3, r3, #8
10001178:	ee07 3a90 	vmov	s15, r3
1000117c:	eddf 6a9c 	vldr	s13, [pc, #624]	; 100013f0 <_ZN4Vibe3outEPfS0_+0x39c>
10001180:	eeff 5a00 	vmov.f32	s11, #240	; 0xbf800000 -1.0
10001184:	eef8 7ae7 	vcvt.f32.s32	s15, s15
10001188:	eef0 4a00 	vmov.f32	s9, #0	; 0x40000000  2.0
1000118c:	ee67 7aa6 	vmul.f32	s15, s15, s13
10001190:	eef0 6a65 	vmov.f32	s13, s11
10001194:	ed94 7a20 	vldr	s14, [r4, #128]	; 0x80
10001198:	eee7 6aa4 	vfma.f32	s13, s15, s9
1000119c:	eef0 7a47 	vmov.f32	s15, s14
100011a0:	ee76 6ac7 	vsub.f32	s13, s13, s14
100011a4:	eee6 7a26 	vfma.f32	s15, s12, s13
100011a8:	eef4 7ae5 	vcmpe.f32	s15, s11
100011ac:	eef1 fa10 	vmrs	APSR_nzcv, fpscr
100011b0:	f140 86db 	bpl.w	10001f6a <_ZN4Vibe3outEPfS0_+0xf16>
100011b4:	eeb1 8a48 	vneg.f32	s16, s16
100011b8:	eef0 7a65 	vmov.f32	s15, s11
100011bc:	eef7 6a00 	vmov.f32	s13, #112	; 0x3f800000  1.0
100011c0:	edc4 7a20 	vstr	s15, [r4, #128]	; 0x80
100011c4:	ee78 7a26 	vadd.f32	s15, s16, s13
100011c8:	eddf 5a8a 	vldr	s11, [pc, #552]	; 100013f4 <_ZN4Vibe3outEPfS0_+0x3a0>
100011cc:	ee67 7aa8 	vmul.f32	s15, s15, s17
100011d0:	ed94 7a1d 	vldr	s14, [r4, #116]	; 0x74
100011d4:	ee67 7aa5 	vmul.f32	s15, s15, s11
100011d8:	ed9f 6a87 	vldr	s12, [pc, #540]	; 100013f8 <_ZN4Vibe3outEPfS0_+0x3a4>
100011dc:	eea7 7a86 	vfma.f32	s14, s15, s12
100011e0:	eeb4 7ae6 	vcmpe.f32	s14, s13
100011e4:	eef1 fa10 	vmrs	APSR_nzcv, fpscr
100011e8:	eddf 7a84 	vldr	s15, [pc, #528]	; 100013fc <_ZN4Vibe3outEPfS0_+0x3a8>
100011ec:	bfa8      	it	ge
100011ee:	ee37 7a66 	vsubge.f32	s14, s14, s13
100011f2:	eeb4 7ae7 	vcmpe.f32	s14, s15
100011f6:	eef1 fa10 	vmrs	APSR_nzcv, fpscr
100011fa:	ed84 7a1d 	vstr	s14, [r4, #116]	; 0x74
100011fe:	f140 86aa 	bpl.w	10001f56 <_ZN4Vibe3outEPfS0_+0xf02>
10001202:	eef0 5a04 	vmov.f32	s11, #4	; 0x40200000  2.5
10001206:	ee67 5a25 	vmul.f32	s11, s14, s11
1000120a:	edd4 7a1b 	vldr	s15, [r4, #108]	; 0x6c
1000120e:	eef5 7ac0 	vcmpe.f32	s15, #0.0
10001212:	eef1 fa10 	vmrs	APSR_nzcv, fpscr
10001216:	f100 869a 	bmi.w	10001f4e <_ZN4Vibe3outEPfS0_+0xefa>
1000121a:	eef6 6a00 	vmov.f32	s13, #96	; 0x3f000000  0.5
1000121e:	eef4 7a66 	vcmp.f32	s15, s13
10001222:	eef1 fa10 	vmrs	APSR_nzcv, fpscr
10001226:	fe76 7aa7 	vselgt.f32	s15, s13, s15
1000122a:	ee77 7a87 	vadd.f32	s15, s15, s14
1000122e:	eeb7 7a00 	vmov.f32	s14, #112	; 0x3f800000  1.0
10001232:	eef4 7ac7 	vcmpe.f32	s15, s14
10001236:	eef1 fa10 	vmrs	APSR_nzcv, fpscr
1000123a:	bfa8      	it	ge
1000123c:	ee77 7ac7 	vsubge.f32	s15, s15, s14
10001240:	ed9f 7a6e 	vldr	s14, [pc, #440]	; 100013fc <_ZN4Vibe3outEPfS0_+0x3a8>
10001244:	eef4 7ac7 	vcmpe.f32	s15, s14
10001248:	eef1 fa10 	vmrs	APSR_nzcv, fpscr
1000124c:	f140 8675 	bpl.w	10001f3a <_ZN4Vibe3outEPfS0_+0xee6>
10001250:	eeb0 7a04 	vmov.f32	s14, #4	; 0x40200000  2.5
10001254:	ee27 7a87 	vmul.f32	s14, s15, s14
10001258:	ed94 6a1a 	vldr	s12, [r4, #104]	; 0x68
1000125c:	eddf 7a68 	vldr	s15, [pc, #416]	; 10001400 <_ZN4Vibe3outEPfS0_+0x3ac>
10001260:	eeb4 6ae7 	vcmpe.f32	s12, s15
10001264:	eef1 fa10 	vmrs	APSR_nzcv, fpscr
10001268:	f100 8663 	bmi.w	10001f32 <_ZN4Vibe3outEPfS0_+0xede>
1000126c:	eef7 7a00 	vmov.f32	s15, #112	; 0x3f800000  1.0
10001270:	eeb4 6a67 	vcmp.f32	s12, s15
10001274:	eef1 fa10 	vmrs	APSR_nzcv, fpscr
10001278:	fe37 6a86 	vselgt.f32	s12, s15, s12
1000127c:	edd4 7a1e 	vldr	s15, [r4, #120]	; 0x78
10001280:	ee75 5ae7 	vsub.f32	s11, s11, s15
10001284:	edd4 6a1f 	vldr	s13, [r4, #124]	; 0x7c
10001288:	eee5 7a86 	vfma.f32	s15, s11, s12
1000128c:	ee37 7a66 	vsub.f32	s14, s14, s13
10001290:	eef5 7ac0 	vcmpe.f32	s15, #0.0
10001294:	eee6 6a07 	vfma.f32	s13, s12, s14
10001298:	eef1 fa10 	vmrs	APSR_nzcv, fpscr
1000129c:	edc4 7a1e 	vstr	s15, [r4, #120]	; 0x78
100012a0:	edc4 6a1f 	vstr	s13, [r4, #124]	; 0x7c
100012a4:	f100 8641 	bmi.w	10001f2a <_ZN4Vibe3outEPfS0_+0xed6>
100012a8:	eeb7 7a00 	vmov.f32	s14, #112	; 0x3f800000  1.0
100012ac:	eef4 7a47 	vcmp.f32	s15, s14
100012b0:	eef1 fa10 	vmrs	APSR_nzcv, fpscr
100012b4:	fe77 7a27 	vselgt.f32	s15, s14, s15
100012b8:	eef5 6ac0 	vcmpe.f32	s13, #0.0
100012bc:	eef1 fa10 	vmrs	APSR_nzcv, fpscr
100012c0:	d47d      	bmi.n	100013be <_ZN4Vibe3outEPfS0_+0x36a>
100012c2:	eeb7 7a00 	vmov.f32	s14, #112	; 0x3f800000  1.0
100012c6:	eef4 6a47 	vcmp.f32	s13, s14
100012ca:	eef1 fa10 	vmrs	APSR_nzcv, fpscr
100012ce:	fe77 6a26 	vselgt.f32	s13, s14, s13
100012d2:	edd4 8a18 	vldr	s17, [r4, #96]	; 0x60
100012d6:	eeb0 5a00 	vmov.f32	s10, #0	; 0x40000000  2.0
100012da:	eef4 8ac5 	vcmpe.f32	s17, s10
100012de:	eef1 fa10 	vmrs	APSR_nzcv, fpscr
100012e2:	f204 622c 	addw	r2, r4, #1580	; 0x62c
100012e6:	f504 63c6 	add.w	r3, r4, #1584	; 0x630
100012ea:	ed92 7a00 	vldr	s14, [r2]
100012ee:	edd3 5a00 	vldr	s11, [r3]
100012f2:	f204 621c 	addw	r2, r4, #1564	; 0x61c
100012f6:	f504 63c4 	add.w	r3, r4, #1568	; 0x620
100012fa:	edd2 9a00 	vldr	s19, [r2]
100012fe:	ed93 aa00 	vldr	s20, [r3]
10001302:	f204 6224 	addw	r2, r4, #1572	; 0x624
10001306:	f504 63c5 	add.w	r3, r4, #1576	; 0x628
1000130a:	ed97 6a00 	vldr	s12, [r7]
1000130e:	ed92 9a00 	vldr	s18, [r2]
10001312:	edd3 aa00 	vldr	s21, [r3]
10001316:	d412      	bmi.n	1000133e <_ZN4Vibe3outEPfS0_+0x2ea>
10001318:	eeb2 5a08 	vmov.f32	s10, #40	; 0x41400000  12.0
1000131c:	eef4 8ac5 	vcmpe.f32	s17, s10
10001320:	eef1 fa10 	vmrs	APSR_nzcv, fpscr
10001324:	f340 863e 	ble.w	10001fa4 <_ZN4Vibe3outEPfS0_+0xf50>
10001328:	eeba 8a08 	vmov.f32	s16, #168	; 0xc1400000 -12.0
1000132c:	eef0 8a45 	vmov.f32	s17, s10
10001330:	e009      	b.n	10001346 <_ZN4Vibe3outEPfS0_+0x2f2>
10001332:	ed9f 8a34 	vldr	s16, [pc, #208]	; 10001404 <_ZN4Vibe3outEPfS0_+0x3b0>
10001336:	e6f7      	b.n	10001128 <_ZN4Vibe3outEPfS0_+0xd4>
10001338:	eef0 8a67 	vmov.f32	s17, s15
1000133c:	e6e4      	b.n	10001108 <_ZN4Vibe3outEPfS0_+0xb4>
1000133e:	eeb8 8a00 	vmov.f32	s16, #128	; 0xc0000000 -2.0
10001342:	eef0 8a45 	vmov.f32	s17, s10
10001346:	ee66 7a27 	vmul.f32	s15, s12, s15
1000134a:	ee75 5ac7 	vsub.f32	s11, s11, s14
1000134e:	ee26 6a26 	vmul.f32	s12, s12, s13
10001352:	eef0 6a47 	vmov.f32	s13, s14
10001356:	edd4 ba22 	vldr	s23, [r4, #136]	; 0x88
1000135a:	eee7 6aa5 	vfma.f32	s13, s15, s11
1000135e:	eef4 bae6 	vcmpe.f32	s23, s13
10001362:	ed94 ba23 	vldr	s22, [r4, #140]	; 0x8c
10001366:	eef1 fa10 	vmrs	APSR_nzcv, fpscr
1000136a:	eea5 7a86 	vfma.f32	s14, s11, s12
1000136e:	bf4c      	ite	mi
10001370:	edd4 7a24 	vldrmi	s15, [r4, #144]	; 0x90
10001374:	edd4 7a25 	vldrpl	s15, [r4, #148]	; 0x94
10001378:	eeb4 bac7 	vcmpe.f32	s22, s14
1000137c:	ee76 6aeb 	vsub.f32	s13, s13, s23
10001380:	eef1 fa10 	vmrs	APSR_nzcv, fpscr
10001384:	eee7 baa6 	vfma.f32	s23, s15, s13
10001388:	ee37 7a4b 	vsub.f32	s14, s14, s22
1000138c:	bf4c      	ite	mi
1000138e:	edd4 7a24 	vldrmi	s15, [r4, #144]	; 0x90
10001392:	edd4 7a25 	vldrpl	s15, [r4, #148]	; 0x94
10001396:	eef5 bac0 	vcmpe.f32	s23, #0.0
1000139a:	eea7 ba87 	vfma.f32	s22, s15, s14
1000139e:	eef1 fa10 	vmrs	APSR_nzcv, fpscr
100013a2:	ed84 ba23 	vstr	s22, [r4, #140]	; 0x8c
100013a6:	d431      	bmi.n	1000140c <_ZN4Vibe3outEPfS0_+0x3b8>
100013a8:	eef7 7a00 	vmov.f32	s15, #112	; 0x3f800000  1.0
100013ac:	eef4 bae7 	vcmpe.f32	s23, s15
100013b0:	eef1 fa10 	vmrs	APSR_nzcv, fpscr
100013b4:	f340 85ea 	ble.w	10001f8c <_ZN4Vibe3outEPfS0_+0xf38>
100013b8:	eef0 ba67 	vmov.f32	s23, s15
100013bc:	e028      	b.n	10001410 <_ZN4Vibe3outEPfS0_+0x3bc>
100013be:	eddf 6a11 	vldr	s13, [pc, #68]	; 10001404 <_ZN4Vibe3outEPfS0_+0x3b0>
100013c2:	e786      	b.n	100012d2 <_ZN4Vibe3outEPfS0_+0x27e>
100013c4:	3a83126f 	.word	0x3a83126f
100013c8:	bb3e37c6 	.word	0xbb3e37c6
100013cc:	bf39c277 	.word	0xbf39c277
100013d0:	ba3e37c6 	.word	0xba3e37c6
100013d4:	3ca3d70a 	.word	0x3ca3d70a
100013d8:	3d4ccccd 	.word	0x3d4ccccd
100013dc:	3ba3d70a 	.word	0x3ba3d70a
100013e0:	bb156592 	.word	0xbb156592
100013e4:	b7bf3a55 	.word	0xb7bf3a55
100013e8:	0019660d 	.word	0x0019660d
100013ec:	3c6ef35f 	.word	0x3c6ef35f
100013f0:	33800001 	.word	0x33800001
100013f4:	37be37c6 	.word	0x37be37c6
100013f8:	42000000 	.word	0x42000000
100013fc:	3ecccccd 	.word	0x3ecccccd
10001400:	3c23d70a 	.word	0x3c23d70a
10001404:	00000000 	.word	0x00000000
10001408:	219392ef 	.word	0x219392ef
1000140c:	ed5f ba03 	vldr	s23, [pc, #-12]	; 10001404 <_ZN4Vibe3outEPfS0_+0x3b0>
10001410:	ed5f 7a04 	vldr	s15, [pc, #-16]	; 10001404 <_ZN4Vibe3outEPfS0_+0x3b0>
10001414:	eeb4 bae7 	vcmpe.f32	s22, s15
10001418:	eef1 fa10 	vmrs	APSR_nzcv, fpscr
1000141c:	edc4 ba22 	vstr	s23, [r4, #136]	; 0x88
10001420:	f100 85ae 	bmi.w	10001f80 <_ZN4Vibe3outEPfS0_+0xf2c>
10001424:	eef7 7a00 	vmov.f32	s15, #112	; 0x3f800000  1.0
10001428:	eeb4 ba67 	vcmp.f32	s22, s15
1000142c:	eef1 fa10 	vmrs	APSR_nzcv, fpscr
10001430:	fe37 ba8b 	vselgt.f32	s22, s15, s22
10001434:	eef5 ba40 	vcmp.f32	s23, #0.0
10001438:	eef1 fa10 	vmrs	APSR_nzcv, fpscr
1000143c:	ed84 ba23 	vstr	s22, [r4, #140]	; 0x8c
10001440:	f100 85c8 	bmi.w	10001fd4 <_ZN4Vibe3outEPfS0_+0xf80>
10001444:	eef1 7aeb 	vsqrt.f32	s15, s23
10001448:	eeb5 ba40 	vcmp.f32	s22, #0.0
1000144c:	eef1 fa10 	vmrs	APSR_nzcv, fpscr
10001450:	ee6b baa7 	vmul.f32	s23, s23, s15
10001454:	f100 85c8 	bmi.w	10001fe8 <_ZN4Vibe3outEPfS0_+0xf94>
10001458:	eef1 cacb 	vsqrt.f32	s25, s22
1000145c:	edd4 7a12 	vldr	s15, [r4, #72]	; 0x48
10001460:	ee67 7aeb 	vnmul.f32	s15, s15, s23
10001464:	ee17 0a90 	vmov	r0, s15
10001468:	ed94 ca11 	vldr	s24, [r4, #68]	; 0x44
1000146c:	f003 fa60 	bl	10004930 <__wrap_expf>
10001470:	ed94 7a12 	vldr	s14, [r4, #72]	; 0x48
10001474:	ee6c 7a8b 	vmul.f32	s15, s25, s22
10001478:	ee67 7a67 	vnmul.f32	s15, s14, s15
1000147c:	ee06 0a90 	vmov	s13, r0
10001480:	ee17 0a90 	vmov	r0, s15
10001484:	edd4 ca11 	vldr	s25, [r4, #68]	; 0x44
10001488:	ee2c ca26 	vmul.f32	s24, s24, s13
1000148c:	f003 fa50 	bl	10004930 <__wrap_expf>
10001490:	edd4 ba13 	vldr	s23, [r4, #76]	; 0x4c
10001494:	eef4 bacc 	vcmpe.f32	s23, s24
10001498:	ee07 0a90 	vmov	s15, r0
1000149c:	eef1 fa10 	vmrs	APSR_nzcv, fpscr
100014a0:	ed94 7a14 	vldr	s14, [r4, #80]	; 0x50
100014a4:	ee6c 7aa7 	vmul.f32	s15, s25, s15
100014a8:	f300 853b 	bgt.w	10001f22 <_ZN4Vibe3outEPfS0_+0xece>
100014ac:	eeb4 7a4c 	vcmp.f32	s14, s24
100014b0:	eef1 fa10 	vmrs	APSR_nzcv, fpscr
100014b4:	bf48      	it	mi
100014b6:	eeb0 ca47 	vmovmi.f32	s24, s14
100014ba:	eef4 bae7 	vcmpe.f32	s23, s15
100014be:	eef1 fa10 	vmrs	APSR_nzcv, fpscr
100014c2:	dc08      	bgt.n	100014d6 <_ZN4Vibe3outEPfS0_+0x482>
100014c4:	eeb4 7ae7 	vcmpe.f32	s14, s15
100014c8:	eef1 fa10 	vmrs	APSR_nzcv, fpscr
100014cc:	bf54      	ite	pl
100014ce:	eef0 ba67 	vmovpl.f32	s23, s15
100014d2:	eef0 ba47 	vmovmi.f32	s23, s14
100014d6:	ee1b 2a90 	vmov	r2, s23
100014da:	ee1c 1a10 	vmov	r1, s24
100014de:	4620      	mov	r0, r4
100014e0:	f7ff fcea 	bl	10000eb8 <_ZN4Vibe8modulateEff>
100014e4:	edd4 6a15 	vldr	s13, [r4, #84]	; 0x54
100014e8:	ed94 5a16 	vldr	s10, [r4, #88]	; 0x58
100014ec:	eec6 5a8c 	vdiv.f32	s11, s13, s24
100014f0:	eef4 5ac5 	vcmpe.f32	s11, s10
100014f4:	eef1 fa10 	vmrs	APSR_nzcv, fpscr
100014f8:	ed94 7a17 	vldr	s14, [r4, #92]	; 0x5c
100014fc:	f100 850d 	bmi.w	10001f1a <_ZN4Vibe3outEPfS0_+0xec6>
10001500:	eef4 5a47 	vcmp.f32	s11, s14
10001504:	eef1 fa10 	vmrs	APSR_nzcv, fpscr
10001508:	fe77 5a25 	vselgt.f32	s11, s14, s11
1000150c:	eec6 7aab 	vdiv.f32	s15, s13, s23
10001510:	eeb4 5ae7 	vcmpe.f32	s10, s15
10001514:	eef1 fa10 	vmrs	APSR_nzcv, fpscr
10001518:	dc08      	bgt.n	1000152c <_ZN4Vibe3outEPfS0_+0x4d8>
1000151a:	eeb4 7ae7 	vcmpe.f32	s14, s15
1000151e:	eef1 fa10 	vmrs	APSR_nzcv, fpscr
10001522:	bf54      	ite	pl
10001524:	eeb0 5a67 	vmovpl.f32	s10, s15
10001528:	eeb0 5a47 	vmovmi.f32	s10, s14
1000152c:	e9d4 2101 	ldrd	r2, r1, [r4, #4]
10001530:	462b      	mov	r3, r5
10001532:	eeb7 6a00 	vmov.f32	s12, #112	; 0x3f800000  1.0
10001536:	ed5f 7a4c 	vldr	s15, [pc, #-304]	; 10001408 <_ZN4Vibe3outEPfS0_+0x3b4>
1000153a:	7820      	ldrb	r0, [r4, #0]
1000153c:	4635      	mov	r5, r6
1000153e:	f103 0680 	add.w	r6, r3, #128	; 0x80
10001542:	ecb3 4a01 	vldmia	r3!, {s8}
10001546:	edd4 3af7 	vldr	s7, [r4, #988]	; 0x3dc
1000154a:	ee74 3a23 	vadd.f32	s7, s8, s7
1000154e:	edd4 6a26 	vldr	s13, [r4, #152]	; 0x98
10001552:	ee63 3a89 	vmul.f32	s7, s7, s18
10001556:	ed94 3a29 	vldr	s6, [r4, #164]	; 0xa4
1000155a:	ee66 6a83 	vmul.f32	s13, s13, s6
1000155e:	eeb0 3ae3 	vabs.f32	s6, s7
10001562:	ed94 7a32 	vldr	s14, [r4, #200]	; 0xc8
10001566:	edd4 ba35 	vldr	s23, [r4, #212]	; 0xd4
1000156a:	ee33 3a06 	vadd.f32	s6, s6, s12
1000156e:	ee27 7a2b 	vmul.f32	s14, s14, s23
10001572:	edd4 4a19 	vldr	s9, [r4, #100]	; 0x64
10001576:	eec3 ba83 	vdiv.f32	s23, s7, s6
1000157a:	ee6b 3aa4 	vmul.f32	s7, s23, s9
1000157e:	ed94 ba3e 	vldr	s22, [r4, #248]	; 0xf8
10001582:	eeb0 3a63 	vmov.f32	s6, s7
10001586:	ed94 0a34 	vldr	s0, [r4, #208]	; 0xd0
1000158a:	eea5 3a8b 	vfma.f32	s6, s11, s22
1000158e:	edd4 0a28 	vldr	s1, [r4, #160]	; 0xa0
10001592:	ed94 1a33 	vldr	s2, [r4, #204]	; 0xcc
10001596:	ed94 2a27 	vldr	s4, [r4, #156]	; 0x9c
1000159a:	edd4 2a2b 	vldr	s5, [r4, #172]	; 0xac
1000159e:	eee3 6a20 	vfma.f32	s13, s6, s1
100015a2:	edd4 1a37 	vldr	s3, [r4, #220]	; 0xdc
100015a6:	eea3 7a80 	vfma.f32	s14, s7, s0
100015aa:	eee2 6a62 	vfms.f32	s13, s4, s5
100015ae:	eea1 7a61 	vfms.f32	s14, s2, s3
100015b2:	ed84 3a26 	vstr	s6, [r4, #152]	; 0x98
100015b6:	ee36 3aa7 	vadd.f32	s6, s13, s15
100015ba:	ee77 6a26 	vadd.f32	s13, s14, s13
100015be:	eef4 6ac8 	vcmpe.f32	s13, s16
100015c2:	ee77 2a27 	vadd.f32	s5, s14, s15
100015c6:	eef1 fa10 	vmrs	APSR_nzcv, fpscr
100015ca:	edc4 3a32 	vstr	s7, [r4, #200]	; 0xc8
100015ce:	edc4 2a33 	vstr	s5, [r4, #204]	; 0xcc
100015d2:	ed84 3a27 	vstr	s6, [r4, #156]	; 0x9c
100015d6:	f100 849c 	bmi.w	10001f12 <_ZN4Vibe3outEPfS0_+0xebe>
100015da:	eef4 8a66 	vcmp.f32	s17, s13
100015de:	eef1 fa10 	vmrs	APSR_nzcv, fpscr
100015e2:	bf48      	it	mi
100015e4:	eef0 6a68 	vmovmi.f32	s13, s17
100015e8:	ed94 7a2c 	vldr	s14, [r4, #176]	; 0xb0
100015ec:	edd4 1a2f 	vldr	s3, [r4, #188]	; 0xbc
100015f0:	ed94 2a2e 	vldr	s4, [r4, #184]	; 0xb8
100015f4:	ee27 7a21 	vmul.f32	s14, s14, s3
100015f8:	edd4 2a2d 	vldr	s5, [r4, #180]	; 0xb4
100015fc:	eea6 7a82 	vfma.f32	s14, s13, s4
10001600:	ed94 3a31 	vldr	s6, [r4, #196]	; 0xc4
10001604:	eea2 7ac3 	vfms.f32	s14, s5, s6
10001608:	eeb4 7ac8 	vcmpe.f32	s14, s16
1000160c:	edc4 6a2c 	vstr	s13, [r4, #176]	; 0xb0
10001610:	eef1 fa10 	vmrs	APSR_nzcv, fpscr
10001614:	ee77 6a27 	vadd.f32	s13, s14, s15
10001618:	edc4 6a2d 	vstr	s13, [r4, #180]	; 0xb4
1000161c:	f100 8475 	bmi.w	10001f0a <_ZN4Vibe3outEPfS0_+0xeb6>
10001620:	eef4 8a47 	vcmp.f32	s17, s14
10001624:	eef1 fa10 	vmrs	APSR_nzcv, fpscr
10001628:	bf48      	it	mi
1000162a:	eeb0 7a68 	vmovmi.f32	s14, s17
1000162e:	ed94 3a38 	vldr	s6, [r4, #224]	; 0xe0
10001632:	edd4 ba3b 	vldr	s23, [r4, #236]	; 0xec
10001636:	edd4 2a4f 	vldr	s5, [r4, #316]	; 0x13c
1000163a:	ee23 3a2b 	vmul.f32	s6, s6, s23
1000163e:	edd4 ba4c 	vldr	s23, [r4, #304]	; 0x130
10001642:	edd4 6a40 	vldr	s13, [r4, #256]	; 0x100
10001646:	ee6b 2aa2 	vmul.f32	s5, s23, s5
1000164a:	edd4 ba43 	vldr	s23, [r4, #268]	; 0x10c
1000164e:	ee66 6aab 	vmul.f32	s13, s13, s23
10001652:	edd4 ba3a 	vldr	s23, [r4, #232]	; 0xe8
10001656:	ed94 ba3d 	vldr	s22, [r4, #244]	; 0xf4
1000165a:	eea3 3aab 	vfma.f32	s6, s7, s23
1000165e:	edc4 3a38 	vstr	s7, [r4, #224]	; 0xe0
10001662:	edd4 3a39 	vldr	s7, [r4, #228]	; 0xe4
10001666:	eea3 3acb 	vfms.f32	s6, s7, s22
1000166a:	ee77 3a03 	vadd.f32	s7, s14, s6
1000166e:	ee63 3a89 	vmul.f32	s7, s7, s18
10001672:	ed84 7a3e 	vstr	s14, [r4, #248]	; 0xf8
10001676:	eeb0 7ae3 	vabs.f32	s14, s7
1000167a:	ee33 3a27 	vadd.f32	s6, s6, s15
1000167e:	ee37 7a06 	vadd.f32	s14, s14, s12
10001682:	ed84 3a39 	vstr	s6, [r4, #228]	; 0xe4
10001686:	ee83 3a87 	vdiv.f32	s6, s7, s14
1000168a:	ee63 3a24 	vmul.f32	s7, s6, s9
1000168e:	ed94 7a58 	vldr	s14, [r4, #352]	; 0x160
10001692:	eeb0 3a63 	vmov.f32	s6, s7
10001696:	ed94 0a42 	vldr	s0, [r4, #264]	; 0x108
1000169a:	eea5 3a87 	vfma.f32	s6, s11, s14
1000169e:	eeb0 7a62 	vmov.f32	s14, s5
100016a2:	edd4 2a4e 	vldr	s5, [r4, #312]	; 0x138
100016a6:	edd4 0a4d 	vldr	s1, [r4, #308]	; 0x134
100016aa:	edd4 1a41 	vldr	s3, [r4, #260]	; 0x104
100016ae:	eea3 7aa2 	vfma.f32	s14, s7, s5
100016b2:	eee3 6a00 	vfma.f32	s13, s6, s0
100016b6:	ed94 1a51 	vldr	s2, [r4, #324]	; 0x144
100016ba:	ed94 2a45 	vldr	s4, [r4, #276]	; 0x114
100016be:	eea0 7ac1 	vfms.f32	s14, s1, s2
100016c2:	eee1 6ac2 	vfms.f32	s13, s3, s4
100016c6:	ed84 3a40 	vstr	s6, [r4, #256]	; 0x100
100016ca:	ee36 3aa7 	vadd.f32	s6, s13, s15
100016ce:	ee77 6a26 	vadd.f32	s13, s14, s13
100016d2:	eef4 6ac8 	vcmpe.f32	s13, s16
100016d6:	ee77 2a27 	vadd.f32	s5, s14, s15
100016da:	eef1 fa10 	vmrs	APSR_nzcv, fpscr
100016de:	edc4 3a4c 	vstr	s7, [r4, #304]	; 0x130
100016e2:	edc4 2a4d 	vstr	s5, [r4, #308]	; 0x134
100016e6:	ed84 3a41 	vstr	s6, [r4, #260]	; 0x104
100016ea:	f100 840a 	bmi.w	10001f02 <_ZN4Vibe3outEPfS0_+0xeae>
100016ee:	eef4 8a66 	vcmp.f32	s17, s13
100016f2:	eef1 fa10 	vmrs	APSR_nzcv, fpscr
100016f6:	bf48      	it	mi
100016f8:	eef0 6a68 	vmovmi.f32	s13, s17
100016fc:	ed94 7a46 	vldr	s14, [r4, #280]	; 0x118
10001700:	edd4 1a49 	vldr	s3, [r4, #292]	; 0x124
10001704:	ed94 2a48 	vldr	s4, [r4, #288]	; 0x120
10001708:	ee27 7a21 	vmul.f32	s14, s14, s3
1000170c:	edd4 2a47 	vldr	s5, [r4, #284]	; 0x11c
10001710:	eea6 7a82 	vfma.f32	s14, s13, s4
10001714:	ed94 3a4b 	vldr	s6, [r4, #300]	; 0x12c
10001718:	eea2 7ac3 	vfms.f32	s14, s5, s6
1000171c:	eeb4 7ac8 	vcmpe.f32	s14, s16
10001720:	edc4 6a46 	vstr	s13, [r4, #280]	; 0x118
10001724:	eef1 fa10 	vmrs	APSR_nzcv, fpscr
10001728:	ee77 6a27 	vadd.f32	s13, s14, s15
1000172c:	edc4 6a47 	vstr	s13, [r4, #284]	; 0x11c
10001730:	f100 83e4 	bmi.w	10001efc <_ZN4Vibe3outEPfS0_+0xea8>
10001734:	eef4 8a47 	vcmp.f32	s17, s14
10001738:	eef1 fa10 	vmrs	APSR_nzcv, fpscr
1000173c:	bf48      	it	mi
1000173e:	eeb0 7a68 	vmovmi.f32	s14, s17
10001742:	ed94 3a52 	vldr	s6, [r4, #328]	; 0x148
10001746:	edd4 ba55 	vldr	s23, [r4, #340]	; 0x154
1000174a:	edd4 2a69 	vldr	s5, [r4, #420]	; 0x1a4
1000174e:	ee23 3a2b 	vmul.f32	s6, s6, s23
10001752:	edd4 ba66 	vldr	s23, [r4, #408]	; 0x198
10001756:	edd4 6a5a 	vldr	s13, [r4, #360]	; 0x168
1000175a:	ee6b 2aa2 	vmul.f32	s5, s23, s5
1000175e:	edd4 ba5d 	vldr	s23, [r4, #372]	; 0x174
10001762:	ee66 6aab 	vmul.f32	s13, s13, s23
10001766:	edd4 ba54 	vldr	s23, [r4, #336]	; 0x150
1000176a:	ed94 ba57 	vldr	s22, [r4, #348]	; 0x15c
1000176e:	eea3 3aab 	vfma.f32	s6, s7, s23
10001772:	edc4 3a52 	vstr	s7, [r4, #328]	; 0x148
10001776:	edd4 3a53 	vldr	s7, [r4, #332]	; 0x14c
1000177a:	eea3 3acb 	vfms.f32	s6, s7, s22
1000177e:	ee77 3a03 	vadd.f32	s7, s14, s6
10001782:	ee63 3a89 	vmul.f32	s7, s7, s18
10001786:	ed84 7a58 	vstr	s14, [r4, #352]	; 0x160
1000178a:	eeb0 7ae3 	vabs.f32	s14, s7
1000178e:	ee33 3a27 	vadd.f32	s6, s6, s15
10001792:	ee37 7a06 	vadd.f32	s14, s14, s12
10001796:	ed84 3a53 	vstr	s6, [r4, #332]	; 0x14c
1000179a:	ee83 3a87 	vdiv.f32	s6, s7, s14
1000179e:	ee63 3a24 	vmul.f32	s7, s6, s9
100017a2:	ed94 7a72 	vldr	s14, [r4, #456]	; 0x1c8
100017a6:	eeb0 3a63 	vmov.f32	s6, s7
100017aa:	ed94 0a5c 	vldr	s0, [r4, #368]	; 0x170
100017ae:	eea5 3a87 	vfma.f32	s6, s11, s14
100017b2:	eeb0 7a62 	vmov.f32	s14, s5
100017b6:	edd4 2a68 	vldr	s5, [r4, #416]	; 0x1a0
100017ba:	edd4 0a67 	vldr	s1, [r4, #412]	; 0x19c
100017be:	edd4 1a5b 	vldr	s3, [r4, #364]	; 0x16c
100017c2:	eea3 7aa2 	vfma.f32	s14, s7, s5
100017c6:	eee3 6a00 	vfma.f32	s13, s6, s0
100017ca:	ed94 1a6b 	vldr	s2, [r4, #428]	; 0x1ac
100017ce:	ed94 2a5f 	vldr	s4, [r4, #380]	; 0x17c
100017d2:	eea0 7ac1 	vfms.f32	s14, s1, s2
100017d6:	eee1 6ac2 	vfms.f32	s13, s3, s4
100017da:	ed84 3a5a 	vstr	s6, [r4, #360]	; 0x168
100017de:	ee36 3aa7 	vadd.f32	s6, s13, s15
100017e2:	ee77 6a26 	vadd.f32	s13, s14, s13
100017e6:	eef4 6ac8 	vcmpe.f32	s13, s16
100017ea:	ee77 2a27 	vadd.f32	s5, s14, s15
100017ee:	eef1 fa10 	vmrs	APSR_nzcv, fpscr
100017f2:	edc4 3a66 	vstr	s7, [r4, #408]	; 0x198
100017f6:	edc4 2a67 	vstr	s5, [r4, #412]	; 0x19c
100017fa:	ed84 3a5b 	vstr	s6, [r4, #364]	; 0x16c
100017fe:	f100 837a 	bmi.w	10001ef6 <_ZN4Vibe3outEPfS0_+0xea2>
10001802:	eef4 8a66 	vcmp.f32	s17, s13
10001806:	eef1 fa10 	vmrs	APSR_nzcv, fpscr
1000180a:	bf48      	it	mi
1000180c:	eef0 6a68 	vmovmi.f32	s13, s17
10001810:	ed94 7a60 	vldr	s14, [r4, #384]	; 0x180
10001814:	edd4 1a63 	vldr	s3, [r4, #396]	; 0x18c
10001818:	ed94 2a62 	vldr	s4, [r4, #392]	; 0x188
1000181c:	ee27 7a21 	vmul.f32	s14, s14, s3
10001820:	edd4 2a61 	vldr	s5, [r4, #388]	; 0x184
10001824:	eea6 7a82 	vfma.f32	s14, s13, s4
10001828:	ed94 3a65 	vldr	s6, [r4, #404]	; 0x194
1000182c:	eea2 7ac3 	vfms.f32	s14, s5, s6
10001830:	eeb4 7ac8 	vcmpe.f32	s14, s16
10001834:	edc4 6a60 	vstr	s13, [r4, #384]	; 0x180
10001838:	eef1 fa10 	vmrs	APSR_nzcv, fpscr
1000183c:	ee77 6a27 	vadd.f32	s13, s14, s15
10001840:	edc4 6a61 	vstr	s13, [r4, #388]	; 0x184
10001844:	f100 8354 	bmi.w	10001ef0 <_ZN4Vibe3outEPfS0_+0xe9c>
10001848:	eef4 8a47 	vcmp.f32	s17, s14
1000184c:	eef1 fa10 	vmrs	APSR_nzcv, fpscr
10001850:	bf48      	it	mi
10001852:	eeb0 7a68 	vmovmi.f32	s14, s17
10001856:	ed94 3a6c 	vldr	s6, [r4, #432]	; 0x1b0
1000185a:	edd4 ba6f 	vldr	s23, [r4, #444]	; 0x1bc
1000185e:	edd4 2a83 	vldr	s5, [r4, #524]	; 0x20c
10001862:	ee23 3a2b 	vmul.f32	s6, s6, s23
10001866:	edd4 ba80 	vldr	s23, [r4, #512]	; 0x200
1000186a:	edd4 6a74 	vldr	s13, [r4, #464]	; 0x1d0
1000186e:	ee6b 2aa2 	vmul.f32	s5, s23, s5
10001872:	edd4 ba77 	vldr	s23, [r4, #476]	; 0x1dc
10001876:	ee66 6aab 	vmul.f32	s13, s13, s23
1000187a:	edd4 ba6e 	vldr	s23, [r4, #440]	; 0x1b8
1000187e:	ed94 ba71 	vldr	s22, [r4, #452]	; 0x1c4
10001882:	eea3 3aab 	vfma.f32	s6, s7, s23
10001886:	edc4 3a6c 	vstr	s7, [r4, #432]	; 0x1b0
1000188a:	edd4 3a6d 	vldr	s7, [r4, #436]	; 0x1b4
1000188e:	eea3 3acb 	vfms.f32	s6, s7, s22
10001892:	ee77 3a03 	vadd.f32	s7, s14, s6
10001896:	ee63 3a89 	vmul.f32	s7, s7, s18
1000189a:	ed84 7a72 	vstr	s14, [r4, #456]	; 0x1c8
1000189e:	eeb0 7ae3 	vabs.f32	s14, s7
100018a2:	ee33 3a27 	vadd.f32	s6, s6, s15
100018a6:	ee37 7a06 	vadd.f32	s14, s14, s12
100018aa:	ed84 3a6d 	vstr	s6, [r4, #436]	; 0x1b4
100018ae:	ee83 3a87 	vdiv.f32	s6, s7, s14
100018b2:	ee63 3a24 	vmul.f32	s7, s6, s9
100018b6:	ed94 7a8c 	vldr	s14, [r4, #560]	; 0x230
100018ba:	eeb0 3a63 	vmov.f32	s6, s7
100018be:	ed94 0a76 	vldr	s0, [r4, #472]	; 0x1d8
100018c2:	eea5 3a87 	vfma.f32	s6, s11, s14
100018c6:	eeb0 7a62 	vmov.f32	s14, s5
100018ca:	edd4 2a82 	vldr	s5, [r4, #520]	; 0x208
100018ce:	edd4 0a81 	vldr	s1, [r4, #516]	; 0x204
100018d2:	edd4 1a75 	vldr	s3, [r4, #468]	; 0x1d4
100018d6:	eea3 7aa2 	vfma.f32	s14, s7, s5
100018da:	eee3 6a00 	vfma.f32	s13, s6, s0
100018de:	ed94 1a85 	vldr	s2, [r4, #532]	; 0x214
100018e2:	ed94 2a79 	vldr	s4, [r4, #484]	; 0x1e4
100018e6:	eea0 7ac1 	vfms.f32	s14, s1, s2
100018ea:	eee1 6ac2 	vfms.f32	s13, s3, s4
100018ee:	ed84 3a74 	vstr	s6, [r4, #464]	; 0x1d0
100018f2:	ee36 3aa7 	vadd.f32	s6, s13, s15
100018f6:	ee77 6a26 	vadd.f32	s13, s14, s13
100018fa:	eef4 6ac8 	vcmpe.f32	s13, s16
100018fe:	ee77 2a27 	vadd.f32	s5, s14, s15
10001902:	eef1 fa10 	vmrs	APSR_nzcv, fpscr
10001906:	edc4 3a80 	vstr	s7, [r4, #512]	; 0x200
1000190a:	edc4 2a81 	vstr	s5, [r4, #516]	; 0x204
1000190e:	ed84 3a75 	vstr	s6, [r4, #468]	; 0x1d4
10001912:	f100 82ea 	bmi.w	10001eea <_ZN4Vibe3outEPfS0_+0xe96>
10001916:	eef4 8a66 	vcmp.f32	s17, s13
1000191a:	eef1 fa10 	vmrs	APSR_nzcv, fpscr
1000191e:	bf48      	it	mi
10001920:	eef0 6a68 	vmovmi.f32	s13, s17
10001924:	ed94 7a7a 	vldr	s14, [r4, #488]	; 0x1e8
10001928:	edd4 1a7d 	vldr	s3, [r4, #500]	; 0x1f4
1000192c:	ed94 2a7c 	vldr	s4, [r4, #496]	; 0x1f0
10001930:	ee27 7a21 	vmul.f32	s14, s14, s3
10001934:	edd4 2a7b 	vldr	s5, [r4, #492]	; 0x1ec
10001938:	eea6 7a82 	vfma.f32	s14, s13, s4
1000193c:	ed94 3a7f 	vldr	s6, [r4, #508]	; 0x1fc
10001940:	eea2 7ac3 	vfms.f32	s14, s5, s6
10001944:	eeb4 7ac8 	vcmpe.f32	s14, s16
10001948:	edc4 6a7a 	vstr	s13, [r4, #488]	; 0x1e8
1000194c:	eef1 fa10 	vmrs	APSR_nzcv, fpscr
10001950:	ee77 6a27 	vadd.f32	s13, s14, s15
10001954:	edc4 6a7b 	vstr	s13, [r4, #492]	; 0x1ec
10001958:	f100 82c4 	bmi.w	10001ee4 <_ZN4Vibe3outEPfS0_+0xe90>
1000195c:	eef4 8a47 	vcmp.f32	s17, s14
10001960:	eef1 fa10 	vmrs	APSR_nzcv, fpscr
10001964:	bf48      	it	mi
10001966:	eeb0 7a68 	vmovmi.f32	s14, s17
1000196a:	edd4 6a86 	vldr	s13, [r4, #536]	; 0x218
1000196e:	ed94 3a89 	vldr	s6, [r4, #548]	; 0x224
10001972:	ed94 1a88 	vldr	s2, [r4, #544]	; 0x220
10001976:	ee66 6a83 	vmul.f32	s13, s13, s6
1000197a:	edd4 1a87 	vldr	s3, [r4, #540]	; 0x21c
1000197e:	eee3 6a81 	vfma.f32	s13, s7, s2
10001982:	ed94 2a8b 	vldr	s4, [r4, #556]	; 0x22c
10001986:	ee69 2a87 	vmul.f32	s5, s19, s14
1000198a:	eee1 6ac2 	vfms.f32	s13, s3, s4
1000198e:	eeb0 3ae2 	vabs.f32	s6, s5
10001992:	ed84 7a8c 	vstr	s14, [r4, #560]	; 0x230
10001996:	ee37 7a26 	vadd.f32	s14, s14, s13
1000199a:	edc4 3a86 	vstr	s7, [r4, #536]	; 0x218
1000199e:	ee27 7a09 	vmul.f32	s14, s14, s18
100019a2:	ee73 3a06 	vadd.f32	s7, s6, s12
100019a6:	ee82 3aa3 	vdiv.f32	s6, s5, s7
100019aa:	eef0 3ac7 	vabs.f32	s7, s14
100019ae:	ee76 6aa7 	vadd.f32	s13, s13, s15
100019b2:	ee73 3a86 	vadd.f32	s7, s7, s12
100019b6:	edc4 6a87 	vstr	s13, [r4, #540]	; 0x21c
100019ba:	eec7 6a23 	vdiv.f32	s13, s14, s7
100019be:	ed84 3af7 	vstr	s6, [r4, #988]	; 0x3dc
100019c2:	ee66 4aa4 	vmul.f32	s9, s13, s9
100019c6:	2800      	cmp	r0, #0
100019c8:	f000 8287 	beq.w	10001eda <_ZN4Vibe3outEPfS0_+0xe86>
100019cc:	ee36 7a4a 	vsub.f32	s14, s12, s20
100019d0:	ee6a 4a24 	vmul.f32	s9, s20, s9
100019d4:	edd4 6a03 	vldr	s13, [r4, #12]
100019d8:	eee7 4a04 	vfma.f32	s9, s14, s8
100019dc:	ee64 4aa6 	vmul.f32	s9, s9, s13
100019e0:	ee64 4aaa 	vmul.f32	s9, s9, s21
100019e4:	ece2 4a01 	vstmia	r2!, {s9}
100019e8:	ecb5 4a01 	vldmia	r5!, {s8}
100019ec:	edd4 3af6 	vldr	s7, [r4, #984]	; 0x3d8
100019f0:	ee74 3a23 	vadd.f32	s7, s8, s7
100019f4:	edd4 6a8e 	vldr	s13, [r4, #568]	; 0x238
100019f8:	ee63 3a89 	vmul.f32	s7, s7, s18
100019fc:	ed94 3a91 	vldr	s6, [r4, #580]	; 0x244
10001a00:	ee66 6a83 	vmul.f32	s13, s13, s6
10001a04:	eeb0 3ae3 	vabs.f32	s6, s7
10001a08:	ed94 7a9a 	vldr	s14, [r4, #616]	; 0x268
10001a0c:	ed94 ba9d 	vldr	s22, [r4, #628]	; 0x274
10001a10:	ee33 3a06 	vadd.f32	s6, s6, s12
10001a14:	ee27 7a0b 	vmul.f32	s14, s14, s22
10001a18:	edd4 4a19 	vldr	s9, [r4, #100]	; 0x64
10001a1c:	ee83 ba83 	vdiv.f32	s22, s7, s6
10001a20:	ee6b 3a24 	vmul.f32	s7, s22, s9
10001a24:	ed94 baa6 	vldr	s22, [r4, #664]	; 0x298
10001a28:	eeb0 3a63 	vmov.f32	s6, s7
10001a2c:	ed94 0a9c 	vldr	s0, [r4, #624]	; 0x270
10001a30:	eea5 3a0b 	vfma.f32	s6, s10, s22
10001a34:	edd4 0a90 	vldr	s1, [r4, #576]	; 0x240
10001a38:	edd4 1a9b 	vldr	s3, [r4, #620]	; 0x26c
10001a3c:	ed94 2a8f 	vldr	s4, [r4, #572]	; 0x23c
10001a40:	edd4 2a93 	vldr	s5, [r4, #588]	; 0x24c
10001a44:	eee3 6a20 	vfma.f32	s13, s6, s1
10001a48:	ed94 1a9f 	vldr	s2, [r4, #636]	; 0x27c
10001a4c:	eea0 7a23 	vfma.f32	s14, s0, s7
10001a50:	eee2 6a62 	vfms.f32	s13, s4, s5
10001a54:	eea1 7a61 	vfms.f32	s14, s2, s3
10001a58:	ed84 3a8e 	vstr	s6, [r4, #568]	; 0x238
10001a5c:	ee36 3aa7 	vadd.f32	s6, s13, s15
10001a60:	ee77 6a26 	vadd.f32	s13, s14, s13
10001a64:	eef4 6ac8 	vcmpe.f32	s13, s16
10001a68:	ee77 2a27 	vadd.f32	s5, s14, s15
10001a6c:	eef1 fa10 	vmrs	APSR_nzcv, fpscr
10001a70:	edc4 3a9a 	vstr	s7, [r4, #616]	; 0x268
10001a74:	edc4 2a9b 	vstr	s5, [r4, #620]	; 0x26c
10001a78:	ed84 3a8f 	vstr	s6, [r4, #572]	; 0x23c
10001a7c:	f100 822a 	bmi.w	10001ed4 <_ZN4Vibe3outEPfS0_+0xe80>
10001a80:	eef4 8a66 	vcmp.f32	s17, s13
10001a84:	eef1 fa10 	vmrs	APSR_nzcv, fpscr
10001a88:	bf48      	it	mi
10001a8a:	eef0 6a68 	vmovmi.f32	s13, s17
10001a8e:	ed94 7a94 	vldr	s14, [r4, #592]	; 0x250
10001a92:	edd4 1a97 	vldr	s3, [r4, #604]	; 0x25c
10001a96:	ed94 2a96 	vldr	s4, [r4, #600]	; 0x258
10001a9a:	ee27 7a21 	vmul.f32	s14, s14, s3
10001a9e:	edd4 2a95 	vldr	s5, [r4, #596]	; 0x254
10001aa2:	eea6 7a82 	vfma.f32	s14, s13, s4
10001aa6:	ed94 3a99 	vldr	s6, [r4, #612]	; 0x264
10001aaa:	eea2 7ac3 	vfms.f32	s14, s5, s6
10001aae:	eeb4 7ac8 	vcmpe.f32	s14, s16
10001ab2:	edc4 6a94 	vstr	s13, [r4, #592]	; 0x250
10001ab6:	eef1 fa10 	vmrs	APSR_nzcv, fpscr
10001aba:	ee77 6a27 	vadd.f32	s13, s14, s15
10001abe:	edc4 6a95 	vstr	s13, [r4, #596]	; 0x254
10001ac2:	f100 8204 	bmi.w	10001ece <_ZN4Vibe3outEPfS0_+0xe7a>
10001ac6:	eef4 8a47 	vcmp.f32	s17, s14
10001aca:	eef1 fa10 	vmrs	APSR_nzcv, fpscr
10001ace:	bf48      	it	mi
10001ad0:	eeb0 7a68 	vmovmi.f32	s14, s17
10001ad4:	ed94 3aa0 	vldr	s6, [r4, #640]	; 0x280
10001ad8:	ed94 baa3 	vldr	s22, [r4, #652]	; 0x28c
10001adc:	edd4 2ab7 	vldr	s5, [r4, #732]	; 0x2dc
10001ae0:	ee23 3a0b 	vmul.f32	s6, s6, s22
10001ae4:	ed94 bab4 	vldr	s22, [r4, #720]	; 0x2d0
10001ae8:	edd4 6aa8 	vldr	s13, [r4, #672]	; 0x2a0
10001aec:	ee6b 2a22 	vmul.f32	s5, s22, s5
10001af0:	ed94 baab 	vldr	s22, [r4, #684]	; 0x2ac
10001af4:	ee66 6a8b 	vmul.f32	s13, s13, s22
10001af8:	ed94 baa2 	vldr	s22, [r4, #648]	; 0x288
10001afc:	edc4 3aa0 	vstr	s7, [r4, #640]	; 0x280
10001b00:	eea3 3a8b 	vfma.f32	s6, s7, s22
10001b04:	edd4 3aa1 	vldr	s7, [r4, #644]	; 0x284
10001b08:	ed94 baa5 	vldr	s22, [r4, #660]	; 0x294
10001b0c:	eea3 3acb 	vfms.f32	s6, s7, s22
10001b10:	ee77 3a03 	vadd.f32	s7, s14, s6
10001b14:	ee63 3a89 	vmul.f32	s7, s7, s18
10001b18:	ed84 7aa6 	vstr	s14, [r4, #664]	; 0x298
10001b1c:	eeb0 7ae3 	vabs.f32	s14, s7
10001b20:	ee33 3a27 	vadd.f32	s6, s6, s15
10001b24:	ee37 7a06 	vadd.f32	s14, s14, s12
10001b28:	ed84 3aa1 	vstr	s6, [r4, #644]	; 0x284
10001b2c:	ee83 3a87 	vdiv.f32	s6, s7, s14
10001b30:	ee63 3a24 	vmul.f32	s7, s6, s9
10001b34:	ed94 7ac0 	vldr	s14, [r4, #768]	; 0x300
10001b38:	eeb0 3a63 	vmov.f32	s6, s7
10001b3c:	ed94 0aaa 	vldr	s0, [r4, #680]	; 0x2a8
10001b40:	eea5 3a07 	vfma.f32	s6, s10, s14
10001b44:	eeb0 7a62 	vmov.f32	s14, s5
10001b48:	edd4 2ab6 	vldr	s5, [r4, #728]	; 0x2d8
10001b4c:	edd4 0ab5 	vldr	s1, [r4, #724]	; 0x2d4
10001b50:	edd4 1aa9 	vldr	s3, [r4, #676]	; 0x2a4
10001b54:	eea3 7aa2 	vfma.f32	s14, s7, s5
10001b58:	eee3 6a00 	vfma.f32	s13, s6, s0
10001b5c:	ed94 1ab9 	vldr	s2, [r4, #740]	; 0x2e4
10001b60:	ed94 2aad 	vldr	s4, [r4, #692]	; 0x2b4
10001b64:	eea0 7ac1 	vfms.f32	s14, s1, s2
10001b68:	eee1 6ac2 	vfms.f32	s13, s3, s4
10001b6c:	ed84 3aa8 	vstr	s6, [r4, #672]	; 0x2a0
10001b70:	ee36 3aa7 	vadd.f32	s6, s13, s15
10001b74:	ee77 6a26 	vadd.f32	s13, s14, s13
10001b78:	eef4 6ac8 	vcmpe.f32	s13, s16
10001b7c:	ee77 2a27 	vadd.f32	s5, s14, s15
10001b80:	eef1 fa10 	vmrs	APSR_nzcv, fpscr
10001b84:	edc4 3ab4 	vstr	s7, [r4, #720]	; 0x2d0
10001b88:	edc4 2ab5 	vstr	s5, [r4, #724]	; 0x2d4
10001b8c:	ed84 3aa9 	vstr	s6, [r4, #676]	; 0x2a4
10001b90:	f100 819a 	bmi.w	10001ec8 <_ZN4Vibe3outEPfS0_+0xe74>
10001b94:	eef4 8a66 	vcmp.f32	s17, s13
10001b98:	eef1 fa10 	vmrs	APSR_nzcv, fpscr
10001b9c:	bf48      	it	mi
10001b9e:	eef0 6a68 	vmovmi.f32	s13, s17
10001ba2:	ed94 7aae 	vldr	s14, [r4, #696]	; 0x2b8
10001ba6:	edd4 1ab1 	vldr	s3, [r4, #708]	; 0x2c4
10001baa:	ed94 2ab0 	vldr	s4, [r4, #704]	; 0x2c0
10001bae:	ee27 7a21 	vmul.f32	s14, s14, s3
10001bb2:	edd4 2aaf 	vldr	s5, [r4, #700]	; 0x2bc
10001bb6:	eea6 7a82 	vfma.f32	s14, s13, s4
10001bba:	ed94 3ab3 	vldr	s6, [r4, #716]	; 0x2cc
10001bbe:	eea2 7ac3 	vfms.f32	s14, s5, s6
10001bc2:	eeb4 7ac8 	vcmpe.f32	s14, s16
10001bc6:	edc4 6aae 	vstr	s13, [r4, #696]	; 0x2b8
10001bca:	eef1 fa10 	vmrs	APSR_nzcv, fpscr
10001bce:	ee77 6a27 	vadd.f32	s13, s14, s15
10001bd2:	edc4 6aaf 	vstr	s13, [r4, #700]	; 0x2bc
10001bd6:	f100 8174 	bmi.w	10001ec2 <_ZN4Vibe3outEPfS0_+0xe6e>
10001bda:	eef4 8a47 	vcmp.f32	s17, s14
10001bde:	eef1 fa10 	vmrs	APSR_nzcv, fpscr
10001be2:	bf48      	it	mi
10001be4:	eeb0 7a68 	vmovmi.f32	s14, s17
10001be8:	ed94 3aba 	vldr	s6, [r4, #744]	; 0x2e8
10001bec:	ed94 babd 	vldr	s22, [r4, #756]	; 0x2f4
10001bf0:	edd4 2ad1 	vldr	s5, [r4, #836]	; 0x344
10001bf4:	ee23 3a0b 	vmul.f32	s6, s6, s22
10001bf8:	ed94 bace 	vldr	s22, [r4, #824]	; 0x338
10001bfc:	edd4 6ac2 	vldr	s13, [r4, #776]	; 0x308
10001c00:	ee6b 2a22 	vmul.f32	s5, s22, s5
10001c04:	ed94 bac5 	vldr	s22, [r4, #788]	; 0x314
10001c08:	ee66 6a8b 	vmul.f32	s13, s13, s22
10001c0c:	ed94 babc 	vldr	s22, [r4, #752]	; 0x2f0
10001c10:	edc4 3aba 	vstr	s7, [r4, #744]	; 0x2e8
10001c14:	eea3 3a8b 	vfma.f32	s6, s7, s22
10001c18:	edd4 3abb 	vldr	s7, [r4, #748]	; 0x2ec
10001c1c:	ed94 babf 	vldr	s22, [r4, #764]	; 0x2fc
10001c20:	eea3 3acb 	vfms.f32	s6, s7, s22
10001c24:	ee77 3a03 	vadd.f32	s7, s14, s6
10001c28:	ee63 3a89 	vmul.f32	s7, s7, s18
10001c2c:	ed84 7ac0 	vstr	s14, [r4, #768]	; 0x300
10001c30:	eeb0 7ae3 	vabs.f32	s14, s7
10001c34:	ee33 3a27 	vadd.f32	s6, s6, s15
10001c38:	ee37 7a06 	vadd.f32	s14, s14, s12
10001c3c:	ed84 3abb 	vstr	s6, [r4, #748]	; 0x2ec
10001c40:	ee83 3a87 	vdiv.f32	s6, s7, s14
10001c44:	ee63 3a24 	vmul.f32	s7, s6, s9
10001c48:	ed94 7ada 	vldr	s14, [r4, #872]	; 0x368
10001c4c:	eeb0 3a63 	vmov.f32	s6, s7
10001c50:	ed94 0ac4 	vldr	s0, [r4, #784]	; 0x310
10001c54:	eea5 3a07 	vfma.f32	s6, s10, s14
10001c58:	eeb0 7a62 	vmov.f32	s14, s5
10001c5c:	edd4 2ad0 	vldr	s5, [r4, #832]	; 0x340
10001c60:	edd4 0acf 	vldr	s1, [r4, #828]	; 0x33c
10001c64:	edd4 1ac3 	vldr	s3, [r4, #780]	; 0x30c
10001c68:	eea3 7aa2 	vfma.f32	s14, s7, s5
10001c6c:	eee3 6a00 	vfma.f32	s13, s6, s0
10001c70:	ed94 1ad3 	vldr	s2, [r4, #844]	; 0x34c
10001c74:	ed94 2ac7 	vldr	s4, [r4, #796]	; 0x31c
10001c78:	eea0 7ac1 	vfms.f32	s14, s1, s2
10001c7c:	eee1 6ac2 	vfms.f32	s13, s3, s4
10001c80:	ed84 3ac2 	vstr	s6, [r4, #776]	; 0x308
10001c84:	ee36 3aa7 	vadd.f32	s6, s13, s15
10001c88:	ee77 6a26 	vadd.f32	s13, s14, s13
10001c8c:	eef4 6ac8 	vcmpe.f32	s13, s16
10001c90:	ee77 2a27 	vadd.f32	s5, s14, s15
10001c94:	eef1 fa10 	vmrs	APSR_nzcv, fpscr
10001c98:	edc4 3ace 	vstr	s7, [r4, #824]	; 0x338
10001c9c:	edc4 2acf 	vstr	s5, [r4, #828]	; 0x33c
10001ca0:	ed84 3ac3 	vstr	s6, [r4, #780]	; 0x30c
10001ca4:	f100 810a 	bmi.w	10001ebc <_ZN4Vibe3outEPfS0_+0xe68>
10001ca8:	eef4 8a66 	vcmp.f32	s17, s13
10001cac:	eef1 fa10 	vmrs	APSR_nzcv, fpscr
10001cb0:	bf48      	it	mi
10001cb2:	eef0 6a68 	vmovmi.f32	s13, s17
10001cb6:	ed94 7ac8 	vldr	s14, [r4, #800]	; 0x320
10001cba:	edd4 1acb 	vldr	s3, [r4, #812]	; 0x32c
10001cbe:	ed94 2aca 	vldr	s4, [r4, #808]	; 0x328
10001cc2:	ee27 7a21 	vmul.f32	s14, s14, s3
10001cc6:	edd4 2ac9 	vldr	s5, [r4, #804]	; 0x324
10001cca:	eea6 7a82 	vfma.f32	s14, s13, s4
10001cce:	ed94 3acd 	vldr	s6, [r4, #820]	; 0x334
10001cd2:	eea2 7ac3 	vfms.f32	s14, s5, s6
10001cd6:	eeb4 7ac8 	vcmpe.f32	s14, s16
10001cda:	edc4 6ac8 	vstr	s13, [r4, #800]	; 0x320
10001cde:	eef1 fa10 	vmrs	APSR_nzcv, fpscr
10001ce2:	ee77 6a27 	vadd.f32	s13, s14, s15
10001ce6:	edc4 6ac9 	vstr	s13, [r4, #804]	; 0x324
10001cea:	f100 80e4 	bmi.w	10001eb6 <_ZN4Vibe3outEPfS0_+0xe62>
10001cee:	eef4 8a47 	vcmp.f32	s17, s14
10001cf2:	eef1 fa10 	vmrs	APSR_nzcv, fpscr
10001cf6:	bf48      	it	mi
10001cf8:	eeb0 7a68 	vmovmi.f32	s14, s17
10001cfc:	ed94 3ad4 	vldr	s6, [r4, #848]	; 0x350
10001d00:	ed94 bad7 	vldr	s22, [r4, #860]	; 0x35c
10001d04:	edd4 2aeb 	vldr	s5, [r4, #940]	; 0x3ac
10001d08:	ee23 3a0b 	vmul.f32	s6, s6, s22
10001d0c:	ed94 bae8 	vldr	s22, [r4, #928]	; 0x3a0
10001d10:	edd4 6adc 	vldr	s13, [r4, #880]	; 0x370
10001d14:	ee6b 2a22 	vmul.f32	s5, s22, s5
10001d18:	ed94 badf 	vldr	s22, [r4, #892]	; 0x37c
10001d1c:	ee66 6a8b 	vmul.f32	s13, s13, s22
10001d20:	ed94 bad6 	vldr	s22, [r4, #856]	; 0x358
10001d24:	edc4 3ad4 	vstr	s7, [r4, #848]	; 0x350
10001d28:	eea3 3a8b 	vfma.f32	s6, s7, s22
10001d2c:	edd4 3ad5 	vldr	s7, [r4, #852]	; 0x354
10001d30:	ed94 bad9 	vldr	s22, [r4, #868]	; 0x364
10001d34:	eea3 3acb 	vfms.f32	s6, s7, s22
10001d38:	ee77 3a03 	vadd.f32	s7, s14, s6
10001d3c:	ee63 3a89 	vmul.f32	s7, s7, s18
10001d40:	ed84 7ada 	vstr	s14, [r4, #872]	; 0x368
10001d44:	eeb0 7ae3 	vabs.f32	s14, s7
10001d48:	ee33 3a27 	vadd.f32	s6, s6, s15
10001d4c:	ee37 7a06 	vadd.f32	s14, s14, s12
10001d50:	ed84 3ad5 	vstr	s6, [r4, #852]	; 0x354
10001d54:	ee83 3a87 	vdiv.f32	s6, s7, s14
10001d58:	ee63 3a24 	vmul.f32	s7, s6, s9
10001d5c:	ed94 7af4 	vldr	s14, [r4, #976]	; 0x3d0
10001d60:	eeb0 3a63 	vmov.f32	s6, s7
10001d64:	ed94 0ade 	vldr	s0, [r4, #888]	; 0x378
10001d68:	eea5 3a07 	vfma.f32	s6, s10, s14
10001d6c:	eeb0 7a62 	vmov.f32	s14, s5
10001d70:	edd4 2aea 	vldr	s5, [r4, #936]	; 0x3a8
10001d74:	edd4 0ae9 	vldr	s1, [r4, #932]	; 0x3a4
10001d78:	edd4 1add 	vldr	s3, [r4, #884]	; 0x374
10001d7c:	eea3 7aa2 	vfma.f32	s14, s7, s5
10001d80:	eee3 6a00 	vfma.f32	s13, s6, s0
10001d84:	ed94 1aed 	vldr	s2, [r4, #948]	; 0x3b4
10001d88:	ed94 2ae1 	vldr	s4, [r4, #900]	; 0x384
10001d8c:	eea0 7ac1 	vfms.f32	s14, s1, s2
10001d90:	eee1 6ac2 	vfms.f32	s13, s3, s4
10001d94:	ed84 3adc 	vstr	s6, [r4, #880]	; 0x370
10001d98:	ee36 3aa7 	vadd.f32	s6, s13, s15
10001d9c:	ee77 6a26 	vadd.f32	s13, s14, s13
10001da0:	eef4 6ac8 	vcmpe.f32	s13, s16
10001da4:	ee77 2a27 	vadd.f32	s5, s14, s15
10001da8:	eef1 fa10 	vmrs	APSR_nzcv, fpscr
10001dac:	edc4 3ae8 	vstr	s7, [r4, #928]	; 0x3a0
10001db0:	edc4 2ae9 	vstr	s5, [r4, #932]	; 0x3a4
10001db4:	ed84 3add 	vstr	s6, [r4, #884]	; 0x374
10001db8:	d47a      	bmi.n	10001eb0 <_ZN4Vibe3outEPfS0_+0xe5c>
10001dba:	eef4 8a66 	vcmp.f32	s17, s13
10001dbe:	eef1 fa10 	vmrs	APSR_nzcv, fpscr
10001dc2:	bf48      	it	mi
10001dc4:	eef0 6a68 	vmovmi.f32	s13, s17
10001dc8:	ed94 7ae2 	vldr	s14, [r4, #904]	; 0x388
10001dcc:	edd4 1ae5 	vldr	s3, [r4, #916]	; 0x394
10001dd0:	ed94 2ae4 	vldr	s4, [r4, #912]	; 0x390
10001dd4:	ee27 7a21 	vmul.f32	s14, s14, s3
10001dd8:	edd4 2ae3 	vldr	s5, [r4, #908]	; 0x38c
10001ddc:	eea6 7a82 	vfma.f32	s14, s13, s4
10001de0:	ed94 3ae7 	vldr	s6, [r4, #924]	; 0x39c
10001de4:	eea2 7ac3 	vfms.f32	s14, s5, s6
10001de8:	eeb4 7ac8 	vcmpe.f32	s14, s16
10001dec:	edc4 6ae2 	vstr	s13, [r4, #904]	; 0x388
10001df0:	eef1 fa10 	vmrs	APSR_nzcv, fpscr
10001df4:	ee77 6a27 	vadd.f32	s13, s14, s15
10001df8:	edc4 6ae3 	vstr	s13, [r4, #908]	; 0x38c
10001dfc:	d455      	bmi.n	10001eaa <_ZN4Vibe3outEPfS0_+0xe56>
10001dfe:	eef4 8a47 	vcmp.f32	s17, s14
10001e02:	eef1 fa10 	vmrs	APSR_nzcv, fpscr
10001e06:	bf48      	it	mi
10001e08:	eeb0 7a68 	vmovmi.f32	s14, s17
10001e0c:	edd4 6aee 	vldr	s13, [r4, #952]	; 0x3b8
10001e10:	ed94 3af1 	vldr	s6, [r4, #964]	; 0x3c4
10001e14:	ed94 1af0 	vldr	s2, [r4, #960]	; 0x3c0
10001e18:	ee66 6a83 	vmul.f32	s13, s13, s6
10001e1c:	edd4 1aef 	vldr	s3, [r4, #956]	; 0x3bc
10001e20:	eee3 6a81 	vfma.f32	s13, s7, s2
10001e24:	ed94 2af3 	vldr	s4, [r4, #972]	; 0x3cc
10001e28:	ee69 2a87 	vmul.f32	s5, s19, s14
10001e2c:	eee1 6ac2 	vfms.f32	s13, s3, s4
10001e30:	eeb0 3ae2 	vabs.f32	s6, s5
10001e34:	ed84 7af4 	vstr	s14, [r4, #976]	; 0x3d0
10001e38:	ee37 7a26 	vadd.f32	s14, s14, s13
10001e3c:	edc4 3aee 	vstr	s7, [r4, #952]	; 0x3b8
10001e40:	ee27 7a09 	vmul.f32	s14, s14, s18
10001e44:	ee73 3a06 	vadd.f32	s7, s6, s12
10001e48:	ee82 3aa3 	vdiv.f32	s6, s5, s7
10001e4c:	eef0 3ac7 	vabs.f32	s7, s14
10001e50:	ee76 6aa7 	vadd.f32	s13, s13, s15
10001e54:	ee73 3a86 	vadd.f32	s7, s7, s12
10001e58:	edc4 6aef 	vstr	s13, [r4, #956]	; 0x3bc
10001e5c:	eec7 6a23 	vdiv.f32	s13, s14, s7
10001e60:	ed84 3af6 	vstr	s6, [r4, #984]	; 0x3d8
10001e64:	ee66 4aa4 	vmul.f32	s9, s13, s9
10001e68:	b198      	cbz	r0, 10001e92 <_ZN4Vibe3outEPfS0_+0xe3e>
10001e6a:	ee76 6a4a 	vsub.f32	s13, s12, s20
10001e6e:	ee2a 7a24 	vmul.f32	s14, s20, s9
10001e72:	edd4 3a04 	vldr	s7, [r4, #16]
10001e76:	eea6 7a84 	vfma.f32	s14, s13, s8
10001e7a:	ee27 7a23 	vmul.f32	s14, s14, s7
10001e7e:	ee27 7a2a 	vmul.f32	s14, s14, s21
10001e82:	42b3      	cmp	r3, r6
10001e84:	eca1 7a01 	vstmia	r1!, {s14}
10001e88:	f47f ab5b 	bne.w	10001542 <_ZN4Vibe3outEPfS0_+0x4ee>
10001e8c:	ecbd 8b0a 	vpop	{d8-d12}
10001e90:	bdf8      	pop	{r3, r4, r5, r6, r7, pc}
10001e92:	ed94 7a04 	vldr	s14, [r4, #16]
10001e96:	ee64 4a87 	vmul.f32	s9, s9, s14
10001e9a:	ee64 4aaa 	vmul.f32	s9, s9, s21
10001e9e:	42b3      	cmp	r3, r6
10001ea0:	ece1 4a01 	vstmia	r1!, {s9}
10001ea4:	f47f ab4d 	bne.w	10001542 <_ZN4Vibe3outEPfS0_+0x4ee>
10001ea8:	e7f0      	b.n	10001e8c <_ZN4Vibe3outEPfS0_+0xe38>
10001eaa:	eeb0 7a48 	vmov.f32	s14, s16
10001eae:	e7ad      	b.n	10001e0c <_ZN4Vibe3outEPfS0_+0xdb8>
10001eb0:	eef0 6a48 	vmov.f32	s13, s16
10001eb4:	e788      	b.n	10001dc8 <_ZN4Vibe3outEPfS0_+0xd74>
10001eb6:	eeb0 7a48 	vmov.f32	s14, s16
10001eba:	e71f      	b.n	10001cfc <_ZN4Vibe3outEPfS0_+0xca8>
10001ebc:	eef0 6a48 	vmov.f32	s13, s16
10001ec0:	e6f9      	b.n	10001cb6 <_ZN4Vibe3outEPfS0_+0xc62>
10001ec2:	eeb0 7a48 	vmov.f32	s14, s16
10001ec6:	e68f      	b.n	10001be8 <_ZN4Vibe3outEPfS0_+0xb94>
10001ec8:	eef0 6a48 	vmov.f32	s13, s16
10001ecc:	e669      	b.n	10001ba2 <_ZN4Vibe3outEPfS0_+0xb4e>
10001ece:	eeb0 7a48 	vmov.f32	s14, s16
10001ed2:	e5ff      	b.n	10001ad4 <_ZN4Vibe3outEPfS0_+0xa80>
10001ed4:	eef0 6a48 	vmov.f32	s13, s16
10001ed8:	e5d9      	b.n	10001a8e <_ZN4Vibe3outEPfS0_+0xa3a>
10001eda:	ed94 7a03 	vldr	s14, [r4, #12]
10001ede:	ee64 4a87 	vmul.f32	s9, s9, s14
10001ee2:	e57d      	b.n	100019e0 <_ZN4Vibe3outEPfS0_+0x98c>
10001ee4:	eeb0 7a48 	vmov.f32	s14, s16
10001ee8:	e53f      	b.n	1000196a <_ZN4Vibe3outEPfS0_+0x916>
10001eea:	eef0 6a48 	vmov.f32	s13, s16
10001eee:	e519      	b.n	10001924 <_ZN4Vibe3outEPfS0_+0x8d0>
10001ef0:	eeb0 7a48 	vmov.f32	s14, s16
10001ef4:	e4af      	b.n	10001856 <_ZN4Vibe3outEPfS0_+0x802>
10001ef6:	eef0 6a48 	vmov.f32	s13, s16
10001efa:	e489      	b.n	10001810 <_ZN4Vibe3outEPfS0_+0x7bc>
10001efc:	eeb0 7a48 	vmov.f32	s14, s16
10001f00:	e41f      	b.n	10001742 <_ZN4Vibe3outEPfS0_+0x6ee>
10001f02:	eef0 6a48 	vmov.f32	s13, s16
10001f06:	f7ff bbf9 	b.w	100016fc <_ZN4Vibe3outEPfS0_+0x6a8>
10001f0a:	eeb0 7a48 	vmov.f32	s14, s16
10001f0e:	f7ff bb8e 	b.w	1000162e <_ZN4Vibe3outEPfS0_+0x5da>
10001f12:	eef0 6a48 	vmov.f32	s13, s16
10001f16:	f7ff bb67 	b.w	100015e8 <_ZN4Vibe3outEPfS0_+0x594>
10001f1a:	eef0 5a45 	vmov.f32	s11, s10
10001f1e:	f7ff baf5 	b.w	1000150c <_ZN4Vibe3outEPfS0_+0x4b8>
10001f22:	eeb0 ca6b 	vmov.f32	s24, s23
10001f26:	f7ff bac8 	b.w	100014ba <_ZN4Vibe3outEPfS0_+0x466>
10001f2a:	eddf 7a33 	vldr	s15, [pc, #204]	; 10001ff8 <_ZN4Vibe3outEPfS0_+0xfa4>
10001f2e:	f7ff b9c3 	b.w	100012b8 <_ZN4Vibe3outEPfS0_+0x264>
10001f32:	eeb0 6a67 	vmov.f32	s12, s15
10001f36:	f7ff b9a1 	b.w	1000127c <_ZN4Vibe3outEPfS0_+0x228>
10001f3a:	ee77 7ac7 	vsub.f32	s15, s15, s14
10001f3e:	eddf 6a2f 	vldr	s13, [pc, #188]	; 10001ffc <_ZN4Vibe3outEPfS0_+0xfa8>
10001f42:	eeb7 7a00 	vmov.f32	s14, #112	; 0x3f800000  1.0
10001f46:	eea7 7ae6 	vfms.f32	s14, s15, s13
10001f4a:	f7ff b985 	b.w	10001258 <_ZN4Vibe3outEPfS0_+0x204>
10001f4e:	eddf 7a2a 	vldr	s15, [pc, #168]	; 10001ff8 <_ZN4Vibe3outEPfS0_+0xfa4>
10001f52:	f7ff b96a 	b.w	1000122a <_ZN4Vibe3outEPfS0_+0x1d6>
10001f56:	ee77 7a67 	vsub.f32	s15, s14, s15
10001f5a:	eddf 6a28 	vldr	s13, [pc, #160]	; 10001ffc <_ZN4Vibe3outEPfS0_+0xfa8>
10001f5e:	eef7 5a00 	vmov.f32	s11, #112	; 0x3f800000  1.0
10001f62:	eee7 5ae6 	vfms.f32	s11, s15, s13
10001f66:	f7ff b950 	b.w	1000120a <_ZN4Vibe3outEPfS0_+0x1b6>
10001f6a:	eef4 7ac5 	vcmpe.f32	s15, s10
10001f6e:	eef1 fa10 	vmrs	APSR_nzcv, fpscr
10001f72:	bfd4      	ite	le
10001f74:	ee28 8a27 	vmulle.f32	s16, s16, s15
10001f78:	eef0 7a45 	vmovgt.f32	s15, s10
10001f7c:	f7ff b91e 	b.w	100011bc <_ZN4Vibe3outEPfS0_+0x168>
10001f80:	edc4 7a23 	vstr	s15, [r4, #140]	; 0x8c
10001f84:	eeb0 ba67 	vmov.f32	s22, s15
10001f88:	f7ff ba5c 	b.w	10001444 <_ZN4Vibe3outEPfS0_+0x3f0>
10001f8c:	eeb5 bac0 	vcmpe.f32	s22, #0.0
10001f90:	eef1 fa10 	vmrs	APSR_nzcv, fpscr
10001f94:	edc4 ba22 	vstr	s23, [r4, #136]	; 0x88
10001f98:	f57f aa44 	bpl.w	10001424 <_ZN4Vibe3outEPfS0_+0x3d0>
10001f9c:	ed9f ba16 	vldr	s22, [pc, #88]	; 10001ff8 <_ZN4Vibe3outEPfS0_+0xfa4>
10001fa0:	f7ff ba48 	b.w	10001434 <_ZN4Vibe3outEPfS0_+0x3e0>
10001fa4:	eeb1 8a68 	vneg.f32	s16, s17
10001fa8:	f7ff b9cd 	b.w	10001346 <_ZN4Vibe3outEPfS0_+0x2f2>
10001fac:	eddf 6a14 	vldr	s13, [pc, #80]	; 10002000 <_ZN4Vibe3outEPfS0_+0xfac>
10001fb0:	ed9f 7a14 	vldr	s14, [pc, #80]	; 10002004 <_ZN4Vibe3outEPfS0_+0xfb0>
10001fb4:	ee67 7aa6 	vmul.f32	s15, s15, s13
10001fb8:	ee67 7a87 	vmul.f32	s15, s15, s14
10001fbc:	ee17 0a90 	vmov	r0, s15
10001fc0:	f7ff b8c9 	b.w	10001156 <_ZN4Vibe3outEPfS0_+0x102>
10001fc4:	ed9f 7a10 	vldr	s14, [pc, #64]	; 10002008 <_ZN4Vibe3outEPfS0_+0xfb4>
10001fc8:	eec7 7a27 	vdiv.f32	s15, s14, s15
10001fcc:	ee17 0a90 	vmov	r0, s15
10001fd0:	f7ff b85a 	b.w	10001088 <_ZN4Vibe3outEPfS0_+0x34>
10001fd4:	ee1b 0a90 	vmov	r0, s23
10001fd8:	f006 ffbe 	bl	10008f58 <__sqrtf_veneer>
10001fdc:	ed94 ba23 	vldr	s22, [r4, #140]	; 0x8c
10001fe0:	ee07 0a90 	vmov	s15, r0
10001fe4:	f7ff ba30 	b.w	10001448 <_ZN4Vibe3outEPfS0_+0x3f4>
10001fe8:	ee1b 0a10 	vmov	r0, s22
10001fec:	f006 ffb4 	bl	10008f58 <__sqrtf_veneer>
10001ff0:	ee0c 0a90 	vmov	s25, r0
10001ff4:	f7ff ba32 	b.w	1000145c <_ZN4Vibe3outEPfS0_+0x408>
10001ff8:	00000000 	.word	0x00000000
10001ffc:	3fd55326 	.word	0x3fd55326
10002000:	c0c90fdb 	.word	0xc0c90fdb
10002004:	3a3e37c6 	.word	0x3a3e37c6
10002008:	ba3e37c6 	.word	0xba3e37c6

1000200c <main>:
1000200c:	e92d 4ff0 	stmdb	sp!, {r4, r5, r6, r7, r8, r9, sl, fp, lr}
10002010:	ed2d 8b06 	vpush	{d8-d10}
10002014:	b08d      	sub	sp, #52	; 0x34
10002016:	4804      	ldr	r0, [pc, #16]	; (10002028 <main+0x1c>)
10002018:	ab08      	add	r3, sp, #32
1000201a:	aa07      	add	r2, sp, #28
1000201c:	a906      	add	r1, sp, #24
1000201e:	f002 f819 	bl	10004054 <check_sys_clock_hz>
10002022:	9004      	str	r0, [sp, #16]
10002024:	b910      	cbnz	r0, 1000202c <main+0x20>
10002026:	e7fe      	b.n	10002026 <main+0x1a>
10002028:	08133000 	.word	0x08133000
1000202c:	e9dd 1207 	ldrd	r1, r2, [sp, #28]
10002030:	9806      	ldr	r0, [sp, #24]
10002032:	f001 ff3b 	bl	10003eac <set_sys_clock_pll>
10002036:	f004 f8c5 	bl	100061c4 <stdio_init_all>
1000203a:	2050      	movs	r0, #80	; 0x50
1000203c:	f001 fde4 	bl	10003c08 <sleep_ms>
10002040:	4bcb      	ldr	r3, [pc, #812]	; (10002370 <main+0x364>)
10002042:	48cc      	ldr	r0, [pc, #816]	; (10002374 <main+0x368>)
10002044:	6a99      	ldr	r1, [r3, #40]	; 0x28
10002046:	f7fe fdc1 	bl	10000bcc <_ZN4Vibe6reseedEm>
1000204a:	2109      	movs	r1, #9
1000204c:	2015      	movs	r0, #21
1000204e:	f8df a390 	ldr.w	sl, [pc, #912]	; 100023e0 <main+0x3d4>
10002052:	f000 febf 	bl	10002dd4 <gpio_set_function>
10002056:	220c      	movs	r2, #12
10002058:	2300      	movs	r3, #0
1000205a:	2108      	movs	r1, #8
1000205c:	2015      	movs	r0, #21
1000205e:	f001 fef7 	bl	10003e50 <clock_gpio_init_int_frac16>
10002062:	2014      	movs	r0, #20
10002064:	f001 fdd0 	bl	10003c08 <sleep_ms>
10002068:	49c3      	ldr	r1, [pc, #780]	; (10002378 <main+0x36c>)
1000206a:	4650      	mov	r0, sl
1000206c:	f006 fd34 	bl	10008ad8 <pio_add_program>
10002070:	4603      	mov	r3, r0
10002072:	49c2      	ldr	r1, [pc, #776]	; (1000237c <main+0x370>)
10002074:	4650      	mov	r0, sl
10002076:	9302      	str	r3, [sp, #8]
10002078:	f006 fd2e 	bl	10008ad8 <pio_add_program>
1000207c:	4603      	mov	r3, r0
1000207e:	4ac0      	ldr	r2, [pc, #768]	; (10002380 <main+0x374>)
10002080:	49c0      	ldr	r1, [pc, #768]	; (10002384 <main+0x378>)
10002082:	4650      	mov	r0, sl
10002084:	f502 7580 	add.w	r5, r2, #256	; 0x100
10002088:	9303      	str	r3, [sp, #12]
1000208a:	f006 fd25 	bl	10008ad8 <pio_add_program>
1000208e:	f44f 2340 	mov.w	r3, #786432	; 0xc0000
10002092:	930a      	str	r3, [sp, #40]	; 0x28
10002094:	f44f 13c0 	mov.w	r3, #1572864	; 0x180000
10002098:	9308      	str	r3, [sp, #32]
1000209a:	f04f 2340 	mov.w	r3, #1073758208	; 0x40004000
1000209e:	f04f 0b01 	mov.w	fp, #1
100020a2:	9902      	ldr	r1, [sp, #8]
100020a4:	930b      	str	r3, [sp, #44]	; 0x2c
100020a6:	1d4a      	adds	r2, r1, #5
100020a8:	01cb      	lsls	r3, r1, #7
100020aa:	ea43 3302 	orr.w	r3, r3, r2, lsl #12
100020ae:	f023 43c0 	bic.w	r3, r3, #1610612736	; 0x60000000
100020b2:	2106      	movs	r1, #6
100020b4:	9005      	str	r0, [sp, #20]
100020b6:	2010      	movs	r0, #16
100020b8:	9309      	str	r3, [sp, #36]	; 0x24
100020ba:	f000 fe8b 	bl	10002dd4 <gpio_set_function>
100020be:	2106      	movs	r1, #6
100020c0:	2011      	movs	r0, #17
100020c2:	f000 fe87 	bl	10002dd4 <gpio_set_function>
100020c6:	2100      	movs	r1, #0
100020c8:	2302      	movs	r3, #2
100020ca:	2210      	movs	r2, #16
100020cc:	f8cd b000 	str.w	fp, [sp]
100020d0:	4650      	mov	r0, sl
100020d2:	f006 fd85 	bl	10008be0 <pio_sm_set_consecutive_pindirs>
100020d6:	f10d 0c20 	add.w	ip, sp, #32
100020da:	4663      	mov	r3, ip
100020dc:	2100      	movs	r1, #0
100020de:	9a02      	ldr	r2, [sp, #8]
100020e0:	4650      	mov	r0, sl
100020e2:	f006 fdc5 	bl	10008c70 <pio_sm_init>
100020e6:	f44f 3280 	mov.w	r2, #65536	; 0x10000
100020ea:	9903      	ldr	r1, [sp, #12]
100020ec:	4ba6      	ldr	r3, [pc, #664]	; (10002388 <main+0x37c>)
100020ee:	48a7      	ldr	r0, [pc, #668]	; (1000238c <main+0x380>)
100020f0:	9208      	str	r2, [sp, #32]
100020f2:	e9cd 300a 	strd	r3, r0, [sp, #40]	; 0x28
100020f6:	f101 020f 	add.w	r2, r1, #15
100020fa:	01cb      	lsls	r3, r1, #7
100020fc:	ea43 3302 	orr.w	r3, r3, r2, lsl #12
10002100:	2106      	movs	r1, #6
10002102:	2012      	movs	r0, #18
10002104:	9309      	str	r3, [sp, #36]	; 0x24
10002106:	f000 fe65 	bl	10002dd4 <gpio_set_function>
1000210a:	465b      	mov	r3, fp
1000210c:	4659      	mov	r1, fp
1000210e:	2212      	movs	r2, #18
10002110:	f8cd b000 	str.w	fp, [sp]
10002114:	4650      	mov	r0, sl
10002116:	f006 fd63 	bl	10008be0 <pio_sm_set_consecutive_pindirs>
1000211a:	4659      	mov	r1, fp
1000211c:	9a03      	ldr	r2, [sp, #12]
1000211e:	ab08      	add	r3, sp, #32
10002120:	4650      	mov	r0, sl
10002122:	f006 fda5 	bl	10008c70 <pio_sm_init>
10002126:	f44f 3380 	mov.w	r3, #65536	; 0x10000
1000212a:	9308      	str	r3, [sp, #32]
1000212c:	f44f 2318 	mov.w	r3, #622592	; 0x98000
10002130:	9905      	ldr	r1, [sp, #20]
10002132:	930b      	str	r3, [sp, #44]	; 0x2c
10002134:	f1a3 2380 	sub.w	r3, r3, #2147516416	; 0x80008000
10002138:	f101 020f 	add.w	r2, r1, #15
1000213c:	930a      	str	r3, [sp, #40]	; 0x28
1000213e:	01cb      	lsls	r3, r1, #7
10002140:	ea43 3302 	orr.w	r3, r3, r2, lsl #12
10002144:	2106      	movs	r1, #6
10002146:	2013      	movs	r0, #19
10002148:	9309      	str	r3, [sp, #36]	; 0x24
1000214a:	f000 fe43 	bl	10002dd4 <gpio_set_function>
1000214e:	2000      	movs	r0, #0
10002150:	465b      	mov	r3, fp
10002152:	2102      	movs	r1, #2
10002154:	2213      	movs	r2, #19
10002156:	9000      	str	r0, [sp, #0]
10002158:	4650      	mov	r0, sl
1000215a:	f006 fd41 	bl	10008be0 <pio_sm_set_consecutive_pindirs>
1000215e:	9a05      	ldr	r2, [sp, #20]
10002160:	ab08      	add	r3, sp, #32
10002162:	2102      	movs	r1, #2
10002164:	4650      	mov	r0, sl
10002166:	f006 fd83 	bl	10008c70 <pio_sm_init>
1000216a:	4658      	mov	r0, fp
1000216c:	f006 fdd4 	bl	10008d18 <dma_claim_unused_channel>
10002170:	4987      	ldr	r1, [pc, #540]	; (10002390 <main+0x384>)
10002172:	4c88      	ldr	r4, [pc, #544]	; (10002394 <main+0x388>)
10002174:	6008      	str	r0, [r1, #0]
10002176:	4658      	mov	r0, fp
10002178:	f006 fdce 	bl	10008d18 <dma_claim_unused_channel>
1000217c:	4984      	ldr	r1, [pc, #528]	; (10002390 <main+0x384>)
1000217e:	4b86      	ldr	r3, [pc, #536]	; (10002398 <main+0x38c>)
10002180:	f8d1 e000 	ldr.w	lr, [r1]
10002184:	f8df c25c 	ldr.w	ip, [pc, #604]	; 100023e4 <main+0x3d8>
10002188:	ea03 314e 	and.w	r1, r3, lr, lsl #13
1000218c:	ea4f 128e 	mov.w	r2, lr, lsl #6
10002190:	4b82      	ldr	r3, [pc, #520]	; (1000239c <main+0x390>)
10002192:	f102 42a0 	add.w	r2, r2, #1342177280	; 0x50000000
10002196:	6013      	str	r3, [r2, #0]
10002198:	f5a5 7380 	sub.w	r3, r5, #256	; 0x100
1000219c:	6053      	str	r3, [r2, #4]
1000219e:	2340      	movs	r3, #64	; 0x40
100021a0:	f441 2140 	orr.w	r1, r1, #786432	; 0xc0000
100021a4:	f041 014b 	orr.w	r1, r1, #75	; 0x4b
100021a8:	6093      	str	r3, [r2, #8]
100021aa:	6111      	str	r1, [r2, #16]
100021ac:	4602      	mov	r2, r0
100021ae:	4b7a      	ldr	r3, [pc, #488]	; (10002398 <main+0x38c>)
100021b0:	fa0b fe0e 	lsl.w	lr, fp, lr
100021b4:	ea03 3342 	and.w	r3, r3, r2, lsl #13
100021b8:	f443 3300 	orr.w	r3, r3, #131072	; 0x20000
100021bc:	f043 031b 	orr.w	r3, r3, #27
100021c0:	9302      	str	r3, [sp, #8]
100021c2:	4b77      	ldr	r3, [pc, #476]	; (100023a0 <main+0x394>)
100021c4:	200a      	movs	r0, #10
100021c6:	601a      	str	r2, [r3, #0]
100021c8:	f8cc e404 	str.w	lr, [ip, #1028]	; 0x404
100021cc:	4b75      	ldr	r3, [pc, #468]	; (100023a4 <main+0x398>)
100021ce:	ea4f 1e82 	mov.w	lr, r2, lsl #6
100021d2:	f10e 4ea0 	add.w	lr, lr, #1342177280	; 0x50000000
100021d6:	f8ce 3000 	str.w	r3, [lr]
100021da:	4b73      	ldr	r3, [pc, #460]	; (100023a8 <main+0x39c>)
100021dc:	fa0b f202 	lsl.w	r2, fp, r2
100021e0:	f8ce 3004 	str.w	r3, [lr, #4]
100021e4:	2340      	movs	r3, #64	; 0x40
100021e6:	f8ce 3008 	str.w	r3, [lr, #8]
100021ea:	9b02      	ldr	r3, [sp, #8]
100021ec:	496f      	ldr	r1, [pc, #444]	; (100023ac <main+0x3a0>)
100021ee:	f8ce 3010 	str.w	r3, [lr, #16]
100021f2:	f8cc 2404 	str.w	r2, [ip, #1028]	; 0x404
100021f6:	f000 ff8b 	bl	10003110 <irq_set_exclusive_handler>
100021fa:	4659      	mov	r1, fp
100021fc:	200a      	movs	r0, #10
100021fe:	f000 ff43 	bl	10003088 <irq_set_enabled>
10002202:	485c      	ldr	r0, [pc, #368]	; (10002374 <main+0x368>)
10002204:	f8df 91e0 	ldr.w	r9, [pc, #480]	; 100023e8 <main+0x3dc>
10002208:	4601      	mov	r1, r0
1000220a:	f880 b000 	strb.w	fp, [r0]
1000220e:	4620      	mov	r0, r4
10002210:	f7fe f87e 	bl	10000310 <_ZN6VibeUi4initEP4Vibe>
10002214:	2000      	movs	r0, #0
10002216:	f04f 0c02 	mov.w	ip, #2
1000221a:	4a65      	ldr	r2, [pc, #404]	; (100023b0 <main+0x3a4>)
1000221c:	f04f 4300 	mov.w	r3, #2147483648	; 0x80000000
10002220:	6010      	str	r0, [r2, #0]
10002222:	4a64      	ldr	r2, [pc, #400]	; (100023b4 <main+0x3a8>)
10002224:	f04f 0e10 	mov.w	lr, #16
10002228:	6010      	str	r0, [r2, #0]
1000222a:	4a63      	ldr	r2, [pc, #396]	; (100023b8 <main+0x3ac>)
1000222c:	2120      	movs	r1, #32
1000222e:	f8c2 c000 	str.w	ip, [r2]
10002232:	4a62      	ldr	r2, [pc, #392]	; (100023bc <main+0x3b0>)
10002234:	f889 0000 	strb.w	r0, [r9]
10002238:	f889 0001 	strb.w	r0, [r9, #1]
1000223c:	7010      	strb	r0, [r2, #0]
1000223e:	7050      	strb	r0, [r2, #1]
10002240:	2040      	movs	r0, #64	; 0x40
10002242:	f8da 2000 	ldr.w	r2, [sl]
10002246:	f8df c1a4 	ldr.w	ip, [pc, #420]	; 100023ec <main+0x3e0>
1000224a:	f022 0201 	bic.w	r2, r2, #1
1000224e:	f8ca 2000 	str.w	r2, [sl]
10002252:	f8da 2000 	ldr.w	r2, [sl]
10002256:	eddf 9a5a 	vldr	s19, [pc, #360]	; 100023c0 <main+0x3b4>
1000225a:	f022 0202 	bic.w	r2, r2, #2
1000225e:	f8ca 2000 	str.w	r2, [sl]
10002262:	f8da 2000 	ldr.w	r2, [sl]
10002266:	ed9f 9a65 	vldr	s18, [pc, #404]	; 100023fc <main+0x3f0>
1000226a:	f022 0204 	bic.w	r2, r2, #4
1000226e:	f8ca 2000 	str.w	r2, [sl]
10002272:	4a54      	ldr	r2, [pc, #336]	; (100023c4 <main+0x3b8>)
10002274:	f8cc 3000 	str.w	r3, [ip]
10002278:	f8cc 3000 	str.w	r3, [ip]
1000227c:	f8cc 3018 	str.w	r3, [ip, #24]
10002280:	f8cc 3018 	str.w	r3, [ip, #24]
10002284:	f8c2 e000 	str.w	lr, [r2]
10002288:	6011      	str	r1, [r2, #0]
1000228a:	4941      	ldr	r1, [pc, #260]	; (10002390 <main+0x384>)
1000228c:	6010      	str	r0, [r2, #0]
1000228e:	4b44      	ldr	r3, [pc, #272]	; (100023a0 <main+0x394>)
10002290:	680a      	ldr	r2, [r1, #0]
10002292:	681b      	ldr	r3, [r3, #0]
10002294:	0192      	lsls	r2, r2, #6
10002296:	f102 42a0 	add.w	r2, r2, #1342177280	; 0x50000000
1000229a:	f5a5 7180 	sub.w	r1, r5, #256	; 0x100
1000229e:	6051      	str	r1, [r2, #4]
100022a0:	019b      	lsls	r3, r3, #6
100022a2:	61d0      	str	r0, [r2, #28]
100022a4:	4a3f      	ldr	r2, [pc, #252]	; (100023a4 <main+0x398>)
100022a6:	f103 43a0 	add.w	r3, r3, #1342177280	; 0x50000000
100022aa:	601a      	str	r2, [r3, #0]
100022ac:	61d8      	str	r0, [r3, #28]
100022ae:	f8da 3000 	ldr.w	r3, [sl]
100022b2:	ed9f aa45 	vldr	s20, [pc, #276]	; 100023c8 <main+0x3bc>
100022b6:	f043 0302 	orr.w	r3, r3, #2
100022ba:	f8ca 3000 	str.w	r3, [sl]
100022be:	f8da 3000 	ldr.w	r3, [sl]
100022c2:	4e42      	ldr	r6, [pc, #264]	; (100023cc <main+0x3c0>)
100022c4:	f043 0304 	orr.w	r3, r3, #4
100022c8:	f8ca 3000 	str.w	r3, [sl]
100022cc:	f8da 3000 	ldr.w	r3, [sl]
100022d0:	f8df 811c 	ldr.w	r8, [pc, #284]	; 100023f0 <main+0x3e4>
100022d4:	ea43 030b 	orr.w	r3, r3, fp
100022d8:	f8ca 3000 	str.w	r3, [sl]
100022dc:	f001 fd2e 	bl	10003d3c <time_us_64>
100022e0:	468b      	mov	fp, r1
100022e2:	4f3b      	ldr	r7, [pc, #236]	; (100023d0 <main+0x3c4>)
100022e4:	9003      	str	r0, [sp, #12]
100022e6:	eddf 8a3b 	vldr	s17, [pc, #236]	; 100023d4 <main+0x3c8>
100022ea:	ed9f 8a3b 	vldr	s16, [pc, #236]	; 100023d8 <main+0x3cc>
100022ee:	6823      	ldr	r3, [r4, #0]
100022f0:	2b00      	cmp	r3, #0
100022f2:	f000 81b1 	beq.w	10002658 <main+0x64c>
100022f6:	f04f 0e01 	mov.w	lr, #1
100022fa:	f04f 4a50 	mov.w	sl, #3489660928	; 0xd0000000
100022fe:	4a1c      	ldr	r2, [pc, #112]	; (10002370 <main+0x364>)
10002300:	f894 c00e 	ldrb.w	ip, [r4, #14]
10002304:	6a91      	ldr	r1, [r2, #40]	; 0x28
10002306:	6862      	ldr	r2, [r4, #4]
10002308:	f00c 0c0f 	and.w	ip, ip, #15
1000230c:	9202      	str	r2, [sp, #8]
1000230e:	4a33      	ldr	r2, [pc, #204]	; (100023dc <main+0x3d0>)
10002310:	68a0      	ldr	r0, [r4, #8]
10002312:	eb02 0c8c 	add.w	ip, r2, ip, lsl #2
10002316:	9a02      	ldr	r2, [sp, #8]
10002318:	fa0e f000 	lsl.w	r0, lr, r0
1000231c:	fa0e f202 	lsl.w	r2, lr, r2
10002320:	f8da e004 	ldr.w	lr, [sl, #4]
10002324:	ea12 0f0e 	tst.w	r2, lr
10002328:	f8da 2004 	ldr.w	r2, [sl, #4]
1000232c:	bf14      	ite	ne
1000232e:	f04f 0e01 	movne.w	lr, #1
10002332:	f04f 0e00 	moveq.w	lr, #0
10002336:	4210      	tst	r0, r2
10002338:	bf14      	ite	ne
1000233a:	2201      	movne	r2, #1
1000233c:	2200      	moveq	r2, #0
1000233e:	ea42 024e 	orr.w	r2, r2, lr, lsl #1
10002342:	f81c 0002 	ldrb.w	r0, [ip, r2]
10002346:	7362      	strb	r2, [r4, #13]
10002348:	06c2      	lsls	r2, r0, #27
1000234a:	73a0      	strb	r0, [r4, #14]
1000234c:	f100 81ad 	bmi.w	100026aa <main+0x69e>
10002350:	0682      	lsls	r2, r0, #26
10002352:	f140 813d 	bpl.w	100025d0 <main+0x5c4>
10002356:	eeb7 7a00 	vmov.f32	s14, #112	; 0x3f800000  1.0
1000235a:	eeff 7a00 	vmov.f32	s15, #240	; 0xbf800000 -1.0
1000235e:	7b22      	ldrb	r2, [r4, #12]
10002360:	2a00      	cmp	r2, #0
10002362:	6a62      	ldr	r2, [r4, #36]	; 0x24
10002364:	fe47 7a87 	vseleq.f32	s15, s15, s14
10002368:	2a00      	cmp	r2, #0
1000236a:	f040 81aa 	bne.w	100026c2 <main+0x6b6>
1000236e:	e04b      	b.n	10002408 <main+0x3fc>
10002370:	400b0000 	.word	0x400b0000
10002374:	20001d2c 	.word	0x20001d2c
10002378:	100090b8 	.word	0x100090b8
1000237c:	100090b0 	.word	0x100090b0
10002380:	20001814 	.word	0x20001814
10002384:	100090a8 	.word	0x100090a8
10002388:	40060000 	.word	0x40060000
1000238c:	00100012 	.word	0x00100012
10002390:	20001190 	.word	0x20001190
10002394:	2000236c 	.word	0x2000236c
10002398:	fc01fffd 	.word	0xfc01fffd
1000239c:	50200028 	.word	0x50200028
100023a0:	20001194 	.word	0x20001194
100023a4:	20001c28 	.word	0x20001c28
100023a8:	50200014 	.word	0x50200014
100023ac:	10000229 	.word	0x10000229
100023b0:	20001c1c 	.word	0x20001c1c
100023b4:	20001d28 	.word	0x20001d28
100023b8:	20001198 	.word	0x20001198
100023bc:	20001c24 	.word	0x20001c24
100023c0:	3c23d70a 	.word	0x3c23d70a
100023c4:	50202000 	.word	0x50202000
100023c8:	4afffffe 	.word	0x4afffffe
100023cc:	20001b14 	.word	0x20001b14
100023d0:	20002524 	.word	0x20002524
100023d4:	3ba3d70a 	.word	0x3ba3d70a
100023d8:	00000000 	.word	0x00000000
100023dc:	1000906c 	.word	0x1000906c
100023e0:	50200000 	.word	0x50200000
100023e4:	50002000 	.word	0x50002000
100023e8:	20001c20 	.word	0x20001c20
100023ec:	502010e8 	.word	0x502010e8
100023f0:	20002424 	.word	0x20002424
100023f4:	413fae14 	.word	0x413fae14
100023f8:	3e6147ae 	.word	0x3e6147ae
100023fc:	3ca3d70a 	.word	0x3ca3d70a
10002400:	3f266666 	.word	0x3f266666
10002404:	3d4ccccd 	.word	0x3d4ccccd
10002408:	eef7 5a00 	vmov.f32	s11, #112	; 0x3f800000  1.0
1000240c:	eef0 4a65 	vmov.f32	s9, s11
10002410:	6261      	str	r1, [r4, #36]	; 0x24
10002412:	7f22      	ldrb	r2, [r4, #28]
10002414:	2a00      	cmp	r2, #0
10002416:	f040 8172 	bne.w	100026fe <main+0x6f2>
1000241a:	ed93 7a0c 	vldr	s14, [r3, #48]	; 0x30
1000241e:	ed5f 6a0b 	vldr	s13, [pc, #-44]	; 100023f4 <main+0x3e8>
10002422:	ee37 6a49 	vsub.f32	s12, s14, s18
10002426:	eec6 5a26 	vdiv.f32	s11, s12, s13
1000242a:	eef5 5ac0 	vcmpe.f32	s11, #0.0
1000242e:	eef1 fa10 	vmrs	APSR_nzcv, fpscr
10002432:	f100 83f7 	bmi.w	10002c24 <main+0xc18>
10002436:	eef7 6a00 	vmov.f32	s13, #112	; 0x3f800000  1.0
1000243a:	eef4 5ae6 	vcmpe.f32	s11, s13
1000243e:	eef1 fa10 	vmrs	APSR_nzcv, fpscr
10002442:	f340 8393 	ble.w	10002b6c <main+0xb60>
10002446:	ed5f 6a14 	vldr	s13, [pc, #-80]	; 100023f8 <main+0x3ec>
1000244a:	ee66 6aa7 	vmul.f32	s13, s13, s15
1000244e:	eef0 7a47 	vmov.f32	s15, s14
10002452:	eee4 7aa6 	vfma.f32	s15, s9, s13
10002456:	eef4 7ac9 	vcmpe.f32	s15, s18
1000245a:	eef1 fa10 	vmrs	APSR_nzcv, fpscr
1000245e:	f140 83cf 	bpl.w	10002c00 <main+0xbf4>
10002462:	ed5f 7a1a 	vldr	s15, [pc, #-104]	; 100023fc <main+0x3f0>
10002466:	edd3 6a05 	vldr	s13, [r3, #20]
1000246a:	eef5 6ac0 	vcmpe.f32	s13, #0.0
1000246e:	eef1 fa10 	vmrs	APSR_nzcv, fpscr
10002472:	f100 83c2 	bmi.w	10002bfa <main+0xbee>
10002476:	eeb7 7a00 	vmov.f32	s14, #112	; 0x3f800000  1.0
1000247a:	eef4 6a47 	vcmp.f32	s13, s14
1000247e:	eef1 fa10 	vmrs	APSR_nzcv, fpscr
10002482:	fe77 6a26 	vselgt.f32	s13, s14, s13
10002486:	ed93 7a06 	vldr	s14, [r3, #24]
1000248a:	eeb5 7ac0 	vcmpe.f32	s14, #0.0
1000248e:	eef1 fa10 	vmrs	APSR_nzcv, fpscr
10002492:	edc3 6a05 	vstr	s13, [r3, #20]
10002496:	f100 83ad 	bmi.w	10002bf4 <main+0xbe8>
1000249a:	ed5f 6a27 	vldr	s13, [pc, #-156]	; 10002400 <main+0x3f4>
1000249e:	eeb4 7a66 	vcmp.f32	s14, s13
100024a2:	eef1 fa10 	vmrs	APSR_nzcv, fpscr
100024a6:	fe36 7a87 	vselgt.f32	s14, s13, s14
100024aa:	edd3 6a07 	vldr	s13, [r3, #28]
100024ae:	eef5 6ac0 	vcmpe.f32	s13, #0.0
100024b2:	eef1 fa10 	vmrs	APSR_nzcv, fpscr
100024b6:	ed83 7a06 	vstr	s14, [r3, #24]
100024ba:	f100 8398 	bmi.w	10002bee <main+0xbe2>
100024be:	eeb7 7a00 	vmov.f32	s14, #112	; 0x3f800000  1.0
100024c2:	eef4 6a47 	vcmp.f32	s13, s14
100024c6:	eef1 fa10 	vmrs	APSR_nzcv, fpscr
100024ca:	fe77 6a26 	vselgt.f32	s13, s14, s13
100024ce:	ed93 7a08 	vldr	s14, [r3, #32]
100024d2:	eeb6 6a00 	vmov.f32	s12, #96	; 0x3f000000  0.5
100024d6:	eeb4 7ac6 	vcmpe.f32	s14, s12
100024da:	eef1 fa10 	vmrs	APSR_nzcv, fpscr
100024de:	edc3 6a07 	vstr	s13, [r3, #28]
100024e2:	f100 8381 	bmi.w	10002be8 <main+0xbdc>
100024e6:	eef1 6a08 	vmov.f32	s13, #24	; 0x40c00000  6.0
100024ea:	eeb4 7a66 	vcmp.f32	s14, s13
100024ee:	eef1 fa10 	vmrs	APSR_nzcv, fpscr
100024f2:	fe36 7a87 	vselgt.f32	s14, s13, s14
100024f6:	edd3 6a09 	vldr	s13, [r3, #36]	; 0x24
100024fa:	eeb5 6a00 	vmov.f32	s12, #80	; 0x3e800000  0.250
100024fe:	eef4 6ac6 	vcmpe.f32	s13, s12
10002502:	eef1 fa10 	vmrs	APSR_nzcv, fpscr
10002506:	ed83 7a08 	vstr	s14, [r3, #32]
1000250a:	f100 836a 	bmi.w	10002be2 <main+0xbd6>
1000250e:	eeb0 7a00 	vmov.f32	s14, #0	; 0x40000000  2.0
10002512:	eef4 6a47 	vcmp.f32	s13, s14
10002516:	eef1 fa10 	vmrs	APSR_nzcv, fpscr
1000251a:	fe77 6a26 	vselgt.f32	s13, s14, s13
1000251e:	ed93 7a0a 	vldr	s14, [r3, #40]	; 0x28
10002522:	eeb5 7ac0 	vcmpe.f32	s14, #0.0
10002526:	eef1 fa10 	vmrs	APSR_nzcv, fpscr
1000252a:	edc3 6a09 	vstr	s13, [r3, #36]	; 0x24
1000252e:	f100 8355 	bmi.w	10002bdc <main+0xbd0>
10002532:	eef7 6a00 	vmov.f32	s13, #112	; 0x3f800000  1.0
10002536:	eeb4 7a66 	vcmp.f32	s14, s13
1000253a:	eef1 fa10 	vmrs	APSR_nzcv, fpscr
1000253e:	fe36 7a87 	vselgt.f32	s14, s13, s14
10002542:	edd3 6a0b 	vldr	s13, [r3, #44]	; 0x2c
10002546:	eeb4 7ae6 	vcmpe.f32	s14, s13
1000254a:	eef1 fa10 	vmrs	APSR_nzcv, fpscr
1000254e:	ed83 7a0a 	vstr	s14, [r3, #40]	; 0x28
10002552:	dc07      	bgt.n	10002564 <main+0x558>
10002554:	eeb7 7a00 	vmov.f32	s14, #112	; 0x3f800000  1.0
10002558:	eef4 6ac7 	vcmpe.f32	s13, s14
1000255c:	eef1 fa10 	vmrs	APSR_nzcv, fpscr
10002560:	fe37 7a26 	vselgt.f32	s14, s14, s13
10002564:	eef4 7ac9 	vcmpe.f32	s15, s18
10002568:	eef1 fa10 	vmrs	APSR_nzcv, fpscr
1000256c:	ed83 7a0b 	vstr	s14, [r3, #44]	; 0x2c
10002570:	f100 8331 	bmi.w	10002bd6 <main+0xbca>
10002574:	eeb2 7a08 	vmov.f32	s14, #40	; 0x41400000  12.0
10002578:	eef4 7a47 	vcmp.f32	s15, s14
1000257c:	eef1 fa10 	vmrs	APSR_nzcv, fpscr
10002580:	fe77 7a27 	vselgt.f32	s15, s14, s15
10002584:	ed93 7a0d 	vldr	s14, [r3, #52]	; 0x34
10002588:	eeb5 7ac0 	vcmpe.f32	s14, #0.0
1000258c:	eef1 fa10 	vmrs	APSR_nzcv, fpscr
10002590:	edc3 7a0c 	vstr	s15, [r3, #48]	; 0x30
10002594:	f100 8304 	bmi.w	10002ba0 <main+0xb94>
10002598:	ed5f 7a66 	vldr	s15, [pc, #-408]	; 10002404 <main+0x3f8>
1000259c:	eeb4 7a67 	vcmp.f32	s14, s15
100025a0:	eef1 fa10 	vmrs	APSR_nzcv, fpscr
100025a4:	fe37 7a87 	vselgt.f32	s14, s15, s14
100025a8:	edd3 7a0e 	vldr	s15, [r3, #56]	; 0x38
100025ac:	eef4 7ae8 	vcmpe.f32	s15, s17
100025b0:	eef1 fa10 	vmrs	APSR_nzcv, fpscr
100025b4:	ed83 7a0d 	vstr	s14, [r3, #52]	; 0x34
100025b8:	f100 82ef 	bmi.w	10002b9a <main+0xb8e>
100025bc:	eeb6 7a00 	vmov.f32	s14, #96	; 0x3f000000  0.5
100025c0:	eef4 7a47 	vcmp.f32	s15, s14
100025c4:	eef1 fa10 	vmrs	APSR_nzcv, fpscr
100025c8:	fe77 7a27 	vselgt.f32	s15, s14, s15
100025cc:	edc3 7a0e 	vstr	s15, [r3, #56]	; 0x38
100025d0:	f04f 4050 	mov.w	r0, #3489660928	; 0xd0000000
100025d4:	f04f 0e01 	mov.w	lr, #1
100025d8:	6922      	ldr	r2, [r4, #16]
100025da:	6840      	ldr	r0, [r0, #4]
100025dc:	fa0e f202 	lsl.w	r2, lr, r2
100025e0:	4002      	ands	r2, r0
100025e2:	bf0c      	ite	eq
100025e4:	4670      	moveq	r0, lr
100025e6:	2000      	movne	r0, #0
100025e8:	f894 c015 	ldrb.w	ip, [r4, #21]
100025ec:	4584      	cmp	ip, r0
100025ee:	f000 81b3 	beq.w	10002958 <main+0x94c>
100025f2:	f894 e014 	ldrb.w	lr, [r4, #20]
100025f6:	7560      	strb	r0, [r4, #21]
100025f8:	61a1      	str	r1, [r4, #24]
100025fa:	f1be 0f00 	cmp.w	lr, #0
100025fe:	d003      	beq.n	10002608 <main+0x5fc>
10002600:	7f62      	ldrb	r2, [r4, #29]
10002602:	2a00      	cmp	r2, #0
10002604:	f000 8346 	beq.w	10002c94 <main+0xc88>
10002608:	f894 302a 	ldrb.w	r3, [r4, #42]	; 0x2a
1000260c:	2b00      	cmp	r3, #0
1000260e:	f040 81bb 	bne.w	10002988 <main+0x97c>
10002612:	f894 2028 	ldrb.w	r2, [r4, #40]	; 0x28
10002616:	2306      	movs	r3, #6
10002618:	ec42 3040 	gpioc_bit_out_put r3, r2
1000261c:	f894 3032 	ldrb.w	r3, [r4, #50]	; 0x32
10002620:	2b00      	cmp	r3, #0
10002622:	f000 812a 	beq.w	1000287a <main+0x86e>
10002626:	6b62      	ldr	r2, [r4, #52]	; 0x34
10002628:	1a89      	subs	r1, r1, r2
1000262a:	2900      	cmp	r1, #0
1000262c:	f2c0 829b 	blt.w	10002b66 <main+0xb5a>
10002630:	f502 329c 	add.w	r2, r2, #79872	; 0x13800
10002634:	3280      	adds	r2, #128	; 0x80
10002636:	6362      	str	r2, [r4, #52]	; 0x34
10002638:	f894 2031 	ldrb.w	r2, [r4, #49]	; 0x31
1000263c:	3b01      	subs	r3, #1
1000263e:	b2db      	uxtb	r3, r3
10002640:	f082 0201 	eor.w	r2, r2, #1
10002644:	f884 3032 	strb.w	r3, [r4, #50]	; 0x32
10002648:	f884 2031 	strb.w	r2, [r4, #49]	; 0x31
1000264c:	2b00      	cmp	r3, #0
1000264e:	f000 8114 	beq.w	1000287a <main+0x86e>
10002652:	2307      	movs	r3, #7
10002654:	ec42 3040 	gpioc_bit_out_put r3, r2
10002658:	f899 3000 	ldrb.w	r3, [r9]
1000265c:	f003 02ff 	and.w	r2, r3, #255	; 0xff
10002660:	2b00      	cmp	r3, #0
10002662:	f040 810d 	bne.w	10002880 <main+0x874>
10002666:	f899 3001 	ldrb.w	r3, [r9, #1]
1000266a:	2b00      	cmp	r3, #0
1000266c:	f040 81cc 	bne.w	10002a08 <main+0x9fc>
10002670:	f001 fb64 	bl	10003d3c <time_us_64>
10002674:	f04f 0c00 	mov.w	ip, #0
10002678:	9b03      	ldr	r3, [sp, #12]
1000267a:	4ad0      	ldr	r2, [pc, #832]	; (100029bc <main+0x9b0>)
1000267c:	1ac0      	subs	r0, r0, r3
1000267e:	eb61 010b 	sbc.w	r1, r1, fp
10002682:	4282      	cmp	r2, r0
10002684:	eb7c 0301 	sbcs.w	r3, ip, r1
10002688:	f6bf ae31 	bge.w	100022ee <main+0x2e2>
1000268c:	f001 fb56 	bl	10003d3c <time_us_64>
10002690:	4684      	mov	ip, r0
10002692:	4bcb      	ldr	r3, [pc, #812]	; (100029c0 <main+0x9b4>)
10002694:	4acb      	ldr	r2, [pc, #812]	; (100029c4 <main+0x9b8>)
10002696:	681b      	ldr	r3, [r3, #0]
10002698:	468b      	mov	fp, r1
1000269a:	6812      	ldr	r2, [r2, #0]
1000269c:	4619      	mov	r1, r3
1000269e:	48ca      	ldr	r0, [pc, #808]	; (100029c8 <main+0x9bc>)
100026a0:	f8cd c00c 	str.w	ip, [sp, #12]
100026a4:	f003 fe4c 	bl	10006340 <__wrap_printf>
100026a8:	e61d      	b.n	100022e6 <main+0x2da>
100026aa:	eebf 7a00 	vmov.f32	s14, #240	; 0xbf800000 -1.0
100026ae:	eef7 7a00 	vmov.f32	s15, #112	; 0x3f800000  1.0
100026b2:	7b22      	ldrb	r2, [r4, #12]
100026b4:	2a00      	cmp	r2, #0
100026b6:	6a62      	ldr	r2, [r4, #36]	; 0x24
100026b8:	fe47 7a87 	vseleq.f32	s15, s15, s14
100026bc:	2a00      	cmp	r2, #0
100026be:	f43f aea3 	beq.w	10002408 <main+0x3fc>
100026c2:	1a8a      	subs	r2, r1, r2
100026c4:	6261      	str	r1, [r4, #36]	; 0x24
100026c6:	d012      	beq.n	100026ee <main+0x6e2>
100026c8:	f642 60df 	movw	r0, #11999	; 0x2edf
100026cc:	4282      	cmp	r2, r0
100026ce:	f240 82ac 	bls.w	10002c2a <main+0xc1e>
100026d2:	f245 50ef 	movw	r0, #21999	; 0x55ef
100026d6:	4282      	cmp	r2, r0
100026d8:	f240 82b0 	bls.w	10002c3c <main+0xc30>
100026dc:	f64a 70c7 	movw	r0, #44999	; 0xafc7
100026e0:	4282      	cmp	r2, r0
100026e2:	f240 82cb 	bls.w	10002c7c <main+0xc70>
100026e6:	48b9      	ldr	r0, [pc, #740]	; (100029cc <main+0x9c0>)
100026e8:	4282      	cmp	r2, r0
100026ea:	f240 82cd 	bls.w	10002c88 <main+0xc7c>
100026ee:	eef7 5a00 	vmov.f32	s11, #112	; 0x3f800000  1.0
100026f2:	7f22      	ldrb	r2, [r4, #28]
100026f4:	eef0 4a65 	vmov.f32	s9, s11
100026f8:	2a00      	cmp	r2, #0
100026fa:	f43f ae8e 	beq.w	1000241a <main+0x40e>
100026fe:	ed93 7a05 	vldr	s14, [r3, #20]
10002702:	eeb5 7ac0 	vcmpe.f32	s14, #0.0
10002706:	eef1 fa10 	vmrs	APSR_nzcv, fpscr
1000270a:	f140 829d 	bpl.w	10002c48 <main+0xc3c>
1000270e:	eeb0 6a69 	vmov.f32	s12, s19
10002712:	ee66 7a27 	vmul.f32	s15, s12, s15
10002716:	eea7 7aa5 	vfma.f32	s14, s15, s11
1000271a:	eeb5 7ac0 	vcmpe.f32	s14, #0.0
1000271e:	eef1 fa10 	vmrs	APSR_nzcv, fpscr
10002722:	f140 824f 	bpl.w	10002bc4 <main+0xbb8>
10002726:	ed9f 7aaa 	vldr	s14, [pc, #680]	; 100029d0 <main+0x9c4>
1000272a:	edd3 7a06 	vldr	s15, [r3, #24]
1000272e:	eef5 7ac0 	vcmpe.f32	s15, #0.0
10002732:	eef1 fa10 	vmrs	APSR_nzcv, fpscr
10002736:	ed83 7a05 	vstr	s14, [r3, #20]
1000273a:	f100 8240 	bmi.w	10002bbe <main+0xbb2>
1000273e:	ed9f 7aa5 	vldr	s14, [pc, #660]	; 100029d4 <main+0x9c8>
10002742:	eef4 7a47 	vcmp.f32	s15, s14
10002746:	eef1 fa10 	vmrs	APSR_nzcv, fpscr
1000274a:	fe77 7a27 	vselgt.f32	s15, s14, s15
1000274e:	ed93 7a07 	vldr	s14, [r3, #28]
10002752:	eeb5 7ac0 	vcmpe.f32	s14, #0.0
10002756:	eef1 fa10 	vmrs	APSR_nzcv, fpscr
1000275a:	edc3 7a06 	vstr	s15, [r3, #24]
1000275e:	f100 822b 	bmi.w	10002bb8 <main+0xbac>
10002762:	eef7 7a00 	vmov.f32	s15, #112	; 0x3f800000  1.0
10002766:	eeb4 7a67 	vcmp.f32	s14, s15
1000276a:	eef1 fa10 	vmrs	APSR_nzcv, fpscr
1000276e:	fe37 7a87 	vselgt.f32	s14, s15, s14
10002772:	edd3 7a08 	vldr	s15, [r3, #32]
10002776:	eef6 6a00 	vmov.f32	s13, #96	; 0x3f000000  0.5
1000277a:	eef4 7ae6 	vcmpe.f32	s15, s13
1000277e:	eef1 fa10 	vmrs	APSR_nzcv, fpscr
10002782:	ed83 7a07 	vstr	s14, [r3, #28]
10002786:	f100 8214 	bmi.w	10002bb2 <main+0xba6>
1000278a:	eeb1 7a08 	vmov.f32	s14, #24	; 0x40c00000  6.0
1000278e:	eef4 7a47 	vcmp.f32	s15, s14
10002792:	eef1 fa10 	vmrs	APSR_nzcv, fpscr
10002796:	fe77 7a27 	vselgt.f32	s15, s14, s15
1000279a:	ed93 7a09 	vldr	s14, [r3, #36]	; 0x24
1000279e:	eef5 6a00 	vmov.f32	s13, #80	; 0x3e800000  0.250
100027a2:	eeb4 7ae6 	vcmpe.f32	s14, s13
100027a6:	eef1 fa10 	vmrs	APSR_nzcv, fpscr
100027aa:	edc3 7a08 	vstr	s15, [r3, #32]
100027ae:	f100 81fd 	bmi.w	10002bac <main+0xba0>
100027b2:	eef0 7a00 	vmov.f32	s15, #0	; 0x40000000  2.0
100027b6:	eeb4 7a67 	vcmp.f32	s14, s15
100027ba:	eef1 fa10 	vmrs	APSR_nzcv, fpscr
100027be:	fe37 7a87 	vselgt.f32	s14, s15, s14
100027c2:	edd3 7a0a 	vldr	s15, [r3, #40]	; 0x28
100027c6:	eef5 7ac0 	vcmpe.f32	s15, #0.0
100027ca:	eef1 fa10 	vmrs	APSR_nzcv, fpscr
100027ce:	ed83 7a09 	vstr	s14, [r3, #36]	; 0x24
100027d2:	f100 81e8 	bmi.w	10002ba6 <main+0xb9a>
100027d6:	eeb7 7a00 	vmov.f32	s14, #112	; 0x3f800000  1.0
100027da:	eef4 7a47 	vcmp.f32	s15, s14
100027de:	eef1 fa10 	vmrs	APSR_nzcv, fpscr
100027e2:	fe77 7a27 	vselgt.f32	s15, s14, s15
100027e6:	ed93 7a0b 	vldr	s14, [r3, #44]	; 0x2c
100027ea:	eef4 7ac7 	vcmpe.f32	s15, s14
100027ee:	eef1 fa10 	vmrs	APSR_nzcv, fpscr
100027f2:	edc3 7a0a 	vstr	s15, [r3, #40]	; 0x28
100027f6:	dc07      	bgt.n	10002808 <main+0x7fc>
100027f8:	eef7 7a00 	vmov.f32	s15, #112	; 0x3f800000  1.0
100027fc:	eeb4 7ae7 	vcmpe.f32	s14, s15
10002800:	eef1 fa10 	vmrs	APSR_nzcv, fpscr
10002804:	fe77 7a87 	vselgt.f32	s15, s15, s14
10002808:	ed93 7a0c 	vldr	s14, [r3, #48]	; 0x30
1000280c:	eeb4 7ac9 	vcmpe.f32	s14, s18
10002810:	eef1 fa10 	vmrs	APSR_nzcv, fpscr
10002814:	edc3 7a0b 	vstr	s15, [r3, #44]	; 0x2c
10002818:	f100 8201 	bmi.w	10002c1e <main+0xc12>
1000281c:	eef2 7a08 	vmov.f32	s15, #40	; 0x41400000  12.0
10002820:	eeb4 7a67 	vcmp.f32	s14, s15
10002824:	eef1 fa10 	vmrs	APSR_nzcv, fpscr
10002828:	fe37 7a87 	vselgt.f32	s14, s15, s14
1000282c:	edd3 7a0d 	vldr	s15, [r3, #52]	; 0x34
10002830:	eef5 7ac0 	vcmpe.f32	s15, #0.0
10002834:	eef1 fa10 	vmrs	APSR_nzcv, fpscr
10002838:	ed83 7a0c 	vstr	s14, [r3, #48]	; 0x30
1000283c:	f100 81ec 	bmi.w	10002c18 <main+0xc0c>
10002840:	ed9f 7a65 	vldr	s14, [pc, #404]	; 100029d8 <main+0x9cc>
10002844:	eef4 7a47 	vcmp.f32	s15, s14
10002848:	eef1 fa10 	vmrs	APSR_nzcv, fpscr
1000284c:	fe77 7a27 	vselgt.f32	s15, s14, s15
10002850:	ed93 7a0e 	vldr	s14, [r3, #56]	; 0x38
10002854:	eeb4 7ae8 	vcmpe.f32	s14, s17
10002858:	eef1 fa10 	vmrs	APSR_nzcv, fpscr
1000285c:	edc3 7a0d 	vstr	s15, [r3, #52]	; 0x34
10002860:	f100 81d7 	bmi.w	10002c12 <main+0xc06>
10002864:	eef6 7a00 	vmov.f32	s15, #96	; 0x3f000000  0.5
10002868:	eeb4 7a67 	vcmp.f32	s14, s15
1000286c:	eef1 fa10 	vmrs	APSR_nzcv, fpscr
10002870:	fe37 7a87 	vselgt.f32	s14, s15, s14
10002874:	ed83 7a0e 	vstr	s14, [r3, #56]	; 0x38
10002878:	e6aa      	b.n	100025d0 <main+0x5c4>
1000287a:	f894 2030 	ldrb.w	r2, [r4, #48]	; 0x30
1000287e:	e6e8      	b.n	10002652 <main+0x646>
10002880:	f3bf 8f5f 	dmb	sy
10002884:	2300      	movs	r3, #0
10002886:	eddf 6a5f 	vldr	s13, [pc, #380]	; 10002a04 <main+0x9f8>
1000288a:	f889 3000 	strb.w	r3, [r9]
1000288e:	4853      	ldr	r0, [pc, #332]	; (100029dc <main+0x9d0>)
10002890:	4b53      	ldr	r3, [pc, #332]	; (100029e0 <main+0x9d4>)
10002892:	4954      	ldr	r1, [pc, #336]	; (100029e4 <main+0x9d8>)
10002894:	681a      	ldr	r2, [r3, #0]
10002896:	3308      	adds	r3, #8
10002898:	1212      	asrs	r2, r2, #8
1000289a:	ee07 2a10 	vmov	s14, r2
1000289e:	f853 2c04 	ldr.w	r2, [r3, #-4]
100028a2:	eeb8 7ac7 	vcvt.f32.s32	s14, s14
100028a6:	1212      	asrs	r2, r2, #8
100028a8:	ee07 2a90 	vmov	s15, r2
100028ac:	eef8 7ae7 	vcvt.f32.s32	s15, s15
100028b0:	ee27 7a26 	vmul.f32	s14, s14, s13
100028b4:	ee67 7aa6 	vmul.f32	s15, s15, s13
100028b8:	429d      	cmp	r5, r3
100028ba:	eca0 7a01 	vstmia	r0!, {s14}
100028be:	ece1 7a01 	vstmia	r1!, {s15}
100028c2:	d1e7      	bne.n	10002894 <main+0x888>
100028c4:	4a47      	ldr	r2, [pc, #284]	; (100029e4 <main+0x9d8>)
100028c6:	4945      	ldr	r1, [pc, #276]	; (100029dc <main+0x9d0>)
100028c8:	4847      	ldr	r0, [pc, #284]	; (100029e8 <main+0x9dc>)
100028ca:	f7fe fbc3 	bl	10001054 <_ZN4Vibe3outEPfS0_>
100028ce:	eeb7 7a00 	vmov.f32	s14, #112	; 0x3f800000  1.0
100028d2:	eeff 6a00 	vmov.f32	s13, #240	; 0xbf800000 -1.0
100028d6:	4945      	ldr	r1, [pc, #276]	; (100029ec <main+0x9e0>)
100028d8:	4b45      	ldr	r3, [pc, #276]	; (100029f0 <main+0x9e4>)
100028da:	4a46      	ldr	r2, [pc, #280]	; (100029f4 <main+0x9e8>)
100028dc:	f8df c11c 	ldr.w	ip, [pc, #284]	; 100029fc <main+0x9f0>
100028e0:	f8df e11c 	ldr.w	lr, [pc, #284]	; 10002a00 <main+0x9f4>
100028e4:	e00d      	b.n	10002902 <main+0x8f6>
100028e6:	4660      	mov	r0, ip
100028e8:	ecf2 7a01 	vldmia	r2!, {s15}
100028ec:	eef4 7ac7 	vcmpe.f32	s15, s14
100028f0:	eef1 fa10 	vmrs	APSR_nzcv, fpscr
100028f4:	6018      	str	r0, [r3, #0]
100028f6:	dd1a      	ble.n	1000292e <main+0x922>
100028f8:	4660      	mov	r0, ip
100028fa:	6058      	str	r0, [r3, #4]
100028fc:	3308      	adds	r3, #8
100028fe:	429e      	cmp	r6, r3
10002900:	d024      	beq.n	1000294c <main+0x940>
10002902:	ecf1 7a01 	vldmia	r1!, {s15}
10002906:	eef4 7ac7 	vcmpe.f32	s15, s14
1000290a:	eef1 fa10 	vmrs	APSR_nzcv, fpscr
1000290e:	dcea      	bgt.n	100028e6 <main+0x8da>
10002910:	eef4 7ae6 	vcmpe.f32	s15, s13
10002914:	eef1 fa10 	vmrs	APSR_nzcv, fpscr
10002918:	bf48      	it	mi
1000291a:	4670      	movmi	r0, lr
1000291c:	d4e4      	bmi.n	100028e8 <main+0x8dc>
1000291e:	ee67 7a8a 	vmul.f32	s15, s15, s20
10002922:	eefd 7ae7 	vcvt.s32.f32	s15, s15
10002926:	ee17 0a90 	vmov	r0, s15
1000292a:	0200      	lsls	r0, r0, #8
1000292c:	e7dc      	b.n	100028e8 <main+0x8dc>
1000292e:	eef4 7ae6 	vcmpe.f32	s15, s13
10002932:	eef1 fa10 	vmrs	APSR_nzcv, fpscr
10002936:	bf48      	it	mi
10002938:	4670      	movmi	r0, lr
1000293a:	d4de      	bmi.n	100028fa <main+0x8ee>
1000293c:	ee67 7a8a 	vmul.f32	s15, s15, s20
10002940:	eefd 7ae7 	vcvt.s32.f32	s15, s15
10002944:	ee17 0a90 	vmov	r0, s15
10002948:	0200      	lsls	r0, r0, #8
1000294a:	e7d6      	b.n	100028fa <main+0x8ee>
1000294c:	f3bf 8f5f 	dmb	sy
10002950:	2301      	movs	r3, #1
10002952:	4a29      	ldr	r2, [pc, #164]	; (100029f8 <main+0x9ec>)
10002954:	7013      	strb	r3, [r2, #0]
10002956:	e68b      	b.n	10002670 <main+0x664>
10002958:	f894 e014 	ldrb.w	lr, [r4, #20]
1000295c:	45f4      	cmp	ip, lr
1000295e:	f43f ae4c 	beq.w	100025fa <main+0x5ee>
10002962:	f643 2a97 	movw	sl, #14999	; 0x3a97
10002966:	69a0      	ldr	r0, [r4, #24]
10002968:	1a08      	subs	r0, r1, r0
1000296a:	4550      	cmp	r0, sl
1000296c:	f67f ae45 	bls.w	100025fa <main+0x5ee>
10002970:	f884 c014 	strb.w	ip, [r4, #20]
10002974:	2a00      	cmp	r2, #0
10002976:	f040 80b6 	bne.w	10002ae6 <main+0xada>
1000297a:	f894 302a 	ldrb.w	r3, [r4, #42]	; 0x2a
1000297e:	7762      	strb	r2, [r4, #29]
10002980:	6221      	str	r1, [r4, #32]
10002982:	2b00      	cmp	r3, #0
10002984:	f43f ae45 	beq.w	10002612 <main+0x606>
10002988:	6ae0      	ldr	r0, [r4, #44]	; 0x2c
1000298a:	f894 2029 	ldrb.w	r2, [r4, #41]	; 0x29
1000298e:	eba1 0c00 	sub.w	ip, r1, r0
10002992:	f1bc 0f00 	cmp.w	ip, #0
10002996:	f6ff ae3e 	blt.w	10002616 <main+0x60a>
1000299a:	3b01      	subs	r3, #1
1000299c:	f500 309c 	add.w	r0, r0, #79872	; 0x13800
100029a0:	f082 0201 	eor.w	r2, r2, #1
100029a4:	b2db      	uxtb	r3, r3
100029a6:	3080      	adds	r0, #128	; 0x80
100029a8:	62e0      	str	r0, [r4, #44]	; 0x2c
100029aa:	f884 2029 	strb.w	r2, [r4, #41]	; 0x29
100029ae:	f884 302a 	strb.w	r3, [r4, #42]	; 0x2a
100029b2:	2b00      	cmp	r3, #0
100029b4:	f47f ae2f 	bne.w	10002616 <main+0x60a>
100029b8:	e62b      	b.n	10002612 <main+0x606>
100029ba:	bf00      	nop
100029bc:	000f4240 	.word	0x000f4240
100029c0:	20001c14 	.word	0x20001c14
100029c4:	20001c18 	.word	0x20001c18
100029c8:	10009048 	.word	0x10009048
100029cc:	0001387f 	.word	0x0001387f
100029d0:	00000000 	.word	0x00000000
100029d4:	3f266666 	.word	0x3f266666
100029d8:	3d4ccccd 	.word	0x3d4ccccd
100029dc:	200023a4 	.word	0x200023a4
100029e0:	20001814 	.word	0x20001814
100029e4:	20002424 	.word	0x20002424
100029e8:	20001d2c 	.word	0x20001d2c
100029ec:	200024a4 	.word	0x200024a4
100029f0:	20001a14 	.word	0x20001a14
100029f4:	20002524 	.word	0x20002524
100029f8:	20001c24 	.word	0x20001c24
100029fc:	7fffff00 	.word	0x7fffff00
10002a00:	80000100 	.word	0x80000100
10002a04:	34000000 	.word	0x34000000
10002a08:	f3bf 8f5f 	dmb	sy
10002a0c:	ed5f 6a03 	vldr	s13, [pc, #-12]	; 10002a04 <main+0x9f8>
10002a10:	4bc3      	ldr	r3, [pc, #780]	; (10002d20 <main+0xd14>)
10002a12:	49c4      	ldr	r1, [pc, #784]	; (10002d24 <main+0xd18>)
10002a14:	48c4      	ldr	r0, [pc, #784]	; (10002d28 <main+0xd1c>)
10002a16:	f889 2001 	strb.w	r2, [r9, #1]
10002a1a:	f8d3 2100 	ldr.w	r2, [r3, #256]	; 0x100
10002a1e:	3308      	adds	r3, #8
10002a20:	1212      	asrs	r2, r2, #8
10002a22:	ee07 2a10 	vmov	s14, r2
10002a26:	f8d3 20fc 	ldr.w	r2, [r3, #252]	; 0xfc
10002a2a:	eeb8 7ac7 	vcvt.f32.s32	s14, s14
10002a2e:	1212      	asrs	r2, r2, #8
10002a30:	ee07 2a90 	vmov	s15, r2
10002a34:	ee27 7a26 	vmul.f32	s14, s14, s13
10002a38:	eef8 7ae7 	vcvt.f32.s32	s15, s15
10002a3c:	eca1 7a01 	vstmia	r1!, {s14}
10002a40:	ee67 7aa6 	vmul.f32	s15, s15, s13
10002a44:	4588      	cmp	r8, r1
10002a46:	ece0 7a01 	vstmia	r0!, {s15}
10002a4a:	d1e6      	bne.n	10002a1a <main+0xa0e>
10002a4c:	4ab6      	ldr	r2, [pc, #728]	; (10002d28 <main+0xd1c>)
10002a4e:	49b5      	ldr	r1, [pc, #724]	; (10002d24 <main+0xd18>)
10002a50:	48b6      	ldr	r0, [pc, #728]	; (10002d2c <main+0xd20>)
10002a52:	f7fe faff 	bl	10001054 <_ZN4Vibe3outEPfS0_>
10002a56:	eeb7 7a00 	vmov.f32	s14, #112	; 0x3f800000  1.0
10002a5a:	eeff 6a00 	vmov.f32	s13, #240	; 0xbf800000 -1.0
10002a5e:	4ab4      	ldr	r2, [pc, #720]	; (10002d30 <main+0xd24>)
10002a60:	4bb4      	ldr	r3, [pc, #720]	; (10002d34 <main+0xd28>)
10002a62:	49b5      	ldr	r1, [pc, #724]	; (10002d38 <main+0xd2c>)
10002a64:	f8df c304 	ldr.w	ip, [pc, #772]	; 10002d6c <main+0xd60>
10002a68:	f8df e304 	ldr.w	lr, [pc, #772]	; 10002d70 <main+0xd64>
10002a6c:	e010      	b.n	10002a90 <main+0xa84>
10002a6e:	4660      	mov	r0, ip
10002a70:	ecf1 7a01 	vldmia	r1!, {s15}
10002a74:	eef4 7ac7 	vcmpe.f32	s15, s14
10002a78:	eef1 fa10 	vmrs	APSR_nzcv, fpscr
10002a7c:	f8c3 0100 	str.w	r0, [r3, #256]	; 0x100
10002a80:	dd1c      	ble.n	10002abc <main+0xab0>
10002a82:	4660      	mov	r0, ip
10002a84:	42ba      	cmp	r2, r7
10002a86:	f8c3 0104 	str.w	r0, [r3, #260]	; 0x104
10002a8a:	f103 0308 	add.w	r3, r3, #8
10002a8e:	d024      	beq.n	10002ada <main+0xace>
10002a90:	ecf2 7a01 	vldmia	r2!, {s15}
10002a94:	eef4 7ac7 	vcmpe.f32	s15, s14
10002a98:	eef1 fa10 	vmrs	APSR_nzcv, fpscr
10002a9c:	dce7      	bgt.n	10002a6e <main+0xa62>
10002a9e:	eef4 7ae6 	vcmpe.f32	s15, s13
10002aa2:	eef1 fa10 	vmrs	APSR_nzcv, fpscr
10002aa6:	bf48      	it	mi
10002aa8:	4670      	movmi	r0, lr
10002aaa:	d4e1      	bmi.n	10002a70 <main+0xa64>
10002aac:	ee67 7a8a 	vmul.f32	s15, s15, s20
10002ab0:	eefd 7ae7 	vcvt.s32.f32	s15, s15
10002ab4:	ee17 0a90 	vmov	r0, s15
10002ab8:	0200      	lsls	r0, r0, #8
10002aba:	e7d9      	b.n	10002a70 <main+0xa64>
10002abc:	eef4 7ae6 	vcmpe.f32	s15, s13
10002ac0:	eef1 fa10 	vmrs	APSR_nzcv, fpscr
10002ac4:	bf48      	it	mi
10002ac6:	4670      	movmi	r0, lr
10002ac8:	d4dc      	bmi.n	10002a84 <main+0xa78>
10002aca:	ee67 7a8a 	vmul.f32	s15, s15, s20
10002ace:	eefd 7ae7 	vcvt.s32.f32	s15, s15
10002ad2:	ee17 0a90 	vmov	r0, s15
10002ad6:	0200      	lsls	r0, r0, #8
10002ad8:	e7d4      	b.n	10002a84 <main+0xa78>
10002ada:	f3bf 8f5f 	dmb	sy
10002ade:	2301      	movs	r3, #1
10002ae0:	4a96      	ldr	r2, [pc, #600]	; (10002d3c <main+0xd30>)
10002ae2:	7053      	strb	r3, [r2, #1]
10002ae4:	e5c4      	b.n	10002670 <main+0x664>
10002ae6:	7f62      	ldrb	r2, [r4, #29]
10002ae8:	2a00      	cmp	r2, #0
10002aea:	f47f ad8d 	bne.w	10002608 <main+0x5fc>
10002aee:	f04f 0201 	mov.w	r2, #1
10002af2:	7f20      	ldrb	r0, [r4, #28]
10002af4:	f884 202a 	strb.w	r2, [r4, #42]	; 0x2a
10002af8:	781b      	ldrb	r3, [r3, #0]
10002afa:	f894 2028 	ldrb.w	r2, [r4, #40]	; 0x28
10002afe:	f080 0001 	eor.w	r0, r0, #1
10002b02:	7720      	strb	r0, [r4, #28]
10002b04:	f884 0028 	strb.w	r0, [r4, #40]	; 0x28
10002b08:	f501 309c 	add.w	r0, r1, #79872	; 0x13800
10002b0c:	f083 0301 	eor.w	r3, r3, #1
10002b10:	f082 0201 	eor.w	r2, r2, #1
10002b14:	3080      	adds	r0, #128	; 0x80
10002b16:	62e0      	str	r0, [r4, #44]	; 0x2c
10002b18:	f884 3030 	strb.w	r3, [r4, #48]	; 0x30
10002b1c:	2006      	movs	r0, #6
10002b1e:	f884 2029 	strb.w	r2, [r4, #41]	; 0x29
10002b22:	ec42 0040 	gpioc_bit_out_put r0, r2
10002b26:	f894 0032 	ldrb.w	r0, [r4, #50]	; 0x32
10002b2a:	b1c0      	cbz	r0, 10002b5e <main+0xb52>
10002b2c:	f8d4 c034 	ldr.w	ip, [r4, #52]	; 0x34
10002b30:	eba1 0e0c 	sub.w	lr, r1, ip
10002b34:	f1be 0f00 	cmp.w	lr, #0
10002b38:	db7d      	blt.n	10002c36 <main+0xc2a>
10002b3a:	f50c 3c9c 	add.w	ip, ip, #79872	; 0x13800
10002b3e:	f10c 0c80 	add.w	ip, ip, #128	; 0x80
10002b42:	f8c4 c034 	str.w	ip, [r4, #52]	; 0x34
10002b46:	f894 c031 	ldrb.w	ip, [r4, #49]	; 0x31
10002b4a:	3801      	subs	r0, #1
10002b4c:	b2c0      	uxtb	r0, r0
10002b4e:	f08c 0c01 	eor.w	ip, ip, #1
10002b52:	f884 0032 	strb.w	r0, [r4, #50]	; 0x32
10002b56:	f884 c031 	strb.w	ip, [r4, #49]	; 0x31
10002b5a:	b100      	cbz	r0, 10002b5e <main+0xb52>
10002b5c:	4663      	mov	r3, ip
10002b5e:	2007      	movs	r0, #7
10002b60:	ec43 0040 	gpioc_bit_out_put r0, r3
10002b64:	e557      	b.n	10002616 <main+0x60a>
10002b66:	f894 2031 	ldrb.w	r2, [r4, #49]	; 0x31
10002b6a:	e572      	b.n	10002652 <main+0x646>
10002b6c:	eeb0 3a00 	vmov.f32	s6, #0	; 0x40000000  2.0
10002b70:	eeb0 6a08 	vmov.f32	s12, #8	; 0x40400000  3.0
10002b74:	ee65 3aa5 	vmul.f32	s7, s11, s11
10002b78:	eea5 6ac3 	vfms.f32	s12, s11, s6
10002b7c:	ed9f 4a70 	vldr	s8, [pc, #448]	; 10002d40 <main+0xd34>
10002b80:	ee26 6a23 	vmul.f32	s12, s12, s7
10002b84:	eddf 6a6f 	vldr	s13, [pc, #444]	; 10002d44 <main+0xd38>
10002b88:	ed9f 5a6f 	vldr	s10, [pc, #444]	; 10002d48 <main+0xd3c>
10002b8c:	eee6 6a04 	vfma.f32	s13, s12, s8
10002b90:	ee66 5a05 	vmul.f32	s11, s12, s10
10002b94:	eee5 6a86 	vfma.f32	s13, s11, s12
10002b98:	e457      	b.n	1000244a <main+0x43e>
10002b9a:	eddf 7a6c 	vldr	s15, [pc, #432]	; 10002d4c <main+0xd40>
10002b9e:	e515      	b.n	100025cc <main+0x5c0>
10002ba0:	eeb0 7a48 	vmov.f32	s14, s16
10002ba4:	e500      	b.n	100025a8 <main+0x59c>
10002ba6:	eddf 7a6a 	vldr	s15, [pc, #424]	; 10002d50 <main+0xd44>
10002baa:	e61c      	b.n	100027e6 <main+0x7da>
10002bac:	eeb0 7a66 	vmov.f32	s14, s13
10002bb0:	e607      	b.n	100027c2 <main+0x7b6>
10002bb2:	eef0 7a66 	vmov.f32	s15, s13
10002bb6:	e5f0      	b.n	1000279a <main+0x78e>
10002bb8:	ed9f 7a65 	vldr	s14, [pc, #404]	; 10002d50 <main+0xd44>
10002bbc:	e5d9      	b.n	10002772 <main+0x766>
10002bbe:	eef0 7a48 	vmov.f32	s15, s16
10002bc2:	e5c4      	b.n	1000274e <main+0x742>
10002bc4:	eef7 7a00 	vmov.f32	s15, #112	; 0x3f800000  1.0
10002bc8:	eeb4 7a67 	vcmp.f32	s14, s15
10002bcc:	eef1 fa10 	vmrs	APSR_nzcv, fpscr
10002bd0:	fe37 7a87 	vselgt.f32	s14, s15, s14
10002bd4:	e5a9      	b.n	1000272a <main+0x71e>
10002bd6:	eddf 7a5f 	vldr	s15, [pc, #380]	; 10002d54 <main+0xd48>
10002bda:	e4d3      	b.n	10002584 <main+0x578>
10002bdc:	ed9f 7a5c 	vldr	s14, [pc, #368]	; 10002d50 <main+0xd44>
10002be0:	e4af      	b.n	10002542 <main+0x536>
10002be2:	eef0 6a46 	vmov.f32	s13, s12
10002be6:	e49a      	b.n	1000251e <main+0x512>
10002be8:	eeb0 7a46 	vmov.f32	s14, s12
10002bec:	e483      	b.n	100024f6 <main+0x4ea>
10002bee:	eddf 6a58 	vldr	s13, [pc, #352]	; 10002d50 <main+0xd44>
10002bf2:	e46c      	b.n	100024ce <main+0x4c2>
10002bf4:	eeb0 7a48 	vmov.f32	s14, s16
10002bf8:	e457      	b.n	100024aa <main+0x49e>
10002bfa:	eddf 6a55 	vldr	s13, [pc, #340]	; 10002d50 <main+0xd44>
10002bfe:	e442      	b.n	10002486 <main+0x47a>
10002c00:	eeb2 7a08 	vmov.f32	s14, #40	; 0x41400000  12.0
10002c04:	eef4 7a47 	vcmp.f32	s15, s14
10002c08:	eef1 fa10 	vmrs	APSR_nzcv, fpscr
10002c0c:	fe77 7a27 	vselgt.f32	s15, s14, s15
10002c10:	e429      	b.n	10002466 <main+0x45a>
10002c12:	ed9f 7a4e 	vldr	s14, [pc, #312]	; 10002d4c <main+0xd40>
10002c16:	e62d      	b.n	10002874 <main+0x868>
10002c18:	eef0 7a48 	vmov.f32	s15, s16
10002c1c:	e618      	b.n	10002850 <main+0x844>
10002c1e:	ed9f 7a4d 	vldr	s14, [pc, #308]	; 10002d54 <main+0xd48>
10002c22:	e603      	b.n	1000282c <main+0x820>
10002c24:	eddf 6a47 	vldr	s13, [pc, #284]	; 10002d44 <main+0xd38>
10002c28:	e40f      	b.n	1000244a <main+0x43e>
10002c2a:	eddf 5a4b 	vldr	s11, [pc, #300]	; 10002d58 <main+0xd4c>
10002c2e:	eef1 4a00 	vmov.f32	s9, #16	; 0x40800000  4.0
10002c32:	f7ff bbee 	b.w	10002412 <main+0x406>
10002c36:	f894 c031 	ldrb.w	ip, [r4, #49]	; 0x31
10002c3a:	e78f      	b.n	10002b5c <main+0xb50>
10002c3c:	eddf 5a47 	vldr	s11, [pc, #284]	; 10002d5c <main+0xd50>
10002c40:	eef0 4a08 	vmov.f32	s9, #8	; 0x40400000  3.0
10002c44:	f7ff bbe5 	b.w	10002412 <main+0x406>
10002c48:	eef7 6a00 	vmov.f32	s13, #112	; 0x3f800000  1.0
10002c4c:	eeb4 7ae6 	vcmpe.f32	s14, s13
10002c50:	eef1 fa10 	vmrs	APSR_nzcv, fpscr
10002c54:	bfc8      	it	gt
10002c56:	eeb0 6a49 	vmovgt.f32	s12, s18
10002c5a:	f73f ad5a 	bgt.w	10002712 <main+0x706>
10002c5e:	eef0 4a00 	vmov.f32	s9, #0	; 0x40000000  2.0
10002c62:	eef0 6a08 	vmov.f32	s13, #8	; 0x40400000  3.0
10002c66:	ee27 5a07 	vmul.f32	s10, s14, s14
10002c6a:	eee7 6a64 	vfms.f32	s13, s14, s9
10002c6e:	eeb0 6a69 	vmov.f32	s12, s19
10002c72:	ee66 6a85 	vmul.f32	s13, s13, s10
10002c76:	eea6 6aa9 	vfma.f32	s12, s13, s19
10002c7a:	e54a      	b.n	10002712 <main+0x706>
10002c7c:	eddf 5a38 	vldr	s11, [pc, #224]	; 10002d60 <main+0xd54>
10002c80:	eef0 4a00 	vmov.f32	s9, #0	; 0x40000000  2.0
10002c84:	f7ff bbc5 	b.w	10002412 <main+0x406>
10002c88:	eddf 5a36 	vldr	s11, [pc, #216]	; 10002d64 <main+0xd58>
10002c8c:	eddf 4a36 	vldr	s9, [pc, #216]	; 10002d68 <main+0xd5c>
10002c90:	f7ff bbbf 	b.w	10002412 <main+0x406>
10002c94:	6a20      	ldr	r0, [r4, #32]
10002c96:	f8df c0dc 	ldr.w	ip, [pc, #220]	; 10002d74 <main+0xd68>
10002c9a:	1a08      	subs	r0, r1, r0
10002c9c:	4560      	cmp	r0, ip
10002c9e:	f67f acb3 	bls.w	10002608 <main+0x5fc>
10002ca2:	f04f 0c01 	mov.w	ip, #1
10002ca6:	7818      	ldrb	r0, [r3, #0]
10002ca8:	ea80 000c 	eor.w	r0, r0, ip
10002cac:	7018      	strb	r0, [r3, #0]
10002cae:	f884 c01d 	strb.w	ip, [r4, #29]
10002cb2:	2800      	cmp	r0, #0
10002cb4:	d060      	beq.n	10002d78 <main+0xd6c>
10002cb6:	f501 339c 	add.w	r3, r1, #79872	; 0x13800
10002cba:	f894 0030 	ldrb.w	r0, [r4, #48]	; 0x30
10002cbe:	3380      	adds	r3, #128	; 0x80
10002cc0:	f884 c032 	strb.w	ip, [r4, #50]	; 0x32
10002cc4:	6363      	str	r3, [r4, #52]	; 0x34
10002cc6:	f894 c01c 	ldrb.w	ip, [r4, #28]
10002cca:	f894 302a 	ldrb.w	r3, [r4, #42]	; 0x2a
10002cce:	f080 0001 	eor.w	r0, r0, #1
10002cd2:	f884 0031 	strb.w	r0, [r4, #49]	; 0x31
10002cd6:	f884 c028 	strb.w	ip, [r4, #40]	; 0x28
10002cda:	f884 2030 	strb.w	r2, [r4, #48]	; 0x30
10002cde:	2b00      	cmp	r3, #0
10002ce0:	d062      	beq.n	10002da8 <main+0xd9c>
10002ce2:	6ae2      	ldr	r2, [r4, #44]	; 0x2c
10002ce4:	eba1 0e02 	sub.w	lr, r1, r2
10002ce8:	f1be 0f00 	cmp.w	lr, #0
10002cec:	db63      	blt.n	10002db6 <main+0xdaa>
10002cee:	f502 329c 	add.w	r2, r2, #79872	; 0x13800
10002cf2:	3280      	adds	r2, #128	; 0x80
10002cf4:	62e2      	str	r2, [r4, #44]	; 0x2c
10002cf6:	f894 2029 	ldrb.w	r2, [r4, #41]	; 0x29
10002cfa:	3b01      	subs	r3, #1
10002cfc:	b2db      	uxtb	r3, r3
10002cfe:	f082 0201 	eor.w	r2, r2, #1
10002d02:	f884 302a 	strb.w	r3, [r4, #42]	; 0x2a
10002d06:	f884 2029 	strb.w	r2, [r4, #41]	; 0x29
10002d0a:	2b00      	cmp	r3, #0
10002d0c:	d04c      	beq.n	10002da8 <main+0xd9c>
10002d0e:	f04f 0c06 	mov.w	ip, #6
10002d12:	ec42 c040 	gpioc_bit_out_put ip, r2
10002d16:	2207      	movs	r2, #7
10002d18:	ec40 2040 	gpioc_bit_out_put r2, r0
10002d1c:	e634      	b.n	10002988 <main+0x97c>
10002d1e:	bf00      	nop
10002d20:	20001814 	.word	0x20001814
10002d24:	200023a4 	.word	0x200023a4
10002d28:	20002424 	.word	0x20002424
10002d2c:	20001d2c 	.word	0x20001d2c
10002d30:	200024a4 	.word	0x200024a4
10002d34:	20001a14 	.word	0x20001a14
10002d38:	20002524 	.word	0x20002524
10002d3c:	20001c24 	.word	0x20001c24
10002d40:	3d4ccccd 	.word	0x3d4ccccd
10002d44:	3ccccccd 	.word	0x3ccccccd
10002d48:	3e147ae1 	.word	0x3e147ae1
10002d4c:	3ba3d70a 	.word	0x3ba3d70a
10002d50:	00000000 	.word	0x00000000
10002d54:	3ca3d70a 	.word	0x3ca3d70a
10002d58:	40033333 	.word	0x40033333
10002d5c:	3fd9999a 	.word	0x3fd9999a
10002d60:	3faccccd 	.word	0x3faccccd
10002d64:	3f91eb85 	.word	0x3f91eb85
10002d68:	3fb33333 	.word	0x3fb33333
10002d6c:	7fffff00 	.word	0x7fffff00
10002d70:	80000100 	.word	0x80000100
10002d74:	000aae5f 	.word	0x000aae5f
10002d78:	2303      	movs	r3, #3
10002d7a:	f884 3032 	strb.w	r3, [r4, #50]	; 0x32
10002d7e:	f501 339c 	add.w	r3, r1, #79872	; 0x13800
10002d82:	f894 0030 	ldrb.w	r0, [r4, #48]	; 0x30
10002d86:	3380      	adds	r3, #128	; 0x80
10002d88:	f894 c01c 	ldrb.w	ip, [r4, #28]
10002d8c:	9a04      	ldr	r2, [sp, #16]
10002d8e:	6363      	str	r3, [r4, #52]	; 0x34
10002d90:	f894 302a 	ldrb.w	r3, [r4, #42]	; 0x2a
10002d94:	f080 0001 	eor.w	r0, r0, #1
10002d98:	f884 0031 	strb.w	r0, [r4, #49]	; 0x31
10002d9c:	f884 c028 	strb.w	ip, [r4, #40]	; 0x28
10002da0:	f884 2030 	strb.w	r2, [r4, #48]	; 0x30
10002da4:	2b00      	cmp	r3, #0
10002da6:	d19c      	bne.n	10002ce2 <main+0xcd6>
10002da8:	2306      	movs	r3, #6
10002daa:	ec4c 3040 	gpioc_bit_out_put r3, ip
10002dae:	2307      	movs	r3, #7
10002db0:	ec40 3040 	gpioc_bit_out_put r3, r0
10002db4:	e42d      	b.n	10002612 <main+0x606>
10002db6:	f894 2029 	ldrb.w	r2, [r4, #41]	; 0x29
10002dba:	e7a8      	b.n	10002d0e <main+0xd02>

10002dbc <_GLOBAL__sub_I__ZN4VibeC2EPfS0_>:
10002dbc:	4a02      	ldr	r2, [pc, #8]	; (10002dc8 <_GLOBAL__sub_I__ZN4VibeC2EPfS0_+0xc>)
10002dbe:	4903      	ldr	r1, [pc, #12]	; (10002dcc <_GLOBAL__sub_I__ZN4VibeC2EPfS0_+0x10>)
10002dc0:	4803      	ldr	r0, [pc, #12]	; (10002dd0 <_GLOBAL__sub_I__ZN4VibeC2EPfS0_+0x14>)
10002dc2:	f7fd be3b 	b.w	10000a3c <_ZN4VibeC1EPfS0_>
10002dc6:	bf00      	nop
10002dc8:	20002524 	.word	0x20002524
10002dcc:	200024a4 	.word	0x200024a4
10002dd0:	20001d2c 	.word	0x20001d2c

10002dd4 <gpio_set_function>:
10002dd4:	b410      	push	{r4}
10002dd6:	f44f 7480 	mov.w	r4, #256	; 0x100
10002dda:	4b0c      	ldr	r3, [pc, #48]	; (10002e0c <gpio_set_function+0x38>)
10002ddc:	f853 2020 	ldr.w	r2, [r3, r0, lsl #2]
10002de0:	eb03 0380 	add.w	r3, r3, r0, lsl #2
10002de4:	00c0      	lsls	r0, r0, #3
10002de6:	f082 0240 	eor.w	r2, r2, #64	; 0x40
10002dea:	f100 4080 	add.w	r0, r0, #1073741824	; 0x40000000
10002dee:	f503 5c80 	add.w	ip, r3, #4096	; 0x1000
10002df2:	f002 02c0 	and.w	r2, r2, #192	; 0xc0
10002df6:	f500 3020 	add.w	r0, r0, #163840	; 0x28000
10002dfa:	f503 5340 	add.w	r3, r3, #12288	; 0x3000
10002dfe:	f8cc 2000 	str.w	r2, [ip]
10002e02:	6041      	str	r1, [r0, #4]
10002e04:	601c      	str	r4, [r3, #0]
10002e06:	f85d 4b04 	ldr.w	r4, [sp], #4
10002e0a:	4770      	bx	lr
10002e0c:	40038004 	.word	0x40038004

10002e10 <gpio_set_pulls>:
10002e10:	2900      	cmp	r1, #0
10002e12:	bf15      	itete	ne
10002e14:	210c      	movne	r1, #12
10002e16:	2104      	moveq	r1, #4
10002e18:	f04f 0c08 	movne.w	ip, #8
10002e1c:	f04f 0c00 	moveq.w	ip, #0
10002e20:	2a00      	cmp	r2, #0
10002e22:	bf08      	it	eq
10002e24:	4661      	moveq	r1, ip
10002e26:	4b06      	ldr	r3, [pc, #24]	; (10002e40 <gpio_set_pulls+0x30>)
10002e28:	f853 2020 	ldr.w	r2, [r3, r0, lsl #2]
10002e2c:	eb03 0380 	add.w	r3, r3, r0, lsl #2
10002e30:	404a      	eors	r2, r1
10002e32:	f503 5380 	add.w	r3, r3, #4096	; 0x1000
10002e36:	f002 020c 	and.w	r2, r2, #12
10002e3a:	601a      	str	r2, [r3, #0]
10002e3c:	4770      	bx	lr
10002e3e:	bf00      	nop
10002e40:	40038004 	.word	0x40038004

10002e44 <gpio_init>:
10002e44:	b430      	push	{r4, r5}
10002e46:	2300      	movs	r3, #0
10002e48:	ec43 0044 	gpioc_bit_oe_put r0, r3
10002e4c:	ec43 0040 	gpioc_bit_out_put r0, r3
10002e50:	2505      	movs	r5, #5
10002e52:	f44f 7480 	mov.w	r4, #256	; 0x100
10002e56:	4b0b      	ldr	r3, [pc, #44]	; (10002e84 <gpio_init+0x40>)
10002e58:	00c2      	lsls	r2, r0, #3
10002e5a:	f853 1020 	ldr.w	r1, [r3, r0, lsl #2]
10002e5e:	eb03 0080 	add.w	r0, r3, r0, lsl #2
10002e62:	f081 0140 	eor.w	r1, r1, #64	; 0x40
10002e66:	f102 4380 	add.w	r3, r2, #1073741824	; 0x40000000
10002e6a:	f503 3320 	add.w	r3, r3, #163840	; 0x28000
10002e6e:	f001 02c0 	and.w	r2, r1, #192	; 0xc0
10002e72:	f500 5180 	add.w	r1, r0, #4096	; 0x1000
10002e76:	f500 5040 	add.w	r0, r0, #12288	; 0x3000
10002e7a:	600a      	str	r2, [r1, #0]
10002e7c:	605d      	str	r5, [r3, #4]
10002e7e:	6004      	str	r4, [r0, #0]
10002e80:	bc30      	pop	{r4, r5}
10002e82:	4770      	bx	lr
10002e84:	40038004 	.word	0x40038004

10002e88 <panic>:
10002e88:	b40f      	push	{r0, r1, r2, r3}
10002e8a:	b500      	push	{lr}
10002e8c:	b083      	sub	sp, #12
10002e8e:	9c04      	ldr	r4, [sp, #16]
10002e90:	4807      	ldr	r0, [pc, #28]	; (10002eb0 <panic+0x28>)
10002e92:	f003 f9d7 	bl	10006244 <__wrap_puts>
10002e96:	b13c      	cbz	r4, 10002ea8 <panic+0x20>
10002e98:	a905      	add	r1, sp, #20
10002e9a:	4620      	mov	r0, r4
10002e9c:	9101      	str	r1, [sp, #4]
10002e9e:	f003 f84f 	bl	10005f40 <weak_raw_vprintf>
10002ea2:	4804      	ldr	r0, [pc, #16]	; (10002eb4 <panic+0x2c>)
10002ea4:	f003 f9ce 	bl	10006244 <__wrap_puts>
10002ea8:	2001      	movs	r0, #1
10002eaa:	f003 f861 	bl	10005f70 <_exit>
10002eae:	bf00      	nop
10002eb0:	1000910c 	.word	0x1000910c
10002eb4:	1000911c 	.word	0x1000911c

10002eb8 <hw_claim_lock>:
10002eb8:	f3ef 8010 	mrs	r0, PRIMASK
10002ebc:	b672      	cpsid	i
10002ebe:	4b06      	ldr	r3, [pc, #24]	; (10002ed8 <hw_claim_lock+0x20>)
10002ec0:	e8d3 1fcf 	ldaexb	r1, [r3]
10002ec4:	2201      	movs	r2, #1
10002ec6:	2900      	cmp	r1, #0
10002ec8:	d1fa      	bne.n	10002ec0 <hw_claim_lock+0x8>
10002eca:	e8c3 2f41 	strexb	r1, r2, [r3]
10002ece:	2900      	cmp	r1, #0
10002ed0:	d1f6      	bne.n	10002ec0 <hw_claim_lock+0x8>
10002ed2:	f3bf 8f5f 	dmb	sy
10002ed6:	4770      	bx	lr
10002ed8:	20002753 	.word	0x20002753

10002edc <hw_claim_unlock>:
10002edc:	2300      	movs	r3, #0
10002ede:	4a03      	ldr	r2, [pc, #12]	; (10002eec <hw_claim_unlock+0x10>)
10002ee0:	e8c2 3f8f 	stlb	r3, [r2]
10002ee4:	f380 8810 	msr	PRIMASK, r0
10002ee8:	4770      	bx	lr
10002eea:	bf00      	nop
10002eec:	20002753 	.word	0x20002753

10002ef0 <hw_claim_or_assert>:
10002ef0:	b570      	push	{r4, r5, r6, lr}
10002ef2:	f3ef 8510 	mrs	r5, PRIMASK
10002ef6:	b672      	cpsid	i
10002ef8:	4c13      	ldr	r4, [pc, #76]	; (10002f48 <hw_claim_or_assert+0x58>)
10002efa:	e8d4 cfcf 	ldaexb	ip, [r4]
10002efe:	2601      	movs	r6, #1
10002f00:	f1bc 0f00 	cmp.w	ip, #0
10002f04:	d1f9      	bne.n	10002efa <hw_claim_or_assert+0xa>
10002f06:	e8c4 6f4c 	strexb	ip, r6, [r4]
10002f0a:	f1bc 0f00 	cmp.w	ip, #0
10002f0e:	d1f4      	bne.n	10002efa <hw_claim_or_assert+0xa>
10002f10:	f3bf 8f5f 	dmb	sy
10002f14:	f04f 0c01 	mov.w	ip, #1
10002f18:	ea4f 0ed1 	mov.w	lr, r1, lsr #3
10002f1c:	f001 0307 	and.w	r3, r1, #7
10002f20:	fa0c f303 	lsl.w	r3, ip, r3
10002f24:	f810 c00e 	ldrb.w	ip, [r0, lr]
10002f28:	ea1c 0603 	ands.w	r6, ip, r3
10002f2c:	d108      	bne.n	10002f40 <hw_claim_or_assert+0x50>
10002f2e:	ea4c 0303 	orr.w	r3, ip, r3
10002f32:	f800 300e 	strb.w	r3, [r0, lr]
10002f36:	e8c4 6f8f 	stlb	r6, [r4]
10002f3a:	f385 8810 	msr	PRIMASK, r5
10002f3e:	bd70      	pop	{r4, r5, r6, pc}
10002f40:	4610      	mov	r0, r2
10002f42:	f7ff ffa1 	bl	10002e88 <panic>
10002f46:	bf00      	nop
10002f48:	20002753 	.word	0x20002753

10002f4c <hw_claim_unused_from_range>:
10002f4c:	b5f8      	push	{r3, r4, r5, r6, r7, lr}
10002f4e:	f3ef 8510 	mrs	r5, PRIMASK
10002f52:	b672      	cpsid	i
10002f54:	4c23      	ldr	r4, [pc, #140]	; (10002fe4 <hw_claim_unused_from_range+0x98>)
10002f56:	e8d4 7fcf 	ldaexb	r7, [r4]
10002f5a:	2601      	movs	r6, #1
10002f5c:	2f00      	cmp	r7, #0
10002f5e:	d1fa      	bne.n	10002f56 <hw_claim_unused_from_range+0xa>
10002f60:	e8c4 6f47 	strexb	r7, r6, [r4]
10002f64:	2f00      	cmp	r7, #0
10002f66:	d1f6      	bne.n	10002f56 <hw_claim_unused_from_range+0xa>
10002f68:	f3bf 8f5f 	dmb	sy
10002f6c:	429a      	cmp	r2, r3
10002f6e:	d827      	bhi.n	10002fc0 <hw_claim_unused_from_range+0x74>
10002f70:	2601      	movs	r6, #1
10002f72:	08d7      	lsrs	r7, r2, #3
10002f74:	f810 e007 	ldrb.w	lr, [r0, r7]
10002f78:	f002 0c07 	and.w	ip, r2, #7
10002f7c:	fa06 fc0c 	lsl.w	ip, r6, ip
10002f80:	ea1e 0f0c 	tst.w	lr, ip
10002f84:	eb00 07d2 	add.w	r7, r0, r2, lsr #3
10002f88:	d10d      	bne.n	10002fa6 <hw_claim_unused_from_range+0x5a>
10002f8a:	e025      	b.n	10002fd8 <hw_claim_unused_from_range+0x8c>
10002f8c:	ea4f 0ed2 	mov.w	lr, r2, lsr #3
10002f90:	f810 e00e 	ldrb.w	lr, [r0, lr]
10002f94:	f002 0c07 	and.w	ip, r2, #7
10002f98:	fa06 fc0c 	lsl.w	ip, r6, ip
10002f9c:	ea1e 0f0c 	tst.w	lr, ip
10002fa0:	eb00 07d2 	add.w	r7, r0, r2, lsr #3
10002fa4:	d018      	beq.n	10002fd8 <hw_claim_unused_from_range+0x8c>
10002fa6:	3201      	adds	r2, #1
10002fa8:	4293      	cmp	r3, r2
10002faa:	d2ef      	bcs.n	10002f8c <hw_claim_unused_from_range+0x40>
10002fac:	f04f 30ff 	mov.w	r0, #4294967295
10002fb0:	2300      	movs	r3, #0
10002fb2:	e8c4 3f8f 	stlb	r3, [r4]
10002fb6:	f385 8810 	msr	PRIMASK, r5
10002fba:	4298      	cmp	r0, r3
10002fbc:	db07      	blt.n	10002fce <hw_claim_unused_from_range+0x82>
10002fbe:	bdf8      	pop	{r3, r4, r5, r6, r7, pc}
10002fc0:	2300      	movs	r3, #0
10002fc2:	e8c4 3f8f 	stlb	r3, [r4]
10002fc6:	f385 8810 	msr	PRIMASK, r5
10002fca:	f04f 30ff 	mov.w	r0, #4294967295
10002fce:	2900      	cmp	r1, #0
10002fd0:	d0f5      	beq.n	10002fbe <hw_claim_unused_from_range+0x72>
10002fd2:	9806      	ldr	r0, [sp, #24]
10002fd4:	f7ff ff58 	bl	10002e88 <panic>
10002fd8:	ea4e 0c0c 	orr.w	ip, lr, ip
10002fdc:	4610      	mov	r0, r2
10002fde:	f887 c000 	strb.w	ip, [r7]
10002fe2:	e7e5      	b.n	10002fb0 <hw_claim_unused_from_range+0x64>
10002fe4:	20002753 	.word	0x20002753

10002fe8 <next_striped_spin_lock_num>:
10002fe8:	4a04      	ldr	r2, [pc, #16]	; (10002ffc <next_striped_spin_lock_num+0x14>)
10002fea:	7810      	ldrb	r0, [r2, #0]
10002fec:	1c43      	adds	r3, r0, #1
10002fee:	b2db      	uxtb	r3, r3
10002ff0:	2b17      	cmp	r3, #23
10002ff2:	bf88      	it	hi
10002ff4:	2310      	movhi	r3, #16
10002ff6:	7013      	strb	r3, [r2, #0]
10002ff8:	4770      	bx	lr
10002ffa:	bf00      	nop
10002ffc:	2000119c 	.word	0x2000119c

10003000 <spin_lock_claim_unused>:
10003000:	b510      	push	{r4, lr}
10003002:	4c05      	ldr	r4, [pc, #20]	; (10003018 <spin_lock_claim_unused+0x18>)
10003004:	b082      	sub	sp, #8
10003006:	4601      	mov	r1, r0
10003008:	231f      	movs	r3, #31
1000300a:	2218      	movs	r2, #24
1000300c:	9400      	str	r4, [sp, #0]
1000300e:	4803      	ldr	r0, [pc, #12]	; (1000301c <spin_lock_claim_unused+0x1c>)
10003010:	f7ff ff9c 	bl	10002f4c <hw_claim_unused_from_range>
10003014:	b002      	add	sp, #8
10003016:	bd10      	pop	{r4, pc}
10003018:	10009120 	.word	0x10009120
1000301c:	20002b70 	.word	0x20002b70

10003020 <spinlock_set_extexclall>:
10003020:	f04f 22e0 	mov.w	r2, #3758153728	; 0xe000e000
10003024:	6893      	ldr	r3, [r2, #8]
10003026:	f043 5300 	orr.w	r3, r3, #536870912	; 0x20000000
1000302a:	6093      	str	r3, [r2, #8]
1000302c:	4770      	bx	lr
1000302e:	bf00      	nop

10003030 <spin_locks_reset>:
10003030:	2100      	movs	r1, #0
10003032:	4b04      	ldr	r3, [pc, #16]	; (10003044 <spin_locks_reset+0x14>)
10003034:	f103 0220 	add.w	r2, r3, #32
10003038:	e8c3 1f8f 	stlb	r1, [r3]
1000303c:	3301      	adds	r3, #1
1000303e:	4293      	cmp	r3, r2
10003040:	d1fa      	bne.n	10003038 <spin_locks_reset+0x8>
10003042:	4770      	bx	lr
10003044:	20002748 	.word	0x20002748

10003048 <runtime_init_per_core_irq_priorities>:
10003048:	f04f 23e0 	mov.w	r3, #3758153728	; 0xe000e000
1000304c:	f04f 3280 	mov.w	r2, #2155905152	; 0x80808080
10003050:	f8c3 2400 	str.w	r2, [r3, #1024]	; 0x400
10003054:	f8c3 2404 	str.w	r2, [r3, #1028]	; 0x404
10003058:	f8c3 2408 	str.w	r2, [r3, #1032]	; 0x408
1000305c:	f8c3 240c 	str.w	r2, [r3, #1036]	; 0x40c
10003060:	f8c3 2410 	str.w	r2, [r3, #1040]	; 0x410
10003064:	f8c3 2414 	str.w	r2, [r3, #1044]	; 0x414
10003068:	f8c3 2418 	str.w	r2, [r3, #1048]	; 0x418
1000306c:	f8c3 241c 	str.w	r2, [r3, #1052]	; 0x41c
10003070:	f8c3 2420 	str.w	r2, [r3, #1056]	; 0x420
10003074:	f8c3 2424 	str.w	r2, [r3, #1060]	; 0x424
10003078:	f8c3 2428 	str.w	r2, [r3, #1064]	; 0x428
1000307c:	f8c3 242c 	str.w	r2, [r3, #1068]	; 0x42c
10003080:	f8c3 2430 	str.w	r2, [r3, #1072]	; 0x430
10003084:	b662      	cpsie	i
10003086:	4770      	bx	lr

10003088 <irq_set_enabled>:
10003088:	2301      	movs	r3, #1
1000308a:	f000 021f 	and.w	r2, r0, #31
1000308e:	4093      	lsls	r3, r2
10003090:	0940      	lsrs	r0, r0, #5
10003092:	b141      	cbz	r1, 100030a6 <irq_set_enabled+0x1e>
10003094:	0080      	lsls	r0, r0, #2
10003096:	f100 4060 	add.w	r0, r0, #3758096384	; 0xe0000000
1000309a:	f500 4061 	add.w	r0, r0, #57600	; 0xe100
1000309e:	f8c0 3180 	str.w	r3, [r0, #384]	; 0x180
100030a2:	6003      	str	r3, [r0, #0]
100030a4:	4770      	bx	lr
100030a6:	4a02      	ldr	r2, [pc, #8]	; (100030b0 <irq_set_enabled+0x28>)
100030a8:	3020      	adds	r0, #32
100030aa:	f842 3020 	str.w	r3, [r2, r0, lsl #2]
100030ae:	4770      	bx	lr
100030b0:	e000e100 	.word	0xe000e100

100030b4 <irq_is_enabled>:
100030b4:	2301      	movs	r3, #1
100030b6:	4a06      	ldr	r2, [pc, #24]	; (100030d0 <irq_is_enabled+0x1c>)
100030b8:	0941      	lsrs	r1, r0, #5
100030ba:	f852 2021 	ldr.w	r2, [r2, r1, lsl #2]
100030be:	f000 001f 	and.w	r0, r0, #31
100030c2:	fa03 f000 	lsl.w	r0, r3, r0
100030c6:	4210      	tst	r0, r2
100030c8:	bf14      	ite	ne
100030ca:	4618      	movne	r0, r3
100030cc:	2000      	moveq	r0, #0
100030ce:	4770      	bx	lr
100030d0:	e000e100 	.word	0xe000e100

100030d4 <irq_set_pending>:
100030d4:	2201      	movs	r2, #1
100030d6:	0943      	lsrs	r3, r0, #5
100030d8:	4904      	ldr	r1, [pc, #16]	; (100030ec <irq_set_pending+0x18>)
100030da:	f000 001f 	and.w	r0, r0, #31
100030de:	fa02 f000 	lsl.w	r0, r2, r0
100030e2:	3340      	adds	r3, #64	; 0x40
100030e4:	f841 0023 	str.w	r0, [r1, r3, lsl #2]
100030e8:	4770      	bx	lr
100030ea:	bf00      	nop
100030ec:	e000e100 	.word	0xe000e100

100030f0 <irq_has_shared_handler>:
100030f0:	4a05      	ldr	r2, [pc, #20]	; (10003108 <irq_has_shared_handler+0x18>)
100030f2:	3010      	adds	r0, #16
100030f4:	6892      	ldr	r2, [r2, #8]
100030f6:	4b05      	ldr	r3, [pc, #20]	; (1000310c <irq_has_shared_handler+0x1c>)
100030f8:	f852 0020 	ldr.w	r0, [r2, r0, lsl #2]
100030fc:	1ac0      	subs	r0, r0, r3
100030fe:	282f      	cmp	r0, #47	; 0x2f
10003100:	bf8c      	ite	hi
10003102:	2000      	movhi	r0, #0
10003104:	2001      	movls	r0, #1
10003106:	4770      	bx	lr
10003108:	e000ed00 	.word	0xe000ed00
1000310c:	200011a0 	.word	0x200011a0

10003110 <irq_set_exclusive_handler>:
10003110:	b5f8      	push	{r3, r4, r5, r6, r7, lr}
10003112:	460d      	mov	r5, r1
10003114:	f3ef 8710 	mrs	r7, PRIMASK
10003118:	b672      	cpsid	i
1000311a:	4e12      	ldr	r6, [pc, #72]	; (10003164 <irq_set_exclusive_handler+0x54>)
1000311c:	e8d6 2fcf 	ldaexb	r2, [r6]
10003120:	2301      	movs	r3, #1
10003122:	2a00      	cmp	r2, #0
10003124:	d1fa      	bne.n	1000311c <irq_set_exclusive_handler+0xc>
10003126:	e8c6 3f42 	strexb	r2, r3, [r6]
1000312a:	2a00      	cmp	r2, #0
1000312c:	d1f6      	bne.n	1000311c <irq_set_exclusive_handler+0xc>
1000312e:	f3bf 8f5f 	dmb	sy
10003132:	4b0d      	ldr	r3, [pc, #52]	; (10003168 <irq_set_exclusive_handler+0x58>)
10003134:	f100 0410 	add.w	r4, r0, #16
10003138:	689b      	ldr	r3, [r3, #8]
1000313a:	4a0c      	ldr	r2, [pc, #48]	; (1000316c <irq_set_exclusive_handler+0x5c>)
1000313c:	f853 3024 	ldr.w	r3, [r3, r4, lsl #2]
10003140:	4293      	cmp	r3, r2
10003142:	d003      	beq.n	1000314c <irq_set_exclusive_handler+0x3c>
10003144:	4299      	cmp	r1, r3
10003146:	d001      	beq.n	1000314c <irq_set_exclusive_handler+0x3c>
10003148:	f001 f946 	bl	100043d8 <hard_assertion_failure>
1000314c:	4b06      	ldr	r3, [pc, #24]	; (10003168 <irq_set_exclusive_handler+0x58>)
1000314e:	689b      	ldr	r3, [r3, #8]
10003150:	f843 5024 	str.w	r5, [r3, r4, lsl #2]
10003154:	f3bf 8f5f 	dmb	sy
10003158:	2300      	movs	r3, #0
1000315a:	e8c6 3f8f 	stlb	r3, [r6]
1000315e:	f387 8810 	msr	PRIMASK, r7
10003162:	bdf8      	pop	{r3, r4, r5, r6, r7, pc}
10003164:	20002751 	.word	0x20002751
10003168:	e000ed00 	.word	0xe000ed00
1000316c:	10000111 	.word	0x10000111

10003170 <irq_add_shared_handler>:
10003170:	e92d 4ff0 	stmdb	sp!, {r4, r5, r6, r7, r8, r9, sl, fp, lr}
10003174:	4680      	mov	r8, r0
10003176:	468b      	mov	fp, r1
10003178:	4617      	mov	r7, r2
1000317a:	b083      	sub	sp, #12
1000317c:	f3ef 8310 	mrs	r3, PRIMASK
10003180:	b672      	cpsid	i
10003182:	f8df a1d0 	ldr.w	sl, [pc, #464]	; 10003354 <irq_add_shared_handler+0x1e4>
10003186:	9300      	str	r3, [sp, #0]
10003188:	e8da 1fcf 	ldaexb	r1, [sl]
1000318c:	2301      	movs	r3, #1
1000318e:	2900      	cmp	r1, #0
10003190:	d1fa      	bne.n	10003188 <irq_add_shared_handler+0x18>
10003192:	e8ca 3f41 	strexb	r1, r3, [sl]
10003196:	2900      	cmp	r1, #0
10003198:	d1f6      	bne.n	10003188 <irq_add_shared_handler+0x18>
1000319a:	f3bf 8f5f 	dmb	sy
1000319e:	4e66      	ldr	r6, [pc, #408]	; (10003338 <irq_add_shared_handler+0x1c8>)
100031a0:	f996 5000 	ldrsb.w	r5, [r6]
100031a4:	2d00      	cmp	r5, #0
100031a6:	f2c0 80a0 	blt.w	100032ea <irq_add_shared_handler+0x17a>
100031aa:	4c64      	ldr	r4, [pc, #400]	; (1000333c <irq_add_shared_handler+0x1cc>)
100031ac:	eb05 0345 	add.w	r3, r5, r5, lsl #1
100031b0:	eb04 0083 	add.w	r0, r4, r3, lsl #2
100031b4:	7981      	ldrb	r1, [r0, #6]
100031b6:	f108 0810 	add.w	r8, r8, #16
100031ba:	7031      	strb	r1, [r6, #0]
100031bc:	4960      	ldr	r1, [pc, #384]	; (10003340 <irq_add_shared_handler+0x1d0>)
100031be:	009b      	lsls	r3, r3, #2
100031c0:	6889      	ldr	r1, [r1, #8]
100031c2:	4699      	mov	r9, r3
100031c4:	f851 e028 	ldr.w	lr, [r1, r8, lsl #2]
100031c8:	4606      	mov	r6, r0
100031ca:	ebae 0104 	sub.w	r1, lr, r4
100031ce:	292f      	cmp	r1, #47	; 0x2f
100031d0:	ea4f 0245 	mov.w	r2, r5, lsl #1
100031d4:	d931      	bls.n	1000323a <irq_add_shared_handler+0xca>
100031d6:	4b5b      	ldr	r3, [pc, #364]	; (10003344 <irq_add_shared_handler+0x1d4>)
100031d8:	459e      	cmp	lr, r3
100031da:	f040 80a2 	bne.w	10003322 <irq_add_shared_handler+0x1b2>
100031de:	4b5a      	ldr	r3, [pc, #360]	; (10003348 <irq_add_shared_handler+0x1d8>)
100031e0:	f109 0902 	add.w	r9, r9, #2
100031e4:	44a1      	add	r9, r4
100031e6:	3b04      	subs	r3, #4
100031e8:	eba3 0309 	sub.w	r3, r3, r9
100031ec:	f3c3 034a 	ubfx	r3, r3, #1, #11
100031f0:	ea6f 43c3 	mvn.w	r3, r3, lsl #19
100031f4:	f44f 4121 	mov.w	r1, #41216	; 0xa100
100031f8:	ea6f 43d3 	mvn.w	r3, r3, lsr #19
100031fc:	4415      	add	r5, r2
100031fe:	f824 1025 	strh.w	r1, [r4, r5, lsl #2]
10003202:	eb04 0585 	add.w	r5, r4, r5, lsl #2
10003206:	806b      	strh	r3, [r5, #2]
10003208:	f64b 5301 	movw	r3, #48385	; 0xbd01
1000320c:	80ab      	strh	r3, [r5, #4]
1000320e:	23ff      	movs	r3, #255	; 0xff
10003210:	f046 0e01 	orr.w	lr, r6, #1
10003214:	71ef      	strb	r7, [r5, #7]
10003216:	f8c5 b008 	str.w	fp, [r5, #8]
1000321a:	71ab      	strb	r3, [r5, #6]
1000321c:	4b48      	ldr	r3, [pc, #288]	; (10003340 <irq_add_shared_handler+0x1d0>)
1000321e:	689b      	ldr	r3, [r3, #8]
10003220:	f843 e028 	str.w	lr, [r3, r8, lsl #2]
10003224:	f3bf 8f5f 	dmb	sy
10003228:	2300      	movs	r3, #0
1000322a:	e8ca 3f8f 	stlb	r3, [sl]
1000322e:	9b00      	ldr	r3, [sp, #0]
10003230:	f383 8810 	msr	PRIMASK, r3
10003234:	b003      	add	sp, #12
10003236:	e8bd 8ff0 	ldmia.w	sp!, {r4, r5, r6, r7, r8, r9, sl, fp, pc}
1000323a:	f02e 0101 	bic.w	r1, lr, #1
1000323e:	f891 c007 	ldrb.w	ip, [r1, #7]
10003242:	45bc      	cmp	ip, r7
10003244:	d82b      	bhi.n	1000329e <irq_add_shared_handler+0x12e>
10003246:	f44f 4621 	mov.w	r6, #41216	; 0xa100
1000324a:	52e6      	strh	r6, [r4, r3]
1000324c:	4b3e      	ldr	r3, [pc, #248]	; (10003348 <irq_add_shared_handler+0x1d8>)
1000324e:	f109 0602 	add.w	r6, r9, #2
10003252:	4426      	add	r6, r4
10003254:	3b04      	subs	r3, #4
10003256:	f109 0904 	add.w	r9, r9, #4
1000325a:	1b9b      	subs	r3, r3, r6
1000325c:	44a1      	add	r9, r4
1000325e:	1f0e      	subs	r6, r1, #4
10003260:	71c7      	strb	r7, [r0, #7]
10003262:	eba6 0609 	sub.w	r6, r6, r9
10003266:	4f39      	ldr	r7, [pc, #228]	; (1000334c <irq_add_shared_handler+0x1dc>)
10003268:	f3c6 064a 	ubfx	r6, r6, #1, #11
1000326c:	433e      	orrs	r6, r7
1000326e:	8086      	strh	r6, [r0, #4]
10003270:	f3c3 034a 	ubfx	r3, r3, #1, #11
10003274:	4e36      	ldr	r6, [pc, #216]	; (10003350 <irq_add_shared_handler+0x1e0>)
10003276:	433b      	orrs	r3, r7
10003278:	8043      	strh	r3, [r0, #2]
1000327a:	f64a 25aa 	movw	r5, #43690	; 0xaaaa
1000327e:	460b      	mov	r3, r1
10003280:	1b1b      	subs	r3, r3, r4
10003282:	415b      	adcs	r3, r3
10003284:	435d      	muls	r5, r3
10003286:	0d2d      	lsrs	r5, r5, #20
10003288:	f8c0 b008 	str.w	fp, [r0, #8]
1000328c:	7185      	strb	r5, [r0, #6]
1000328e:	f040 0e01 	orr.w	lr, r0, #1
10003292:	600e      	str	r6, [r1, #0]
10003294:	e7c2      	b.n	1000321c <irq_add_shared_handler+0xac>
10003296:	79c0      	ldrb	r0, [r0, #7]
10003298:	42b8      	cmp	r0, r7
1000329a:	d92b      	bls.n	100032f4 <irq_add_shared_handler+0x184>
1000329c:	4661      	mov	r1, ip
1000329e:	f991 3006 	ldrsb.w	r3, [r1, #6]
100032a2:	eb03 0043 	add.w	r0, r3, r3, lsl #1
100032a6:	eb04 0080 	add.w	r0, r4, r0, lsl #2
100032aa:	2b00      	cmp	r3, #0
100032ac:	4684      	mov	ip, r0
100032ae:	daf2      	bge.n	10003296 <irq_add_shared_handler+0x126>
100032b0:	f64b 5001 	movw	r0, #48385	; 0xbd01
100032b4:	9301      	str	r3, [sp, #4]
100032b6:	1d0b      	adds	r3, r1, #4
100032b8:	3e04      	subs	r6, #4
100032ba:	1af6      	subs	r6, r6, r3
100032bc:	f3c6 064a 	ubfx	r6, r6, #1, #11
100032c0:	ea6f 46c6 	mvn.w	r6, r6, lsl #19
100032c4:	ea6f 46d6 	mvn.w	r6, r6, lsr #19
100032c8:	eb02 0c05 	add.w	ip, r2, r5
100032cc:	f8df 9080 	ldr.w	r9, [pc, #128]	; 10003350 <irq_add_shared_handler+0x1e0>
100032d0:	9b01      	ldr	r3, [sp, #4]
100032d2:	718d      	strb	r5, [r1, #6]
100032d4:	eb04 058c 	add.w	r5, r4, ip, lsl #2
100032d8:	808e      	strh	r6, [r1, #4]
100032da:	f844 902c 	str.w	r9, [r4, ip, lsl #2]
100032de:	80a8      	strh	r0, [r5, #4]
100032e0:	71ab      	strb	r3, [r5, #6]
100032e2:	71ef      	strb	r7, [r5, #7]
100032e4:	f8c5 b008 	str.w	fp, [r5, #8]
100032e8:	e798      	b.n	1000321c <irq_add_shared_handler+0xac>
100032ea:	f001 f875 	bl	100043d8 <hard_assertion_failure>
100032ee:	f996 5000 	ldrsb.w	r5, [r6]
100032f2:	e75a      	b.n	100031aa <irq_add_shared_handler+0x3a>
100032f4:	8888      	ldrh	r0, [r1, #4]
100032f6:	9301      	str	r3, [sp, #4]
100032f8:	0540      	lsls	r0, r0, #21
100032fa:	f101 0304 	add.w	r3, r1, #4
100032fe:	d415      	bmi.n	1000332c <irq_add_shared_handler+0x1bc>
10003300:	ea4f 5c60 	mov.w	ip, r0, asr #21
10003304:	f06f 0007 	mvn.w	r0, #7
10003308:	f10c 0c02 	add.w	ip, ip, #2
1000330c:	eba0 0009 	sub.w	r0, r0, r9
10003310:	eb03 0c4c 	add.w	ip, r3, ip, lsl #1
10003314:	1b00      	subs	r0, r0, r4
10003316:	4460      	add	r0, ip
10003318:	f3c0 004a 	ubfx	r0, r0, #1, #11
1000331c:	f440 4060 	orr.w	r0, r0, #57344	; 0xe000
10003320:	e7ca      	b.n	100032b8 <irq_add_shared_handler+0x148>
10003322:	9201      	str	r2, [sp, #4]
10003324:	f001 f858 	bl	100043d8 <hard_assertion_failure>
10003328:	9a01      	ldr	r2, [sp, #4]
1000332a:	e758      	b.n	100031de <irq_add_shared_handler+0x6e>
1000332c:	f500 10ff 	add.w	r0, r0, #2088960	; 0x1fe000
10003330:	f500 50ff 	add.w	r0, r0, #8160	; 0x1fe0
10003334:	301f      	adds	r0, #31
10003336:	e7e3      	b.n	10003300 <irq_add_shared_handler+0x190>
10003338:	20003033 	.word	0x20003033
1000333c:	200011a0 	.word	0x200011a0
10003340:	e000ed00 	.word	0xe000ed00
10003344:	10000111 	.word	0x10000111
10003348:	200011d0 	.word	0x200011d0
1000334c:	ffffe000 	.word	0xffffe000
10003350:	47804801 	.word	0x47804801
10003354:	20002751 	.word	0x20002751

10003358 <irq_add_tail_to_free_list>:
10003358:	b5f0      	push	{r4, r5, r6, r7, lr}
1000335a:	f3ef 8505 	mrs	r5, IPSR
1000335e:	b2ed      	uxtb	r5, r5
10003360:	f3ef 8c10 	mrs	ip, PRIMASK
10003364:	b672      	cpsid	i
10003366:	4926      	ldr	r1, [pc, #152]	; (10003400 <irq_add_tail_to_free_list+0xa8>)
10003368:	e8d1 2fcf 	ldaexb	r2, [r1]
1000336c:	2301      	movs	r3, #1
1000336e:	2a00      	cmp	r2, #0
10003370:	d1fa      	bne.n	10003368 <irq_add_tail_to_free_list+0x10>
10003372:	e8c1 3f42 	strexb	r2, r3, [r1]
10003376:	2a00      	cmp	r2, #0
10003378:	d1f6      	bne.n	10003368 <irq_add_tail_to_free_list+0x10>
1000337a:	f3bf 8f5f 	dmb	sy
1000337e:	4e21      	ldr	r6, [pc, #132]	; (10003404 <irq_add_tail_to_free_list+0xac>)
10003380:	f040 0e01 	orr.w	lr, r0, #1
10003384:	68b4      	ldr	r4, [r6, #8]
10003386:	f64a 23aa 	movw	r3, #43690	; 0xaaaa
1000338a:	f854 7025 	ldr.w	r7, [r4, r5, lsl #2]
1000338e:	4a1e      	ldr	r2, [pc, #120]	; (10003408 <irq_add_tail_to_free_list+0xb0>)
10003390:	4604      	mov	r4, r0
10003392:	1aa4      	subs	r4, r4, r2
10003394:	4164      	adcs	r4, r4
10003396:	4363      	muls	r3, r4
10003398:	0d1b      	lsrs	r3, r3, #20
1000339a:	4577      	cmp	r7, lr
1000339c:	b25b      	sxtb	r3, r3
1000339e:	d01b      	beq.n	100033d8 <irq_add_tail_to_free_list+0x80>
100033a0:	f992 4006 	ldrsb.w	r4, [r2, #6]
100033a4:	429c      	cmp	r4, r3
100033a6:	d01c      	beq.n	100033e2 <irq_add_tail_to_free_list+0x8a>
100033a8:	f992 4012 	ldrsb.w	r4, [r2, #18]
100033ac:	429c      	cmp	r4, r3
100033ae:	d023      	beq.n	100033f8 <irq_add_tail_to_free_list+0xa0>
100033b0:	f992 401e 	ldrsb.w	r4, [r2, #30]
100033b4:	429c      	cmp	r4, r3
100033b6:	d021      	beq.n	100033fc <irq_add_tail_to_free_list+0xa4>
100033b8:	f992 402a 	ldrsb.w	r4, [r2, #42]	; 0x2a
100033bc:	429c      	cmp	r4, r3
100033be:	bf08      	it	eq
100033c0:	2403      	moveq	r4, #3
100033c2:	d00f      	beq.n	100033e4 <irq_add_tail_to_free_list+0x8c>
100033c4:	4a11      	ldr	r2, [pc, #68]	; (1000340c <irq_add_tail_to_free_list+0xb4>)
100033c6:	2400      	movs	r4, #0
100033c8:	7815      	ldrb	r5, [r2, #0]
100033ca:	7013      	strb	r3, [r2, #0]
100033cc:	7185      	strb	r5, [r0, #6]
100033ce:	e8c1 4f8f 	stlb	r4, [r1]
100033d2:	f38c 8810 	msr	PRIMASK, ip
100033d6:	bdf0      	pop	{r4, r5, r6, r7, pc}
100033d8:	68b2      	ldr	r2, [r6, #8]
100033da:	4c0d      	ldr	r4, [pc, #52]	; (10003410 <irq_add_tail_to_free_list+0xb8>)
100033dc:	f842 4025 	str.w	r4, [r2, r5, lsl #2]
100033e0:	e7f0      	b.n	100033c4 <irq_add_tail_to_free_list+0x6c>
100033e2:	2400      	movs	r4, #0
100033e4:	eb04 0444 	add.w	r4, r4, r4, lsl #1
100033e8:	eb02 0284 	add.w	r2, r2, r4, lsl #2
100033ec:	24ff      	movs	r4, #255	; 0xff
100033ee:	7194      	strb	r4, [r2, #6]
100033f0:	f64b 5401 	movw	r4, #48385	; 0xbd01
100033f4:	8094      	strh	r4, [r2, #4]
100033f6:	e7e5      	b.n	100033c4 <irq_add_tail_to_free_list+0x6c>
100033f8:	2401      	movs	r4, #1
100033fa:	e7f3      	b.n	100033e4 <irq_add_tail_to_free_list+0x8c>
100033fc:	2402      	movs	r4, #2
100033fe:	e7f1      	b.n	100033e4 <irq_add_tail_to_free_list+0x8c>
10003400:	20002751 	.word	0x20002751
10003404:	e000ed00 	.word	0xe000ed00
10003408:	200011a0 	.word	0x200011a0
1000340c:	20003033 	.word	0x20003033
10003410:	10000111 	.word	0x10000111

10003414 <user_irq_claim_unused>:
10003414:	b510      	push	{r4, lr}
10003416:	4c07      	ldr	r4, [pc, #28]	; (10003434 <user_irq_claim_unused+0x20>)
10003418:	b082      	sub	sp, #8
1000341a:	4601      	mov	r1, r0
1000341c:	2305      	movs	r3, #5
1000341e:	2200      	movs	r2, #0
10003420:	9400      	str	r4, [sp, #0]
10003422:	4805      	ldr	r0, [pc, #20]	; (10003438 <user_irq_claim_unused+0x24>)
10003424:	f7ff fd92 	bl	10002f4c <hw_claim_unused_from_range>
10003428:	2800      	cmp	r0, #0
1000342a:	bfa8      	it	ge
1000342c:	f1c0 0033 	rsbge	r0, r0, #51	; 0x33
10003430:	b002      	add	sp, #8
10003432:	bd10      	pop	{r4, pc}
10003434:	1000913c 	.word	0x1000913c
10003438:	20003037 	.word	0x20003037

1000343c <lock_init>:
1000343c:	4b01      	ldr	r3, [pc, #4]	; (10003444 <lock_init+0x8>)
1000343e:	4419      	add	r1, r3
10003440:	6001      	str	r1, [r0, #0]
10003442:	4770      	bx	lr
10003444:	20002748 	.word	0x20002748

10003448 <runtime_init_mutex>:
10003448:	b5f8      	push	{r3, r4, r5, r6, r7, lr}
1000344a:	4d12      	ldr	r5, [pc, #72]	; (10003494 <runtime_init_mutex+0x4c>)
1000344c:	4e12      	ldr	r6, [pc, #72]	; (10003498 <runtime_init_mutex+0x50>)
1000344e:	42b5      	cmp	r5, r6
10003450:	d21f      	bcs.n	10003492 <runtime_init_mutex+0x4a>
10003452:	462c      	mov	r4, r5
10003454:	6823      	ldr	r3, [r4, #0]
10003456:	27ff      	movs	r7, #255	; 0xff
10003458:	b17b      	cbz	r3, 1000347a <runtime_init_mutex+0x32>
1000345a:	f7ff fdc5 	bl	10002fe8 <next_striped_spin_lock_num>
1000345e:	4601      	mov	r1, r0
10003460:	4628      	mov	r0, r5
10003462:	f7ff ffeb 	bl	1000343c <lock_init>
10003466:	80a7      	strh	r7, [r4, #4]
10003468:	f3bf 8f5f 	dmb	sy
1000346c:	3408      	adds	r4, #8
1000346e:	42b4      	cmp	r4, r6
10003470:	d20f      	bcs.n	10003492 <runtime_init_mutex+0x4a>
10003472:	6823      	ldr	r3, [r4, #0]
10003474:	4625      	mov	r5, r4
10003476:	2b00      	cmp	r3, #0
10003478:	d1ef      	bne.n	1000345a <runtime_init_mutex+0x12>
1000347a:	f7ff fdb5 	bl	10002fe8 <next_striped_spin_lock_num>
1000347e:	4601      	mov	r1, r0
10003480:	4628      	mov	r0, r5
10003482:	f7ff ffdb 	bl	1000343c <lock_init>
10003486:	7127      	strb	r7, [r4, #4]
10003488:	f3bf 8f5f 	dmb	sy
1000348c:	3408      	adds	r4, #8
1000348e:	42b4      	cmp	r4, r6
10003490:	d3ef      	bcc.n	10003472 <runtime_init_mutex+0x2a>
10003492:	bdf8      	pop	{r3, r4, r5, r6, r7, pc}
10003494:	20001668 	.word	0x20001668
10003498:	20001670 	.word	0x20001670

1000349c <mutex_init>:
1000349c:	b510      	push	{r4, lr}
1000349e:	4604      	mov	r4, r0
100034a0:	f7ff fda2 	bl	10002fe8 <next_striped_spin_lock_num>
100034a4:	4601      	mov	r1, r0
100034a6:	4620      	mov	r0, r4
100034a8:	f7ff ffc8 	bl	1000343c <lock_init>
100034ac:	23ff      	movs	r3, #255	; 0xff
100034ae:	7123      	strb	r3, [r4, #4]
100034b0:	f3bf 8f5f 	dmb	sy
100034b4:	bd10      	pop	{r4, pc}
100034b6:	bf00      	nop

100034b8 <critical_section_init>:
100034b8:	b510      	push	{r4, lr}
100034ba:	4604      	mov	r4, r0
100034bc:	2001      	movs	r0, #1
100034be:	f7ff fd9f 	bl	10003000 <spin_lock_claim_unused>
100034c2:	4b03      	ldr	r3, [pc, #12]	; (100034d0 <critical_section_init+0x18>)
100034c4:	4418      	add	r0, r3
100034c6:	6020      	str	r0, [r4, #0]
100034c8:	f3bf 8f5f 	dmb	sy
100034cc:	bd10      	pop	{r4, pc}
100034ce:	bf00      	nop
100034d0:	20002748 	.word	0x20002748

100034d4 <critical_section_init_with_lock_num>:
100034d4:	4b02      	ldr	r3, [pc, #8]	; (100034e0 <critical_section_init_with_lock_num+0xc>)
100034d6:	4419      	add	r1, r3
100034d8:	6001      	str	r1, [r0, #0]
100034da:	f3bf 8f5f 	dmb	sy
100034de:	4770      	bx	lr
100034e0:	20002748 	.word	0x20002748

100034e4 <sleep_until_callback>:
100034e4:	4b0d      	ldr	r3, [pc, #52]	; (1000351c <sleep_until_callback+0x38>)
100034e6:	681a      	ldr	r2, [r3, #0]
100034e8:	f3ef 8110 	mrs	r1, PRIMASK
100034ec:	b672      	cpsid	i
100034ee:	e8d2 cfcf 	ldaexb	ip, [r2]
100034f2:	2001      	movs	r0, #1
100034f4:	f1bc 0f00 	cmp.w	ip, #0
100034f8:	d1f9      	bne.n	100034ee <sleep_until_callback+0xa>
100034fa:	e8c2 0f4c 	strexb	ip, r0, [r2]
100034fe:	f1bc 0f00 	cmp.w	ip, #0
10003502:	d1f4      	bne.n	100034ee <sleep_until_callback+0xa>
10003504:	f3bf 8f5f 	dmb	sy
10003508:	2200      	movs	r2, #0
1000350a:	681b      	ldr	r3, [r3, #0]
1000350c:	e8c3 2f8f 	stlb	r2, [r3]
10003510:	f381 8810 	msr	PRIMASK, r1
10003514:	bf40      	sev
10003516:	2000      	movs	r0, #0
10003518:	2100      	movs	r1, #0
1000351a:	4770      	bx	lr
1000351c:	20003010 	.word	0x20003010

10003520 <alarm_pool_irq_handler>:
10003520:	e92d 4ff0 	stmdb	sp!, {r4, r5, r6, r7, r8, r9, sl, fp, lr}
10003524:	ed2d 8b02 	vpush	{d8}
10003528:	b085      	sub	sp, #20
1000352a:	f3ef 8305 	mrs	r3, IPSR
1000352e:	b2db      	uxtb	r3, r3
10003530:	3b10      	subs	r3, #16
10003532:	089a      	lsrs	r2, r3, #2
10003534:	bf18      	it	ne
10003536:	2201      	movne	r2, #1
10003538:	f04f 0101 	mov.w	r1, #1
1000353c:	f003 0003 	and.w	r0, r3, #3
10003540:	4bad      	ldr	r3, [pc, #692]	; (100037f8 <alarm_pool_irq_handler+0x2d8>)
10003542:	eb00 0282 	add.w	r2, r0, r2, lsl #2
10003546:	bf0c      	ite	eq
10003548:	4fac      	ldreq	r7, [pc, #688]	; (100037fc <alarm_pool_irq_handler+0x2dc>)
1000354a:	4fad      	ldrne	r7, [pc, #692]	; (10003800 <alarm_pool_irq_handler+0x2e0>)
1000354c:	f853 6022 	ldr.w	r6, [r3, r2, lsl #2]
10003550:	fa01 f200 	lsl.w	r2, r1, r0
10003554:	f507 5341 	add.w	r3, r7, #12352	; 0x3040
10003558:	ed9f 8ba5 	vldr	d8, [pc, #660]	; 100037f0 <alarm_pool_irq_handler+0x2d0>
1000355c:	46b0      	mov	r8, r6
1000355e:	9001      	str	r0, [sp, #4]
10003560:	9200      	str	r2, [sp, #0]
10003562:	605a      	str	r2, [r3, #4]
10003564:	e035      	b.n	100035d2 <alarm_pool_irq_handler+0xb2>
10003566:	f8b8 3004 	ldrh.w	r3, [r8, #4]
1000356a:	041b      	lsls	r3, r3, #16
1000356c:	f140 8092 	bpl.w	10003694 <alarm_pool_irq_handler+0x174>
10003570:	f898 3006 	ldrb.w	r3, [r8, #6]
10003574:	2b00      	cmp	r3, #0
10003576:	f040 80df 	bne.w	10003738 <alarm_pool_irq_handler+0x218>
1000357a:	f9b8 2008 	ldrsh.w	r2, [r8, #8]
1000357e:	2a00      	cmp	r2, #0
10003580:	f2c0 8125 	blt.w	100037ce <alarm_pool_irq_handler+0x2ae>
10003584:	f8d8 3014 	ldr.w	r3, [r8, #20]
10003588:	eb02 0242 	add.w	r2, r2, r2, lsl #1
1000358c:	eb03 02c2 	add.w	r2, r3, r2, lsl #3
10003590:	e9d2 4502 	ldrd	r4, r5, [r2, #8]
10003594:	f1b5 3fff 	cmp.w	r5, #4294967295
10003598:	bf08      	it	eq
1000359a:	f1b4 3fff 	cmpeq.w	r4, #4294967295
1000359e:	d00d      	beq.n	100035bc <alarm_pool_irq_handler+0x9c>
100035a0:	9b01      	ldr	r3, [sp, #4]
100035a2:	eb07 0183 	add.w	r1, r7, r3, lsl #2
100035a6:	6abb      	ldr	r3, [r7, #40]	; 0x28
100035a8:	690a      	ldr	r2, [r1, #16]
100035aa:	1ad2      	subs	r2, r2, r3
100035ac:	1ae3      	subs	r3, r4, r3
100035ae:	4293      	cmp	r3, r2
100035b0:	d303      	bcc.n	100035ba <alarm_pool_irq_handler+0x9a>
100035b2:	6a3b      	ldr	r3, [r7, #32]
100035b4:	9a00      	ldr	r2, [sp, #0]
100035b6:	4213      	tst	r3, r2
100035b8:	d100      	bne.n	100035bc <alarm_pool_irq_handler+0x9c>
100035ba:	610c      	str	r4, [r1, #16]
100035bc:	4638      	mov	r0, r7
100035be:	f000 fbb5 	bl	10003d2c <timer_time_us_64>
100035c2:	1a20      	subs	r0, r4, r0
100035c4:	eb65 0501 	sbc.w	r5, r5, r1
100035c8:	2801      	cmp	r0, #1
100035ca:	f175 0300 	sbcs.w	r3, r5, #0
100035ce:	f280 80fe 	bge.w	100037ce <alarm_pool_irq_handler+0x2ae>
100035d2:	f9b8 4008 	ldrsh.w	r4, [r8, #8]
100035d6:	9b00      	ldr	r3, [sp, #0]
100035d8:	2c00      	cmp	r4, #0
100035da:	63fb      	str	r3, [r7, #60]	; 0x3c
100035dc:	dbc3      	blt.n	10003566 <alarm_pool_irq_handler+0x46>
100035de:	f8d8 a014 	ldr.w	sl, [r8, #20]
100035e2:	eb04 0b44 	add.w	fp, r4, r4, lsl #1
100035e6:	4638      	mov	r0, r7
100035e8:	eb0a 05cb 	add.w	r5, sl, fp, lsl #3
100035ec:	e9d5 9602 	ldrd	r9, r6, [r5, #8]
100035f0:	f000 fb9c 	bl	10003d2c <timer_time_us_64>
100035f4:	4548      	cmp	r0, r9
100035f6:	eb61 0106 	sbc.w	r1, r1, r6
100035fa:	2900      	cmp	r1, #0
100035fc:	dbb3      	blt.n	10003566 <alarm_pool_irq_handler+0x46>
100035fe:	2e00      	cmp	r6, #0
10003600:	f2c0 80c3 	blt.w	1000378a <alarm_pool_irq_handler+0x26a>
10003604:	692b      	ldr	r3, [r5, #16]
10003606:	4a7f      	ldr	r2, [pc, #508]	; (10003804 <alarm_pool_irq_handler+0x2e4>)
10003608:	4293      	cmp	r3, r2
1000360a:	f000 80fd 	beq.w	10003808 <alarm_pool_irq_handler+0x2e8>
1000360e:	886a      	ldrh	r2, [r5, #2]
10003610:	f9b8 0008 	ldrsh.w	r0, [r8, #8]
10003614:	b292      	uxth	r2, r2
10003616:	ea42 4000 	orr.w	r0, r2, r0, lsl #16
1000361a:	6969      	ldr	r1, [r5, #20]
1000361c:	4798      	blx	r3
1000361e:	4602      	mov	r2, r0
10003620:	460b      	mov	r3, r1
10003622:	ea52 0103 	orrs.w	r1, r2, r3
10003626:	f000 80b0 	beq.w	1000378a <alarm_pool_irq_handler+0x26a>
1000362a:	2b00      	cmp	r3, #0
1000362c:	f280 80d5 	bge.w	100037da <alarm_pool_irq_handler+0x2ba>
10003630:	ebb9 0002 	subs.w	r0, r9, r2
10003634:	eb66 0303 	sbc.w	r3, r6, r3
10003638:	e9c5 0302 	strd	r0, r3, [r5, #8]
1000363c:	f93a 503b 	ldrsh.w	r5, [sl, fp, lsl #3]
10003640:	2d00      	cmp	r5, #0
10003642:	db90      	blt.n	10003566 <alarm_pool_irq_handler+0x46>
10003644:	f8d8 c014 	ldr.w	ip, [r8, #20]
10003648:	eb05 0145 	add.w	r1, r5, r5, lsl #1
1000364c:	eb0c 01c1 	add.w	r1, ip, r1, lsl #3
10003650:	688a      	ldr	r2, [r1, #8]
10003652:	1a82      	subs	r2, r0, r2
10003654:	68ca      	ldr	r2, [r1, #12]
10003656:	eb63 0202 	sbc.w	r2, r3, r2
1000365a:	2a00      	cmp	r2, #0
1000365c:	db83      	blt.n	10003566 <alarm_pool_irq_handler+0x46>
1000365e:	f8a8 5008 	strh.w	r5, [r8, #8]
10003662:	e007      	b.n	10003674 <alarm_pool_irq_handler+0x154>
10003664:	6895      	ldr	r5, [r2, #8]
10003666:	1b45      	subs	r5, r0, r5
10003668:	68d5      	ldr	r5, [r2, #12]
1000366a:	eb63 0505 	sbc.w	r5, r3, r5
1000366e:	2d00      	cmp	r5, #0
10003670:	db08      	blt.n	10003684 <alarm_pool_irq_handler+0x164>
10003672:	4611      	mov	r1, r2
10003674:	f9b1 6000 	ldrsh.w	r6, [r1]
10003678:	eb06 0246 	add.w	r2, r6, r6, lsl #1
1000367c:	2e00      	cmp	r6, #0
1000367e:	eb0c 02c2 	add.w	r2, ip, r2, lsl #3
10003682:	daef      	bge.n	10003664 <alarm_pool_irq_handler+0x144>
10003684:	f82a 603b 	strh.w	r6, [sl, fp, lsl #3]
10003688:	800c      	strh	r4, [r1, #0]
1000368a:	f8b8 3004 	ldrh.w	r3, [r8, #4]
1000368e:	041b      	lsls	r3, r3, #16
10003690:	f53f af6e 	bmi.w	10003570 <alarm_pool_irq_handler+0x50>
10003694:	f8d8 3010 	ldr.w	r3, [r8, #16]
10003698:	f3ef 8210 	mrs	r2, PRIMASK
1000369c:	b672      	cpsid	i
1000369e:	e8d3 0fcf 	ldaexb	r0, [r3]
100036a2:	2101      	movs	r1, #1
100036a4:	2800      	cmp	r0, #0
100036a6:	d1fa      	bne.n	1000369e <alarm_pool_irq_handler+0x17e>
100036a8:	e8c3 1f40 	strexb	r0, r1, [r3]
100036ac:	2800      	cmp	r0, #0
100036ae:	d1f6      	bne.n	1000369e <alarm_pool_irq_handler+0x17e>
100036b0:	f3bf 8f5f 	dmb	sy
100036b4:	f64f 70ff 	movw	r0, #65535	; 0xffff
100036b8:	f8b8 9004 	ldrh.w	r9, [r8, #4]
100036bc:	2300      	movs	r3, #0
100036be:	f8d8 1010 	ldr.w	r1, [r8, #16]
100036c2:	fa0f f989 	sxth.w	r9, r9
100036c6:	f8a8 0004 	strh.w	r0, [r8, #4]
100036ca:	e8c1 3f8f 	stlb	r3, [r1]
100036ce:	f382 8810 	msr	PRIMASK, r2
100036d2:	4599      	cmp	r9, r3
100036d4:	f6ff af4c 	blt.w	10003570 <alarm_pool_irq_handler+0x50>
100036d8:	46ba      	mov	sl, r7
100036da:	f8d8 5014 	ldr.w	r5, [r8, #20]
100036de:	f108 0b08 	add.w	fp, r8, #8
100036e2:	eb09 0e49 	add.w	lr, r9, r9, lsl #1
100036e6:	eb05 03ce 	add.w	r3, r5, lr, lsl #3
100036ea:	e9d3 6702 	ldrd	r6, r7, [r3, #8]
100036ee:	f9b8 3008 	ldrsh.w	r3, [r8, #8]
100036f2:	46dc      	mov	ip, fp
100036f4:	2b00      	cmp	r3, #0
100036f6:	da05      	bge.n	10003704 <alarm_pool_irq_handler+0x1e4>
100036f8:	e00f      	b.n	1000371a <alarm_pool_irq_handler+0x1fa>
100036fa:	f935 3034 	ldrsh.w	r3, [r5, r4, lsl #3]
100036fe:	4684      	mov	ip, r0
10003700:	2b00      	cmp	r3, #0
10003702:	db0a      	blt.n	1000371a <alarm_pool_irq_handler+0x1fa>
10003704:	eb03 0443 	add.w	r4, r3, r3, lsl #1
10003708:	eb05 00c4 	add.w	r0, r5, r4, lsl #3
1000370c:	e9d0 1202 	ldrd	r1, r2, [r0, #8]
10003710:	1a71      	subs	r1, r6, r1
10003712:	eb67 0202 	sbc.w	r2, r7, r2
10003716:	2a00      	cmp	r2, #0
10003718:	daef      	bge.n	100036fa <alarm_pool_irq_handler+0x1da>
1000371a:	f8ac 9000 	strh.w	r9, [ip]
1000371e:	f935 903e 	ldrsh.w	r9, [r5, lr, lsl #3]
10003722:	f825 303e 	strh.w	r3, [r5, lr, lsl #3]
10003726:	f1b9 0f00 	cmp.w	r9, #0
1000372a:	dada      	bge.n	100036e2 <alarm_pool_irq_handler+0x1c2>
1000372c:	f898 3006 	ldrb.w	r3, [r8, #6]
10003730:	4657      	mov	r7, sl
10003732:	2b00      	cmp	r3, #0
10003734:	f43f af21 	beq.w	1000357a <alarm_pool_irq_handler+0x5a>
10003738:	2300      	movs	r3, #0
1000373a:	f888 3006 	strb.w	r3, [r8, #6]
1000373e:	f9b8 3008 	ldrsh.w	r3, [r8, #8]
10003742:	f108 0c08 	add.w	ip, r8, #8
10003746:	1c5e      	adds	r6, r3, #1
10003748:	d041      	beq.n	100037ce <alarm_pool_irq_handler+0x2ae>
1000374a:	461a      	mov	r2, r3
1000374c:	f8d8 4014 	ldr.w	r4, [r8, #20]
10003750:	e003      	b.n	1000375a <alarm_pool_irq_handler+0x23a>
10003752:	4684      	mov	ip, r0
10003754:	1c59      	adds	r1, r3, #1
10003756:	f43f af12 	beq.w	1000357e <alarm_pool_irq_handler+0x5e>
1000375a:	eb03 0143 	add.w	r1, r3, r3, lsl #1
1000375e:	eb04 00c1 	add.w	r0, r4, r1, lsl #3
10003762:	8845      	ldrh	r5, [r0, #2]
10003764:	461e      	mov	r6, r3
10003766:	042d      	lsls	r5, r5, #16
10003768:	f934 3031 	ldrsh.w	r3, [r4, r1, lsl #3]
1000376c:	d5f1      	bpl.n	10003752 <alarm_pool_irq_handler+0x232>
1000376e:	4296      	cmp	r6, r2
10003770:	ed80 8b02 	vstr	d8, [r0, #8]
10003774:	d0ee      	beq.n	10003754 <alarm_pool_irq_handler+0x234>
10003776:	f8ac 3000 	strh.w	r3, [ip]
1000377a:	f8b8 2008 	ldrh.w	r2, [r8, #8]
1000377e:	f824 2031 	strh.w	r2, [r4, r1, lsl #3]
10003782:	4632      	mov	r2, r6
10003784:	f8a8 6008 	strh.w	r6, [r8, #8]
10003788:	e7e4      	b.n	10003754 <alarm_pool_irq_handler+0x234>
1000378a:	f83a 303b 	ldrh.w	r3, [sl, fp, lsl #3]
1000378e:	f8a8 3008 	strh.w	r3, [r8, #8]
10003792:	f8d8 3010 	ldr.w	r3, [r8, #16]
10003796:	f3ef 8210 	mrs	r2, PRIMASK
1000379a:	b672      	cpsid	i
1000379c:	e8d3 0fcf 	ldaexb	r0, [r3]
100037a0:	2101      	movs	r1, #1
100037a2:	2800      	cmp	r0, #0
100037a4:	d1fa      	bne.n	1000379c <alarm_pool_irq_handler+0x27c>
100037a6:	e8c3 1f40 	strexb	r0, r1, [r3]
100037aa:	2800      	cmp	r0, #0
100037ac:	d1f6      	bne.n	1000379c <alarm_pool_irq_handler+0x27c>
100037ae:	f3bf 8f5f 	dmb	sy
100037b2:	f8b8 3002 	ldrh.w	r3, [r8, #2]
100037b6:	f8d8 1010 	ldr.w	r1, [r8, #16]
100037ba:	f82a 303b 	strh.w	r3, [sl, fp, lsl #3]
100037be:	2300      	movs	r3, #0
100037c0:	f8a8 4002 	strh.w	r4, [r8, #2]
100037c4:	e8c1 3f8f 	stlb	r3, [r1]
100037c8:	f382 8810 	msr	PRIMASK, r2
100037cc:	e6cb      	b.n	10003566 <alarm_pool_irq_handler+0x46>
100037ce:	bf40      	sev
100037d0:	b005      	add	sp, #20
100037d2:	ecbd 8b02 	vpop	{d8}
100037d6:	e8bd 8ff0 	ldmia.w	sp!, {r4, r5, r6, r7, r8, r9, sl, fp, pc}
100037da:	4638      	mov	r0, r7
100037dc:	e9cd 2302 	strd	r2, r3, [sp, #8]
100037e0:	f000 faa4 	bl	10003d2c <timer_time_us_64>
100037e4:	9a02      	ldr	r2, [sp, #8]
100037e6:	9b03      	ldr	r3, [sp, #12]
100037e8:	1880      	adds	r0, r0, r2
100037ea:	eb43 0301 	adc.w	r3, r3, r1
100037ee:	e723      	b.n	10003638 <alarm_pool_irq_handler+0x118>
100037f0:	ffffffff 	.word	0xffffffff
100037f4:	ffffffff 	.word	0xffffffff
100037f8:	20002fe8 	.word	0x20002fe8
100037fc:	400b0000 	.word	0x400b0000
10003800:	400b8000 	.word	0x400b8000
10003804:	10003521 	.word	0x10003521
10003808:	696b      	ldr	r3, [r5, #20]
1000380a:	4618      	mov	r0, r3
1000380c:	691a      	ldr	r2, [r3, #16]
1000380e:	9302      	str	r3, [sp, #8]
10003810:	4790      	blx	r2
10003812:	2800      	cmp	r0, #0
10003814:	d0b9      	beq.n	1000378a <alarm_pool_irq_handler+0x26a>
10003816:	9b02      	ldr	r3, [sp, #8]
10003818:	e9d3 2300 	ldrd	r2, r3, [r3]
1000381c:	e701      	b.n	10003622 <alarm_pool_irq_handler+0x102>
1000381e:	bf00      	nop

10003820 <runtime_init_default_alarm_pool>:
10003820:	e92d 4ff8 	stmdb	sp!, {r3, r4, r5, r6, r7, r8, r9, sl, fp, lr}
10003824:	4c36      	ldr	r4, [pc, #216]	; (10003900 <runtime_init_default_alarm_pool+0xe0>)
10003826:	6925      	ldr	r5, [r4, #16]
10003828:	b12d      	cbz	r5, 10003836 <runtime_init_default_alarm_pool+0x16>
1000382a:	e8bd 4ff8 	ldmia.w	sp!, {r3, r4, r5, r6, r7, r8, r9, sl, fp, lr}
1000382e:	210a      	movs	r1, #10
10003830:	4834      	ldr	r0, [pc, #208]	; (10003904 <runtime_init_default_alarm_pool+0xe4>)
10003832:	f7ff be03 	b.w	1000343c <lock_init>
10003836:	f8df 80e4 	ldr.w	r8, [pc, #228]	; 1000391c <runtime_init_default_alarm_pool+0xfc>
1000383a:	2603      	movs	r6, #3
1000383c:	2103      	movs	r1, #3
1000383e:	4640      	mov	r0, r8
10003840:	f000 fa62 	bl	10003d08 <timer_hardware_alarm_claim>
10003844:	f8c4 800c 	str.w	r8, [r4, #12]
10003848:	f7ff fbce 	bl	10002fe8 <next_striped_spin_lock_num>
1000384c:	f04f 4c50 	mov.w	ip, #3489660928	; 0xd0000000
10003850:	4b2d      	ldr	r3, [pc, #180]	; (10003908 <runtime_init_default_alarm_pool+0xe8>)
10003852:	7026      	strb	r6, [r4, #0]
10003854:	4418      	add	r0, r3
10003856:	f8dc 3000 	ldr.w	r3, [ip]
1000385a:	210f      	movs	r1, #15
1000385c:	7063      	strb	r3, [r4, #1]
1000385e:	6963      	ldr	r3, [r4, #20]
10003860:	8061      	strh	r1, [r4, #2]
10003862:	831d      	strh	r5, [r3, #24]
10003864:	f04f 0504 	mov.w	r5, #4
10003868:	f8a3 5078 	strh.w	r5, [r3, #120]	; 0x78
1000386c:	f04f 0505 	mov.w	r5, #5
10003870:	f8a3 5090 	strh.w	r5, [r3, #144]	; 0x90
10003874:	f04f 0506 	mov.w	r5, #6
10003878:	f8a3 50a8 	strh.w	r5, [r3, #168]	; 0xa8
1000387c:	f04f 0507 	mov.w	r5, #7
10003880:	210e      	movs	r1, #14
10003882:	6120      	str	r0, [r4, #16]
10003884:	2708      	movs	r7, #8
10003886:	f64f 72ff 	movw	r2, #65535	; 0xffff
1000388a:	f04f 0e0a 	mov.w	lr, #10
1000388e:	f8a3 50c0 	strh.w	r5, [r3, #192]	; 0xc0
10003892:	f04f 0901 	mov.w	r9, #1
10003896:	f04f 0c0c 	mov.w	ip, #12
1000389a:	f04f 0b02 	mov.w	fp, #2
1000389e:	f04f 0a09 	mov.w	sl, #9
100038a2:	200d      	movs	r0, #13
100038a4:	f04f 050b 	mov.w	r5, #11
100038a8:	f8a3 1168 	strh.w	r1, [r3, #360]	; 0x168
100038ac:	4917      	ldr	r1, [pc, #92]	; (1000390c <runtime_init_default_alarm_pool+0xec>)
100038ae:	80a2      	strh	r2, [r4, #4]
100038b0:	f8a3 e108 	strh.w	lr, [r3, #264]	; 0x108
100038b4:	60a1      	str	r1, [r4, #8]
100038b6:	f8a3 b048 	strh.w	fp, [r3, #72]	; 0x48
100038ba:	f8a3 a0f0 	strh.w	sl, [r3, #240]	; 0xf0
100038be:	f8a3 5120 	strh.w	r5, [r3, #288]	; 0x120
100038c2:	f8a3 c138 	strh.w	ip, [r3, #312]	; 0x138
100038c6:	f8a3 0150 	strh.w	r0, [r3, #336]	; 0x150
100038ca:	f8a3 9030 	strh.w	r9, [r3, #48]	; 0x30
100038ce:	f8a3 6060 	strh.w	r6, [r3, #96]	; 0x60
100038d2:	f8a3 70d8 	strh.w	r7, [r3, #216]	; 0xd8
100038d6:	801a      	strh	r2, [r3, #0]
100038d8:	4b0d      	ldr	r3, [pc, #52]	; (10003910 <runtime_init_default_alarm_pool+0xf0>)
100038da:	4630      	mov	r0, r6
100038dc:	f8c8 7020 	str.w	r7, [r8, #32]
100038e0:	490c      	ldr	r1, [pc, #48]	; (10003914 <runtime_init_default_alarm_pool+0xf4>)
100038e2:	60dc      	str	r4, [r3, #12]
100038e4:	f7ff fc14 	bl	10003110 <irq_set_exclusive_handler>
100038e8:	4649      	mov	r1, r9
100038ea:	4630      	mov	r0, r6
100038ec:	f7ff fbcc 	bl	10003088 <irq_set_enabled>
100038f0:	4b09      	ldr	r3, [pc, #36]	; (10003918 <runtime_init_default_alarm_pool+0xf8>)
100038f2:	210a      	movs	r1, #10
100038f4:	601f      	str	r7, [r3, #0]
100038f6:	4803      	ldr	r0, [pc, #12]	; (10003904 <runtime_init_default_alarm_pool+0xe4>)
100038f8:	e8bd 4ff8 	ldmia.w	sp!, {r3, r4, r5, r6, r7, r8, r9, sl, fp, lr}
100038fc:	f7ff bd9e 	b.w	1000343c <lock_init>
10003900:	200011e8 	.word	0x200011e8
10003904:	20003010 	.word	0x20003010
10003908:	20002748 	.word	0x20002748
1000390c:	0010ffff 	.word	0x0010ffff
10003910:	20002fe8 	.word	0x20002fe8
10003914:	10003521 	.word	0x10003521
10003918:	400b2040 	.word	0x400b2040
1000391c:	400b0000 	.word	0x400b0000

10003920 <alarm_pool_get_default>:
10003920:	4800      	ldr	r0, [pc, #0]	; (10003924 <alarm_pool_get_default+0x4>)
10003922:	4770      	bx	lr
10003924:	200011e8 	.word	0x200011e8

10003928 <alarm_pool_add_alarm_at>:
10003928:	e92d 41f0 	stmdb	sp!, {r4, r5, r6, r7, r8, lr}
1000392c:	f89d 5020 	ldrb.w	r5, [sp, #32]
10003930:	4604      	mov	r4, r0
10003932:	4617      	mov	r7, r2
10003934:	461e      	mov	r6, r3
10003936:	b935      	cbnz	r5, 10003946 <alarm_pool_add_alarm_at+0x1e>
10003938:	f000 fa00 	bl	10003d3c <time_us_64>
1000393c:	4287      	cmp	r7, r0
1000393e:	eb66 0101 	sbc.w	r1, r6, r1
10003942:	2900      	cmp	r1, #0
10003944:	db57      	blt.n	100039f6 <alarm_pool_add_alarm_at+0xce>
10003946:	6921      	ldr	r1, [r4, #16]
10003948:	f3ef 8010 	mrs	r0, PRIMASK
1000394c:	b672      	cpsid	i
1000394e:	e8d1 2fcf 	ldaexb	r2, [r1]
10003952:	2301      	movs	r3, #1
10003954:	2a00      	cmp	r2, #0
10003956:	d1fa      	bne.n	1000394e <alarm_pool_add_alarm_at+0x26>
10003958:	e8c1 3f42 	strexb	r2, r3, [r1]
1000395c:	2a00      	cmp	r2, #0
1000395e:	d1f6      	bne.n	1000394e <alarm_pool_add_alarm_at+0x26>
10003960:	f3bf 8f5f 	dmb	sy
10003964:	f9b4 2002 	ldrsh.w	r2, [r4, #2]
10003968:	f8d4 c014 	ldr.w	ip, [r4, #20]
1000396c:	eb02 0142 	add.w	r1, r2, r2, lsl #1
10003970:	2a00      	cmp	r2, #0
10003972:	ea4f 0ec1 	mov.w	lr, r1, lsl #3
10003976:	eb0c 01c1 	add.w	r1, ip, r1, lsl #3
1000397a:	db02      	blt.n	10003982 <alarm_pool_add_alarm_at+0x5a>
1000397c:	f83c 300e 	ldrh.w	r3, [ip, lr]
10003980:	8063      	strh	r3, [r4, #2]
10003982:	f04f 0800 	mov.w	r8, #0
10003986:	6923      	ldr	r3, [r4, #16]
10003988:	e8c3 8f8f 	stlb	r8, [r3]
1000398c:	f380 8810 	msr	PRIMASK, r0
10003990:	4542      	cmp	r2, r8
10003992:	db33      	blt.n	100039fc <alarm_pool_add_alarm_at+0xd4>
10003994:	8848      	ldrh	r0, [r1, #2]
10003996:	9b06      	ldr	r3, [sp, #24]
10003998:	3001      	adds	r0, #1
1000399a:	f3c0 000e 	ubfx	r0, r0, #0, #15
1000399e:	2801      	cmp	r0, #1
100039a0:	bf38      	it	cc
100039a2:	2001      	movcc	r0, #1
100039a4:	610b      	str	r3, [r1, #16]
100039a6:	9b07      	ldr	r3, [sp, #28]
100039a8:	8048      	strh	r0, [r1, #2]
100039aa:	614b      	str	r3, [r1, #20]
100039ac:	e9c1 7602 	strd	r7, r6, [r1, #8]
100039b0:	ea40 4002 	orr.w	r0, r0, r2, lsl #16
100039b4:	6923      	ldr	r3, [r4, #16]
100039b6:	f3ef 8110 	mrs	r1, PRIMASK
100039ba:	b672      	cpsid	i
100039bc:	e8d3 6fcf 	ldaexb	r6, [r3]
100039c0:	2501      	movs	r5, #1
100039c2:	2e00      	cmp	r6, #0
100039c4:	d1fa      	bne.n	100039bc <alarm_pool_add_alarm_at+0x94>
100039c6:	e8c3 5f46 	strexb	r6, r5, [r3]
100039ca:	2e00      	cmp	r6, #0
100039cc:	d1f6      	bne.n	100039bc <alarm_pool_add_alarm_at+0x94>
100039ce:	f3bf 8f5f 	dmb	sy
100039d2:	88a3      	ldrh	r3, [r4, #4]
100039d4:	f82c 300e 	strh.w	r3, [ip, lr]
100039d8:	80a2      	strh	r2, [r4, #4]
100039da:	6923      	ldr	r3, [r4, #16]
100039dc:	e8c3 8f8f 	stlb	r8, [r3]
100039e0:	f381 8810 	msr	PRIMASK, r1
100039e4:	2201      	movs	r2, #1
100039e6:	68e3      	ldr	r3, [r4, #12]
100039e8:	7821      	ldrb	r1, [r4, #0]
100039ea:	f503 5301 	add.w	r3, r3, #8256	; 0x2040
100039ee:	408a      	lsls	r2, r1
100039f0:	605a      	str	r2, [r3, #4]
100039f2:	e8bd 81f0 	ldmia.w	sp!, {r4, r5, r6, r7, r8, pc}
100039f6:	4628      	mov	r0, r5
100039f8:	e8bd 81f0 	ldmia.w	sp!, {r4, r5, r6, r7, r8, pc}
100039fc:	f04f 30ff 	mov.w	r0, #4294967295
10003a00:	e7f7      	b.n	100039f2 <alarm_pool_add_alarm_at+0xca>
10003a02:	bf00      	nop

10003a04 <alarm_pool_add_alarm_at_force_in_context>:
10003a04:	4601      	mov	r1, r0
10003a06:	b5f0      	push	{r4, r5, r6, r7, lr}
10003a08:	6900      	ldr	r0, [r0, #16]
10003a0a:	f3ef 8710 	mrs	r7, PRIMASK
10003a0e:	b672      	cpsid	i
10003a10:	e8d0 5fcf 	ldaexb	r5, [r0]
10003a14:	2401      	movs	r4, #1
10003a16:	2d00      	cmp	r5, #0
10003a18:	d1fa      	bne.n	10003a10 <alarm_pool_add_alarm_at_force_in_context+0xc>
10003a1a:	e8c0 4f45 	strexb	r5, r4, [r0]
10003a1e:	2d00      	cmp	r5, #0
10003a20:	d1f6      	bne.n	10003a10 <alarm_pool_add_alarm_at_force_in_context+0xc>
10003a22:	f3bf 8f5f 	dmb	sy
10003a26:	f9b1 e002 	ldrsh.w	lr, [r1, #2]
10003a2a:	694c      	ldr	r4, [r1, #20]
10003a2c:	eb0e 0c4e 	add.w	ip, lr, lr, lsl #1
10003a30:	ea4f 06cc 	mov.w	r6, ip, lsl #3
10003a34:	f1be 0f00 	cmp.w	lr, #0
10003a38:	bfa8      	it	ge
10003a3a:	5ba0      	ldrhge	r0, [r4, r6]
10003a3c:	f04f 0500 	mov.w	r5, #0
10003a40:	bfa8      	it	ge
10003a42:	8048      	strhge	r0, [r1, #2]
10003a44:	eb04 0ccc 	add.w	ip, r4, ip, lsl #3
10003a48:	6908      	ldr	r0, [r1, #16]
10003a4a:	e8c0 5f8f 	stlb	r5, [r0]
10003a4e:	f387 8810 	msr	PRIMASK, r7
10003a52:	45ae      	cmp	lr, r5
10003a54:	db35      	blt.n	10003ac2 <alarm_pool_add_alarm_at_force_in_context+0xbe>
10003a56:	f8bc 0002 	ldrh.w	r0, [ip, #2]
10003a5a:	e9cc 2302 	strd	r2, r3, [ip, #8]
10003a5e:	3001      	adds	r0, #1
10003a60:	f3c0 000e 	ubfx	r0, r0, #0, #15
10003a64:	2801      	cmp	r0, #1
10003a66:	bf38      	it	cc
10003a68:	2001      	movcc	r0, #1
10003a6a:	9b05      	ldr	r3, [sp, #20]
10003a6c:	f8ac 0002 	strh.w	r0, [ip, #2]
10003a70:	f8cc 3010 	str.w	r3, [ip, #16]
10003a74:	9b06      	ldr	r3, [sp, #24]
10003a76:	ea40 400e 	orr.w	r0, r0, lr, lsl #16
10003a7a:	f8cc 3014 	str.w	r3, [ip, #20]
10003a7e:	690b      	ldr	r3, [r1, #16]
10003a80:	f3ef 8210 	mrs	r2, PRIMASK
10003a84:	b672      	cpsid	i
10003a86:	e8d3 cfcf 	ldaexb	ip, [r3]
10003a8a:	2701      	movs	r7, #1
10003a8c:	f1bc 0f00 	cmp.w	ip, #0
10003a90:	d1f9      	bne.n	10003a86 <alarm_pool_add_alarm_at_force_in_context+0x82>
10003a92:	e8c3 7f4c 	strexb	ip, r7, [r3]
10003a96:	f1bc 0f00 	cmp.w	ip, #0
10003a9a:	d1f4      	bne.n	10003a86 <alarm_pool_add_alarm_at_force_in_context+0x82>
10003a9c:	f3bf 8f5f 	dmb	sy
10003aa0:	888b      	ldrh	r3, [r1, #4]
10003aa2:	53a3      	strh	r3, [r4, r6]
10003aa4:	f8a1 e004 	strh.w	lr, [r1, #4]
10003aa8:	690b      	ldr	r3, [r1, #16]
10003aaa:	e8c3 5f8f 	stlb	r5, [r3]
10003aae:	f382 8810 	msr	PRIMASK, r2
10003ab2:	2201      	movs	r2, #1
10003ab4:	68cb      	ldr	r3, [r1, #12]
10003ab6:	7809      	ldrb	r1, [r1, #0]
10003ab8:	f503 5301 	add.w	r3, r3, #8256	; 0x2040
10003abc:	408a      	lsls	r2, r1
10003abe:	605a      	str	r2, [r3, #4]
10003ac0:	bdf0      	pop	{r4, r5, r6, r7, pc}
10003ac2:	f04f 30ff 	mov.w	r0, #4294967295
10003ac6:	bdf0      	pop	{r4, r5, r6, r7, pc}

10003ac8 <alarm_pool_cancel_alarm>:
10003ac8:	8942      	ldrh	r2, [r0, #10]
10003aca:	ebb2 4f21 	cmp.w	r2, r1, asr #16
10003ace:	dd38      	ble.n	10003b42 <alarm_pool_cancel_alarm+0x7a>
10003ad0:	6942      	ldr	r2, [r0, #20]
10003ad2:	140b      	asrs	r3, r1, #16
10003ad4:	eb03 0343 	add.w	r3, r3, r3, lsl #1
10003ad8:	b510      	push	{r4, lr}
10003ada:	eb02 03c3 	add.w	r3, r2, r3, lsl #3
10003ade:	6904      	ldr	r4, [r0, #16]
10003ae0:	f3ef 8c10 	mrs	ip, PRIMASK
10003ae4:	b672      	cpsid	i
10003ae6:	e8d4 efcf 	ldaexb	lr, [r4]
10003aea:	2201      	movs	r2, #1
10003aec:	f1be 0f00 	cmp.w	lr, #0
10003af0:	d1f9      	bne.n	10003ae6 <alarm_pool_cancel_alarm+0x1e>
10003af2:	e8c4 2f4e 	strexb	lr, r2, [r4]
10003af6:	f1be 0f00 	cmp.w	lr, #0
10003afa:	d1f4      	bne.n	10003ae6 <alarm_pool_cancel_alarm+0x1e>
10003afc:	f3bf 8f5f 	dmb	sy
10003b00:	885a      	ldrh	r2, [r3, #2]
10003b02:	b289      	uxth	r1, r1
10003b04:	b292      	uxth	r2, r2
10003b06:	428a      	cmp	r2, r1
10003b08:	d007      	beq.n	10003b1a <alarm_pool_cancel_alarm+0x52>
10003b0a:	2300      	movs	r3, #0
10003b0c:	6902      	ldr	r2, [r0, #16]
10003b0e:	e8c2 3f8f 	stlb	r3, [r2]
10003b12:	f38c 8810 	msr	PRIMASK, ip
10003b16:	4618      	mov	r0, r3
10003b18:	bd10      	pop	{r4, pc}
10003b1a:	f442 4200 	orr.w	r2, r2, #32768	; 0x8000
10003b1e:	805a      	strh	r2, [r3, #2]
10003b20:	2301      	movs	r3, #1
10003b22:	2200      	movs	r2, #0
10003b24:	6901      	ldr	r1, [r0, #16]
10003b26:	7183      	strb	r3, [r0, #6]
10003b28:	e8c1 2f8f 	stlb	r2, [r1]
10003b2c:	f38c 8810 	msr	PRIMASK, ip
10003b30:	68c2      	ldr	r2, [r0, #12]
10003b32:	7801      	ldrb	r1, [r0, #0]
10003b34:	f502 5201 	add.w	r2, r2, #8256	; 0x2040
10003b38:	fa03 f101 	lsl.w	r1, r3, r1
10003b3c:	4618      	mov	r0, r3
10003b3e:	6051      	str	r1, [r2, #4]
10003b40:	bd10      	pop	{r4, pc}
10003b42:	2000      	movs	r0, #0
10003b44:	4770      	bx	lr
10003b46:	bf00      	nop

10003b48 <alarm_pool_core_num>:
10003b48:	7840      	ldrb	r0, [r0, #1]
10003b4a:	4770      	bx	lr

10003b4c <sleep_until>:
10003b4c:	e92d 41f0 	stmdb	sp!, {r4, r5, r6, r7, r8, lr}
10003b50:	1f86      	subs	r6, r0, #6
10003b52:	f141 35ff 	adc.w	r5, r1, #4294967295
10003b56:	42b0      	cmp	r0, r6
10003b58:	eb71 0305 	sbcs.w	r3, r1, r5
10003b5c:	bf38      	it	cc
10003b5e:	2600      	movcc	r6, #0
10003b60:	b082      	sub	sp, #8
10003b62:	bf38      	it	cc
10003b64:	4635      	movcc	r5, r6
10003b66:	4604      	mov	r4, r0
10003b68:	460f      	mov	r7, r1
10003b6a:	f000 f8e7 	bl	10003d3c <time_us_64>
10003b6e:	1a30      	subs	r0, r6, r0
10003b70:	eb65 0101 	sbc.w	r1, r5, r1
10003b74:	2801      	cmp	r0, #1
10003b76:	f171 0300 	sbcs.w	r3, r1, #0
10003b7a:	da06      	bge.n	10003b8a <sleep_until+0x3e>
10003b7c:	4620      	mov	r0, r4
10003b7e:	4639      	mov	r1, r7
10003b80:	b002      	add	sp, #8
10003b82:	e8bd 41f0 	ldmia.w	sp!, {r4, r5, r6, r7, r8, lr}
10003b86:	f000 b8e3 	b.w	10003d50 <busy_wait_until>
10003b8a:	f000 f8d7 	bl	10003d3c <time_us_64>
10003b8e:	4286      	cmp	r6, r0
10003b90:	eb65 0101 	sbc.w	r1, r5, r1
10003b94:	2900      	cmp	r1, #0
10003b96:	db0a      	blt.n	10003bae <sleep_until+0x62>
10003b98:	2100      	movs	r1, #0
10003b9a:	4b17      	ldr	r3, [pc, #92]	; (10003bf8 <sleep_until+0xac>)
10003b9c:	4632      	mov	r2, r6
10003b9e:	9300      	str	r3, [sp, #0]
10003ba0:	4816      	ldr	r0, [pc, #88]	; (10003bfc <sleep_until+0xb0>)
10003ba2:	462b      	mov	r3, r5
10003ba4:	9101      	str	r1, [sp, #4]
10003ba6:	f7ff ff2d 	bl	10003a04 <alarm_pool_add_alarm_at_force_in_context>
10003baa:	2800      	cmp	r0, #0
10003bac:	dbe6      	blt.n	10003b7c <sleep_until+0x30>
10003bae:	f04f 0c00 	mov.w	ip, #0
10003bb2:	4813      	ldr	r0, [pc, #76]	; (10003c00 <sleep_until+0xb4>)
10003bb4:	4a13      	ldr	r2, [pc, #76]	; (10003c04 <sleep_until+0xb8>)
10003bb6:	6a43      	ldr	r3, [r0, #36]	; 0x24
10003bb8:	429d      	cmp	r5, r3
10003bba:	d804      	bhi.n	10003bc6 <sleep_until+0x7a>
10003bbc:	6a81      	ldr	r1, [r0, #40]	; 0x28
10003bbe:	42b1      	cmp	r1, r6
10003bc0:	d2dc      	bcs.n	10003b7c <sleep_until+0x30>
10003bc2:	429d      	cmp	r5, r3
10003bc4:	d1da      	bne.n	10003b7c <sleep_until+0x30>
10003bc6:	6813      	ldr	r3, [r2, #0]
10003bc8:	f3ef 8110 	mrs	r1, PRIMASK
10003bcc:	b672      	cpsid	i
10003bce:	e8d3 8fcf 	ldaexb	r8, [r3]
10003bd2:	f05f 0e01 	movs.w	lr, #1
10003bd6:	f1b8 0f00 	cmp.w	r8, #0
10003bda:	d1f8      	bne.n	10003bce <sleep_until+0x82>
10003bdc:	e8c3 ef48 	strexb	r8, lr, [r3]
10003be0:	f1b8 0f00 	cmp.w	r8, #0
10003be4:	d1f3      	bne.n	10003bce <sleep_until+0x82>
10003be6:	f3bf 8f5f 	dmb	sy
10003bea:	6813      	ldr	r3, [r2, #0]
10003bec:	e8c3 cf8f 	stlb	ip, [r3]
10003bf0:	f381 8810 	msr	PRIMASK, r1
10003bf4:	bf20      	wfe
10003bf6:	e7de      	b.n	10003bb6 <sleep_until+0x6a>
10003bf8:	100034e5 	.word	0x100034e5
10003bfc:	200011e8 	.word	0x200011e8
10003c00:	400b0000 	.word	0x400b0000
10003c04:	20003010 	.word	0x20003010

10003c08 <sleep_ms>:
10003c08:	b510      	push	{r4, lr}
10003c0a:	4604      	mov	r4, r0
10003c0c:	f000 f896 	bl	10003d3c <time_us_64>
10003c10:	f44f 737a 	mov.w	r3, #1000	; 0x3e8
10003c14:	fbe4 0103 	umlal	r0, r1, r4, r3
10003c18:	e8bd 4010 	ldmia.w	sp!, {r4, lr}
10003c1c:	2900      	cmp	r1, #0
10003c1e:	bfbc      	itt	lt
10003c20:	f04f 30ff 	movlt.w	r0, #4294967295
10003c24:	f06f 4100 	mvnlt.w	r1, #2147483648	; 0x80000000
10003c28:	f7ff bf90 	b.w	10003b4c <sleep_until>

10003c2c <best_effort_wfe_or_timeout>:
10003c2c:	e92d 43f0 	stmdb	sp!, {r4, r5, r6, r7, r8, r9, lr}
10003c30:	4607      	mov	r7, r0
10003c32:	460e      	mov	r6, r1
10003c34:	b083      	sub	sp, #12
10003c36:	f3ef 8405 	mrs	r4, IPSR
10003c3a:	b2e4      	uxtb	r4, r4
10003c3c:	b174      	cbz	r4, 10003c5c <best_effort_wfe_or_timeout+0x30>
10003c3e:	4b2f      	ldr	r3, [pc, #188]	; (10003cfc <best_effort_wfe_or_timeout+0xd0>)
10003c40:	6a58      	ldr	r0, [r3, #36]	; 0x24
10003c42:	4288      	cmp	r0, r1
10003c44:	d203      	bcs.n	10003c4e <best_effort_wfe_or_timeout+0x22>
10003c46:	2000      	movs	r0, #0
10003c48:	b003      	add	sp, #12
10003c4a:	e8bd 83f0 	ldmia.w	sp!, {r4, r5, r6, r7, r8, r9, pc}
10003c4e:	6a9b      	ldr	r3, [r3, #40]	; 0x28
10003c50:	42bb      	cmp	r3, r7
10003c52:	d348      	bcc.n	10003ce6 <best_effort_wfe_or_timeout+0xba>
10003c54:	2001      	movs	r0, #1
10003c56:	b003      	add	sp, #12
10003c58:	e8bd 83f0 	ldmia.w	sp!, {r4, r5, r6, r7, r8, r9, pc}
10003c5c:	4d28      	ldr	r5, [pc, #160]	; (10003d00 <best_effort_wfe_or_timeout+0xd4>)
10003c5e:	f8d5 900c 	ldr.w	r9, [r5, #12]
10003c62:	f895 8000 	ldrb.w	r8, [r5]
10003c66:	4648      	mov	r0, r9
10003c68:	f000 f860 	bl	10003d2c <timer_time_us_64>
10003c6c:	f108 0804 	add.w	r8, r8, #4
10003c70:	f859 3028 	ldr.w	r3, [r9, r8, lsl #2]
10003c74:	1a1b      	subs	r3, r3, r0
10003c76:	1a38      	subs	r0, r7, r0
10003c78:	eb66 0101 	sbc.w	r1, r6, r1
10003c7c:	4298      	cmp	r0, r3
10003c7e:	f171 0300 	sbcs.w	r3, r1, #0
10003c82:	db0d      	blt.n	10003ca0 <best_effort_wfe_or_timeout+0x74>
10003c84:	bf20      	wfe
10003c86:	4b1d      	ldr	r3, [pc, #116]	; (10003cfc <best_effort_wfe_or_timeout+0xd0>)
10003c88:	6a58      	ldr	r0, [r3, #36]	; 0x24
10003c8a:	4286      	cmp	r6, r0
10003c8c:	d8db      	bhi.n	10003c46 <best_effort_wfe_or_timeout+0x1a>
10003c8e:	6a9b      	ldr	r3, [r3, #40]	; 0x28
10003c90:	42bb      	cmp	r3, r7
10003c92:	d2df      	bcs.n	10003c54 <best_effort_wfe_or_timeout+0x28>
10003c94:	1a30      	subs	r0, r6, r0
10003c96:	bf18      	it	ne
10003c98:	2001      	movne	r0, #1
10003c9a:	b003      	add	sp, #12
10003c9c:	e8bd 83f0 	ldmia.w	sp!, {r4, r5, r6, r7, r8, r9, pc}
10003ca0:	f000 f84c 	bl	10003d3c <time_us_64>
10003ca4:	4287      	cmp	r7, r0
10003ca6:	eb66 0101 	sbc.w	r1, r6, r1
10003caa:	2900      	cmp	r1, #0
10003cac:	db13      	blt.n	10003cd6 <best_effort_wfe_or_timeout+0xaa>
10003cae:	4b15      	ldr	r3, [pc, #84]	; (10003d04 <best_effort_wfe_or_timeout+0xd8>)
10003cb0:	4628      	mov	r0, r5
10003cb2:	e9cd 3400 	strd	r3, r4, [sp]
10003cb6:	463a      	mov	r2, r7
10003cb8:	4633      	mov	r3, r6
10003cba:	f7ff fea3 	bl	10003a04 <alarm_pool_add_alarm_at_force_in_context>
10003cbe:	1e01      	subs	r1, r0, #0
10003cc0:	dd09      	ble.n	10003cd6 <best_effort_wfe_or_timeout+0xaa>
10003cc2:	4b0e      	ldr	r3, [pc, #56]	; (10003cfc <best_effort_wfe_or_timeout+0xd0>)
10003cc4:	6a5a      	ldr	r2, [r3, #36]	; 0x24
10003cc6:	4296      	cmp	r6, r2
10003cc8:	d815      	bhi.n	10003cf6 <best_effort_wfe_or_timeout+0xca>
10003cca:	6a9b      	ldr	r3, [r3, #40]	; 0x28
10003ccc:	42bb      	cmp	r3, r7
10003cce:	d310      	bcc.n	10003cf2 <best_effort_wfe_or_timeout+0xc6>
10003cd0:	480b      	ldr	r0, [pc, #44]	; (10003d00 <best_effort_wfe_or_timeout+0xd4>)
10003cd2:	f7ff fef9 	bl	10003ac8 <alarm_pool_cancel_alarm>
10003cd6:	4b09      	ldr	r3, [pc, #36]	; (10003cfc <best_effort_wfe_or_timeout+0xd0>)
10003cd8:	6a58      	ldr	r0, [r3, #36]	; 0x24
10003cda:	4286      	cmp	r6, r0
10003cdc:	d8b3      	bhi.n	10003c46 <best_effort_wfe_or_timeout+0x1a>
10003cde:	6a9b      	ldr	r3, [r3, #40]	; 0x28
10003ce0:	42bb      	cmp	r3, r7
10003ce2:	d2b7      	bcs.n	10003c54 <best_effort_wfe_or_timeout+0x28>
10003ce4:	e7d6      	b.n	10003c94 <best_effort_wfe_or_timeout+0x68>
10003ce6:	1a40      	subs	r0, r0, r1
10003ce8:	bf18      	it	ne
10003cea:	2001      	movne	r0, #1
10003cec:	b003      	add	sp, #12
10003cee:	e8bd 83f0 	ldmia.w	sp!, {r4, r5, r6, r7, r8, r9, pc}
10003cf2:	4296      	cmp	r6, r2
10003cf4:	d1ec      	bne.n	10003cd0 <best_effort_wfe_or_timeout+0xa4>
10003cf6:	bf20      	wfe
10003cf8:	e7ea      	b.n	10003cd0 <best_effort_wfe_or_timeout+0xa4>
10003cfa:	bf00      	nop
10003cfc:	400b0000 	.word	0x400b0000
10003d00:	200011e8 	.word	0x200011e8
10003d04:	100034e5 	.word	0x100034e5

10003d08 <timer_hardware_alarm_claim>:
10003d08:	b410      	push	{r4}
10003d0a:	4b05      	ldr	r3, [pc, #20]	; (10003d20 <timer_hardware_alarm_claim+0x18>)
10003d0c:	4c05      	ldr	r4, [pc, #20]	; (10003d24 <timer_hardware_alarm_claim+0x1c>)
10003d0e:	4a06      	ldr	r2, [pc, #24]	; (10003d28 <timer_hardware_alarm_claim+0x20>)
10003d10:	42a0      	cmp	r0, r4
10003d12:	bf14      	ite	ne
10003d14:	4618      	movne	r0, r3
10003d16:	1c58      	addeq	r0, r3, #1
10003d18:	f85d 4b04 	ldr.w	r4, [sp], #4
10003d1c:	f7ff b8e8 	b.w	10002ef0 <hw_claim_or_assert>
10003d20:	20002b74 	.word	0x20002b74
10003d24:	400b8000 	.word	0x400b8000
10003d28:	10009158 	.word	0x10009158

10003d2c <timer_time_us_64>:
10003d2c:	6a41      	ldr	r1, [r0, #36]	; 0x24
10003d2e:	460b      	mov	r3, r1
10003d30:	6a82      	ldr	r2, [r0, #40]	; 0x28
10003d32:	6a41      	ldr	r1, [r0, #36]	; 0x24
10003d34:	428b      	cmp	r3, r1
10003d36:	d1fa      	bne.n	10003d2e <timer_time_us_64+0x2>
10003d38:	4610      	mov	r0, r2
10003d3a:	4770      	bx	lr

10003d3c <time_us_64>:
10003d3c:	4b03      	ldr	r3, [pc, #12]	; (10003d4c <time_us_64+0x10>)
10003d3e:	6a59      	ldr	r1, [r3, #36]	; 0x24
10003d40:	460a      	mov	r2, r1
10003d42:	6a98      	ldr	r0, [r3, #40]	; 0x28
10003d44:	6a59      	ldr	r1, [r3, #36]	; 0x24
10003d46:	4291      	cmp	r1, r2
10003d48:	d1fa      	bne.n	10003d40 <time_us_64+0x4>
10003d4a:	4770      	bx	lr
10003d4c:	400b0000 	.word	0x400b0000

10003d50 <busy_wait_until>:
10003d50:	4a07      	ldr	r2, [pc, #28]	; (10003d70 <busy_wait_until+0x20>)
10003d52:	6a53      	ldr	r3, [r2, #36]	; 0x24
10003d54:	4299      	cmp	r1, r3
10003d56:	d8fc      	bhi.n	10003d52 <busy_wait_until+0x2>
10003d58:	4299      	cmp	r1, r3
10003d5a:	d107      	bne.n	10003d6c <busy_wait_until+0x1c>
10003d5c:	4b04      	ldr	r3, [pc, #16]	; (10003d70 <busy_wait_until+0x20>)
10003d5e:	e002      	b.n	10003d66 <busy_wait_until+0x16>
10003d60:	6a5a      	ldr	r2, [r3, #36]	; 0x24
10003d62:	4291      	cmp	r1, r2
10003d64:	d102      	bne.n	10003d6c <busy_wait_until+0x1c>
10003d66:	6a9a      	ldr	r2, [r3, #40]	; 0x28
10003d68:	4282      	cmp	r2, r0
10003d6a:	d3f9      	bcc.n	10003d60 <busy_wait_until+0x10>
10003d6c:	4770      	bx	lr
10003d6e:	bf00      	nop
10003d70:	400b0000 	.word	0x400b0000

10003d74 <clock_configure_undivided>:
10003d74:	eb00 0c40 	add.w	ip, r0, r0, lsl #1
10003d78:	ea4f 0c8c 	mov.w	ip, ip, lsl #2
10003d7c:	f10c 4c80 	add.w	ip, ip, #1073741824	; 0x40000000
10003d80:	f50c 3c80 	add.w	ip, ip, #65536	; 0x10000
10003d84:	b570      	push	{r4, r5, r6, lr}
10003d86:	f8dc 4004 	ldr.w	r4, [ip, #4]
10003d8a:	f1a0 0e04 	sub.w	lr, r0, #4
10003d8e:	f5b4 3f80 	cmp.w	r4, #65536	; 0x10000
10003d92:	bf38      	it	cc
10003d94:	f44f 3480 	movcc.w	r4, #65536	; 0x10000
10003d98:	fa5f fe8e 	uxtb.w	lr, lr
10003d9c:	bf38      	it	cc
10003d9e:	f8cc 4004 	strcc.w	r4, [ip, #4]
10003da2:	f1be 0f01 	cmp.w	lr, #1
10003da6:	d929      	bls.n	10003dfc <clock_configure_undivided+0x88>
10003da8:	f44f 6600 	mov.w	r6, #2048	; 0x800
10003dac:	4d24      	ldr	r5, [pc, #144]	; (10003e40 <clock_configure_undivided+0xcc>)
10003dae:	f50c 5440 	add.w	r4, ip, #12288	; 0x3000
10003db2:	6026      	str	r6, [r4, #0]
10003db4:	f855 6020 	ldr.w	r6, [r5, r0, lsl #2]
10003db8:	b9be      	cbnz	r6, 10003dea <clock_configure_undivided+0x76>
10003dba:	f8dc 4000 	ldr.w	r4, [ip]
10003dbe:	f50c 5680 	add.w	r6, ip, #4096	; 0x1000
10003dc2:	ea84 1242 	eor.w	r2, r4, r2, lsl #5
10003dc6:	f002 02e0 	and.w	r2, r2, #224	; 0xe0
10003dca:	f1be 0f01 	cmp.w	lr, #1
10003dce:	6032      	str	r2, [r6, #0]
10003dd0:	d928      	bls.n	10003e24 <clock_configure_undivided+0xb0>
10003dd2:	f44f 6100 	mov.w	r1, #2048	; 0x800
10003dd6:	f845 3020 	str.w	r3, [r5, r0, lsl #2]
10003dda:	f44f 3380 	mov.w	r3, #65536	; 0x10000
10003dde:	f50c 5200 	add.w	r2, ip, #8192	; 0x2000
10003de2:	6011      	str	r1, [r2, #0]
10003de4:	f8cc 3004 	str.w	r3, [ip, #4]
10003de8:	bd70      	pop	{r4, r5, r6, pc}
10003dea:	696c      	ldr	r4, [r5, #20]
10003dec:	fbb4 f4f6 	udiv	r4, r4, r6
10003df0:	3401      	adds	r4, #1
10003df2:	eb04 0444 	add.w	r4, r4, r4, lsl #1
10003df6:	3c03      	subs	r4, #3
10003df8:	d2fd      	bcs.n	10003df6 <clock_configure_undivided+0x82>
10003dfa:	e7de      	b.n	10003dba <clock_configure_undivided+0x46>
10003dfc:	2901      	cmp	r1, #1
10003dfe:	d1d3      	bne.n	10003da8 <clock_configure_undivided+0x34>
10003e00:	2503      	movs	r5, #3
10003e02:	f50c 5440 	add.w	r4, ip, #12288	; 0x3000
10003e06:	6025      	str	r5, [r4, #0]
10003e08:	f8dc 4008 	ldr.w	r4, [ip, #8]
10003e0c:	07e4      	lsls	r4, r4, #31
10003e0e:	d5fb      	bpl.n	10003e08 <clock_configure_undivided+0x94>
10003e10:	f8dc 4000 	ldr.w	r4, [ip]
10003e14:	f50c 5680 	add.w	r6, ip, #4096	; 0x1000
10003e18:	ea84 1242 	eor.w	r2, r4, r2, lsl #5
10003e1c:	f002 02e0 	and.w	r2, r2, #224	; 0xe0
10003e20:	4d07      	ldr	r5, [pc, #28]	; (10003e40 <clock_configure_undivided+0xcc>)
10003e22:	6032      	str	r2, [r6, #0]
10003e24:	2201      	movs	r2, #1
10003e26:	f8dc 4000 	ldr.w	r4, [ip]
10003e2a:	404c      	eors	r4, r1
10003e2c:	f004 0403 	and.w	r4, r4, #3
10003e30:	6034      	str	r4, [r6, #0]
10003e32:	fa02 f101 	lsl.w	r1, r2, r1
10003e36:	f8dc 2008 	ldr.w	r2, [ip, #8]
10003e3a:	420a      	tst	r2, r1
10003e3c:	d0fb      	beq.n	10003e36 <clock_configure_undivided+0xc2>
10003e3e:	e7c8      	b.n	10003dd2 <clock_configure_undivided+0x5e>
10003e40:	20002b78 	.word	0x20002b78

10003e44 <clock_get_hz>:
10003e44:	4b01      	ldr	r3, [pc, #4]	; (10003e4c <clock_get_hz+0x8>)
10003e46:	f853 0020 	ldr.w	r0, [r3, r0, lsl #2]
10003e4a:	4770      	bx	lr
10003e4c:	20002b78 	.word	0x20002b78

10003e50 <clock_gpio_init_int_frac16>:
10003e50:	280d      	cmp	r0, #13
10003e52:	d024      	beq.n	10003e9e <clock_gpio_init_int_frac16+0x4e>
10003e54:	280f      	cmp	r0, #15
10003e56:	d00c      	beq.n	10003e72 <clock_gpio_init_int_frac16+0x22>
10003e58:	2815      	cmp	r0, #21
10003e5a:	d020      	beq.n	10003e9e <clock_gpio_init_int_frac16+0x4e>
10003e5c:	2817      	cmp	r0, #23
10003e5e:	d008      	beq.n	10003e72 <clock_gpio_init_int_frac16+0x22>
10003e60:	2818      	cmp	r0, #24
10003e62:	d01f      	beq.n	10003ea4 <clock_gpio_init_int_frac16+0x54>
10003e64:	2819      	cmp	r0, #25
10003e66:	bf14      	ite	ne
10003e68:	f04f 0c00 	movne.w	ip, #0
10003e6c:	f04f 0c03 	moveq.w	ip, #3
10003e70:	e001      	b.n	10003e76 <clock_gpio_init_int_frac16+0x26>
10003e72:	f04f 0c01 	mov.w	ip, #1
10003e76:	eb0c 0c4c 	add.w	ip, ip, ip, lsl #1
10003e7a:	ea4f 0c8c 	mov.w	ip, ip, lsl #2
10003e7e:	0149      	lsls	r1, r1, #5
10003e80:	f10c 4c80 	add.w	ip, ip, #1073741824	; 0x40000000
10003e84:	f50c 3c80 	add.w	ip, ip, #65536	; 0x10000
10003e88:	f441 6100 	orr.w	r1, r1, #2048	; 0x800
10003e8c:	ea43 4302 	orr.w	r3, r3, r2, lsl #16
10003e90:	f8cc 1000 	str.w	r1, [ip]
10003e94:	2109      	movs	r1, #9
10003e96:	f8cc 3004 	str.w	r3, [ip, #4]
10003e9a:	f7fe bf9b 	b.w	10002dd4 <gpio_set_function>
10003e9e:	f04f 0c00 	mov.w	ip, #0
10003ea2:	e7e8      	b.n	10003e76 <clock_gpio_init_int_frac16+0x26>
10003ea4:	f04f 0c02 	mov.w	ip, #2
10003ea8:	e7e5      	b.n	10003e76 <clock_gpio_init_int_frac16+0x26>
10003eaa:	bf00      	nop

10003eac <set_sys_clock_pll>:
10003eac:	4b5b      	ldr	r3, [pc, #364]	; (1000401c <set_sys_clock_pll+0x170>)
10003eae:	e92d 4ff0 	stmdb	sp!, {r4, r5, r6, r7, r8, r9, sl, fp, lr}
10003eb2:	6c1d      	ldr	r5, [r3, #64]	; 0x40
10003eb4:	4692      	mov	sl, r2
10003eb6:	f5b5 3f80 	cmp.w	r5, #65536	; 0x10000
10003eba:	bf3c      	itt	cc
10003ebc:	f44f 3280 	movcc.w	r2, #65536	; 0x10000
10003ec0:	641a      	strcc	r2, [r3, #64]	; 0x40
10003ec2:	2303      	movs	r3, #3
10003ec4:	4683      	mov	fp, r0
10003ec6:	460c      	mov	r4, r1
10003ec8:	f8df 9180 	ldr.w	r9, [pc, #384]	; 1000404c <set_sys_clock_pll+0x1a0>
10003ecc:	4a53      	ldr	r2, [pc, #332]	; (1000401c <set_sys_clock_pll+0x170>)
10003ece:	b083      	sub	sp, #12
10003ed0:	f8c9 3000 	str.w	r3, [r9]
10003ed4:	6c53      	ldr	r3, [r2, #68]	; 0x44
10003ed6:	07de      	lsls	r6, r3, #31
10003ed8:	d5fc      	bpl.n	10003ed4 <set_sys_clock_pll+0x28>
10003eda:	6bd3      	ldr	r3, [r2, #60]	; 0x3c
10003edc:	f8df 8170 	ldr.w	r8, [pc, #368]	; 10004050 <set_sys_clock_pll+0x1a4>
10003ee0:	f083 0320 	eor.w	r3, r3, #32
10003ee4:	f003 03e0 	and.w	r3, r3, #224	; 0xe0
10003ee8:	f8c8 3000 	str.w	r3, [r8]
10003eec:	6bd3      	ldr	r3, [r2, #60]	; 0x3c
10003eee:	4e4b      	ldr	r6, [pc, #300]	; (1000401c <set_sys_clock_pll+0x170>)
10003ef0:	f083 0301 	eor.w	r3, r3, #1
10003ef4:	f003 0303 	and.w	r3, r3, #3
10003ef8:	f8c8 3000 	str.w	r3, [r8]
10003efc:	6c73      	ldr	r3, [r6, #68]	; 0x44
10003efe:	079d      	lsls	r5, r3, #30
10003f00:	d5fc      	bpl.n	10003efc <set_sys_clock_pll+0x50>
10003f02:	f44f 6300 	mov.w	r3, #2048	; 0x800
10003f06:	4f46      	ldr	r7, [pc, #280]	; (10004020 <set_sys_clock_pll+0x174>)
10003f08:	4d46      	ldr	r5, [pc, #280]	; (10004024 <set_sys_clock_pll+0x178>)
10003f0a:	603b      	str	r3, [r7, #0]
10003f0c:	f44f 3380 	mov.w	r3, #65536	; 0x10000
10003f10:	6433      	str	r3, [r6, #64]	; 0x40
10003f12:	4b45      	ldr	r3, [pc, #276]	; (10004028 <set_sys_clock_pll+0x17c>)
10003f14:	465a      	mov	r2, fp
10003f16:	4845      	ldr	r0, [pc, #276]	; (1000402c <set_sys_clock_pll+0x180>)
10003f18:	f8cd a000 	str.w	sl, [sp]
10003f1c:	2101      	movs	r1, #1
10003f1e:	616b      	str	r3, [r5, #20]
10003f20:	4623      	mov	r3, r4
10003f22:	f000 f951 	bl	100041c8 <pll_init>
10003f26:	6b73      	ldr	r3, [r6, #52]	; 0x34
10003f28:	f44f 6200 	mov.w	r2, #2048	; 0x800
10003f2c:	f5b3 3f80 	cmp.w	r3, #65536	; 0x10000
10003f30:	bf38      	it	cc
10003f32:	f44f 3380 	movcc.w	r3, #65536	; 0x10000
10003f36:	fb0a f404 	mul.w	r4, sl, r4
10003f3a:	bf38      	it	cc
10003f3c:	6373      	strcc	r3, [r6, #52]	; 0x34
10003f3e:	4b3c      	ldr	r3, [pc, #240]	; (10004030 <set_sys_clock_pll+0x184>)
10003f40:	fbbb f0f4 	udiv	r0, fp, r4
10003f44:	601a      	str	r2, [r3, #0]
10003f46:	692a      	ldr	r2, [r5, #16]
10003f48:	b13a      	cbz	r2, 10003f5a <set_sys_clock_pll+0xae>
10003f4a:	696b      	ldr	r3, [r5, #20]
10003f4c:	fbb3 f3f2 	udiv	r3, r3, r2
10003f50:	3301      	adds	r3, #1
10003f52:	eb03 0343 	add.w	r3, r3, r3, lsl #1
10003f56:	3b03      	subs	r3, #3
10003f58:	d2fd      	bcs.n	10003f56 <set_sys_clock_pll+0xaa>
10003f5a:	4b30      	ldr	r3, [pc, #192]	; (1000401c <set_sys_clock_pll+0x170>)
10003f5c:	4935      	ldr	r1, [pc, #212]	; (10004034 <set_sys_clock_pll+0x188>)
10003f5e:	6b1a      	ldr	r2, [r3, #48]	; 0x30
10003f60:	f002 02e0 	and.w	r2, r2, #224	; 0xe0
10003f64:	600a      	str	r2, [r1, #0]
10003f66:	6b1a      	ldr	r2, [r3, #48]	; 0x30
10003f68:	f082 0202 	eor.w	r2, r2, #2
10003f6c:	f002 0203 	and.w	r2, r2, #3
10003f70:	600a      	str	r2, [r1, #0]
10003f72:	6b9a      	ldr	r2, [r3, #56]	; 0x38
10003f74:	0754      	lsls	r4, r2, #29
10003f76:	d5fc      	bpl.n	10003f72 <set_sys_clock_pll+0xc6>
10003f78:	f44f 6400 	mov.w	r4, #2048	; 0x800
10003f7c:	f44f 3280 	mov.w	r2, #65536	; 0x10000
10003f80:	492d      	ldr	r1, [pc, #180]	; (10004038 <set_sys_clock_pll+0x18c>)
10003f82:	600c      	str	r4, [r1, #0]
10003f84:	492d      	ldr	r1, [pc, #180]	; (1000403c <set_sys_clock_pll+0x190>)
10003f86:	635a      	str	r2, [r3, #52]	; 0x34
10003f88:	6129      	str	r1, [r5, #16]
10003f8a:	6c19      	ldr	r1, [r3, #64]	; 0x40
10003f8c:	4291      	cmp	r1, r2
10003f8e:	bf38      	it	cc
10003f90:	641a      	strcc	r2, [r3, #64]	; 0x40
10003f92:	2303      	movs	r3, #3
10003f94:	4a21      	ldr	r2, [pc, #132]	; (1000401c <set_sys_clock_pll+0x170>)
10003f96:	f8c9 3000 	str.w	r3, [r9]
10003f9a:	6c53      	ldr	r3, [r2, #68]	; 0x44
10003f9c:	07d9      	lsls	r1, r3, #31
10003f9e:	d5fc      	bpl.n	10003f9a <set_sys_clock_pll+0xee>
10003fa0:	6bd3      	ldr	r3, [r2, #60]	; 0x3c
10003fa2:	f003 03e0 	and.w	r3, r3, #224	; 0xe0
10003fa6:	f8c8 3000 	str.w	r3, [r8]
10003faa:	6bd3      	ldr	r3, [r2, #60]	; 0x3c
10003fac:	4a1b      	ldr	r2, [pc, #108]	; (1000401c <set_sys_clock_pll+0x170>)
10003fae:	f083 0301 	eor.w	r3, r3, #1
10003fb2:	f003 0303 	and.w	r3, r3, #3
10003fb6:	f8c8 3000 	str.w	r3, [r8]
10003fba:	6c53      	ldr	r3, [r2, #68]	; 0x44
10003fbc:	079b      	lsls	r3, r3, #30
10003fbe:	d5fc      	bpl.n	10003fba <set_sys_clock_pll+0x10e>
10003fc0:	f44f 3380 	mov.w	r3, #65536	; 0x10000
10003fc4:	f44f 6100 	mov.w	r1, #2048	; 0x800
10003fc8:	6168      	str	r0, [r5, #20]
10003fca:	6039      	str	r1, [r7, #0]
10003fcc:	6413      	str	r3, [r2, #64]	; 0x40
10003fce:	6cd1      	ldr	r1, [r2, #76]	; 0x4c
10003fd0:	4299      	cmp	r1, r3
10003fd2:	f44f 6100 	mov.w	r1, #2048	; 0x800
10003fd6:	bf38      	it	cc
10003fd8:	64d3      	strcc	r3, [r2, #76]	; 0x4c
10003fda:	69aa      	ldr	r2, [r5, #24]
10003fdc:	4b18      	ldr	r3, [pc, #96]	; (10004040 <set_sys_clock_pll+0x194>)
10003fde:	6019      	str	r1, [r3, #0]
10003fe0:	b13a      	cbz	r2, 10003ff2 <set_sys_clock_pll+0x146>
10003fe2:	696b      	ldr	r3, [r5, #20]
10003fe4:	fbb3 f3f2 	udiv	r3, r3, r2
10003fe8:	3301      	adds	r3, #1
10003fea:	eb03 0343 	add.w	r3, r3, r3, lsl #1
10003fee:	3b03      	subs	r3, #3
10003ff0:	d2fd      	bcs.n	10003fee <set_sys_clock_pll+0x142>
10003ff2:	f44f 6000 	mov.w	r0, #2048	; 0x800
10003ff6:	f44f 3180 	mov.w	r1, #65536	; 0x10000
10003ffa:	4a08      	ldr	r2, [pc, #32]	; (1000401c <set_sys_clock_pll+0x170>)
10003ffc:	4c11      	ldr	r4, [pc, #68]	; (10004044 <set_sys_clock_pll+0x198>)
10003ffe:	6c93      	ldr	r3, [r2, #72]	; 0x48
10004000:	f083 0340 	eor.w	r3, r3, #64	; 0x40
10004004:	f003 03e0 	and.w	r3, r3, #224	; 0xe0
10004008:	6023      	str	r3, [r4, #0]
1000400a:	4b0f      	ldr	r3, [pc, #60]	; (10004048 <set_sys_clock_pll+0x19c>)
1000400c:	4c06      	ldr	r4, [pc, #24]	; (10004028 <set_sys_clock_pll+0x17c>)
1000400e:	6018      	str	r0, [r3, #0]
10004010:	61ac      	str	r4, [r5, #24]
10004012:	64d1      	str	r1, [r2, #76]	; 0x4c
10004014:	b003      	add	sp, #12
10004016:	e8bd 8ff0 	ldmia.w	sp!, {r4, r5, r6, r7, r8, r9, sl, fp, pc}
1000401a:	bf00      	nop
1000401c:	40010000 	.word	0x40010000
10004020:	4001203c 	.word	0x4001203c
10004024:	20002b78 	.word	0x20002b78
10004028:	02dc6c00 	.word	0x02dc6c00
1000402c:	40050000 	.word	0x40050000
10004030:	40013030 	.word	0x40013030
10004034:	40011030 	.word	0x40011030
10004038:	40012030 	.word	0x40012030
1000403c:	00b71b00 	.word	0x00b71b00
10004040:	40013048 	.word	0x40013048
10004044:	40011048 	.word	0x40011048
10004048:	40012048 	.word	0x40012048
1000404c:	4001303c 	.word	0x4001303c
10004050:	4001103c 	.word	0x4001103c

10004054 <check_sys_clock_hz>:
10004054:	e92d 4ff0 	stmdb	sp!, {r4, r5, r6, r7, r8, r9, sl, fp, lr}
10004058:	b085      	sub	sp, #20
1000405a:	e9cd 1201 	strd	r1, r2, [sp, #4]
1000405e:	4c56      	ldr	r4, [pc, #344]	; (100041b8 <check_sys_clock_hz+0x164>)
10004060:	f8df a160 	ldr.w	sl, [pc, #352]	; 100041c4 <check_sys_clock_hz+0x170>
10004064:	9303      	str	r3, [sp, #12]
10004066:	4b55      	ldr	r3, [pc, #340]	; (100041bc <check_sys_clock_hz+0x168>)
10004068:	eb04 020a 	add.w	r2, r4, sl
1000406c:	429c      	cmp	r4, r3
1000406e:	f200 8092 	bhi.w	10004196 <check_sys_clock_hz+0x142>
10004072:	2307      	movs	r3, #7
10004074:	fb03 f703 	mul.w	r7, r3, r3
10004078:	fbb2 fef7 	udiv	lr, r2, r7
1000407c:	4570      	cmp	r0, lr
1000407e:	f04f 0c01 	mov.w	ip, #1
10004082:	f04f 0902 	mov.w	r9, #2
10004086:	f04f 0603 	mov.w	r6, #3
1000408a:	f04f 0504 	mov.w	r5, #4
1000408e:	f04f 0105 	mov.w	r1, #5
10004092:	f04f 0800 	mov.w	r8, #0
10004096:	d04b      	beq.n	10004130 <check_sys_clock_hz+0xdc>
10004098:	f1b3 0e01 	subs.w	lr, r3, #1
1000409c:	d07b      	beq.n	10004196 <check_sys_clock_hz+0x142>
1000409e:	fb03 f70e 	mul.w	r7, r3, lr
100040a2:	fbb2 fbf7 	udiv	fp, r2, r7
100040a6:	4558      	cmp	r0, fp
100040a8:	d052      	beq.n	10004150 <check_sys_clock_hz+0xfc>
100040aa:	b371      	cbz	r1, 1000410a <check_sys_clock_hz+0xb6>
100040ac:	fb01 f703 	mul.w	r7, r1, r3
100040b0:	fbb2 fbf7 	udiv	fp, r2, r7
100040b4:	4558      	cmp	r0, fp
100040b6:	d050      	beq.n	1000415a <check_sys_clock_hz+0x106>
100040b8:	b33d      	cbz	r5, 1000410a <check_sys_clock_hz+0xb6>
100040ba:	fb05 f703 	mul.w	r7, r5, r3
100040be:	fbb2 fbf7 	udiv	fp, r2, r7
100040c2:	4558      	cmp	r0, fp
100040c4:	d04f      	beq.n	10004166 <check_sys_clock_hz+0x112>
100040c6:	b306      	cbz	r6, 1000410a <check_sys_clock_hz+0xb6>
100040c8:	fb06 f703 	mul.w	r7, r6, r3
100040cc:	fbb2 fbf7 	udiv	fp, r2, r7
100040d0:	4558      	cmp	r0, fp
100040d2:	d04e      	beq.n	10004172 <check_sys_clock_hz+0x11e>
100040d4:	f1b9 0f00 	cmp.w	r9, #0
100040d8:	d017      	beq.n	1000410a <check_sys_clock_hz+0xb6>
100040da:	fb03 f709 	mul.w	r7, r3, r9
100040de:	fbb2 fbf7 	udiv	fp, r2, r7
100040e2:	4558      	cmp	r0, fp
100040e4:	d04b      	beq.n	1000417e <check_sys_clock_hz+0x12a>
100040e6:	f1bc 0f00 	cmp.w	ip, #0
100040ea:	d00e      	beq.n	1000410a <check_sys_clock_hz+0xb6>
100040ec:	fb0c f703 	mul.w	r7, ip, r3
100040f0:	fbb2 fbf7 	udiv	fp, r2, r7
100040f4:	4558      	cmp	r0, fp
100040f6:	d048      	beq.n	1000418a <check_sys_clock_hz+0x136>
100040f8:	f1b8 0f00 	cmp.w	r8, #0
100040fc:	d005      	beq.n	1000410a <check_sys_clock_hz+0xb6>
100040fe:	fb03 f708 	mul.w	r7, r3, r8
10004102:	fbb2 fbf7 	udiv	fp, r2, r7
10004106:	4583      	cmp	fp, r0
10004108:	d04f      	beq.n	100041aa <check_sys_clock_hz+0x156>
1000410a:	4673      	mov	r3, lr
1000410c:	fb03 f703 	mul.w	r7, r3, r3
10004110:	fbb2 fef7 	udiv	lr, r2, r7
10004114:	4570      	cmp	r0, lr
10004116:	f108 38ff 	add.w	r8, r8, #4294967295
1000411a:	f101 31ff 	add.w	r1, r1, #4294967295
1000411e:	f105 35ff 	add.w	r5, r5, #4294967295
10004122:	f106 36ff 	add.w	r6, r6, #4294967295
10004126:	f109 39ff 	add.w	r9, r9, #4294967295
1000412a:	f10c 3cff 	add.w	ip, ip, #4294967295
1000412e:	d1b3      	bne.n	10004098 <check_sys_clock_hz+0x44>
10004130:	fb07 2710 	mls	r7, r7, r0, r2
10004134:	2f00      	cmp	r7, #0
10004136:	d1af      	bne.n	10004098 <check_sys_clock_hz+0x44>
10004138:	469e      	mov	lr, r3
1000413a:	2001      	movs	r0, #1
1000413c:	9901      	ldr	r1, [sp, #4]
1000413e:	600a      	str	r2, [r1, #0]
10004140:	9a02      	ldr	r2, [sp, #8]
10004142:	6013      	str	r3, [r2, #0]
10004144:	9b03      	ldr	r3, [sp, #12]
10004146:	f8c3 e000 	str.w	lr, [r3]
1000414a:	b005      	add	sp, #20
1000414c:	e8bd 8ff0 	ldmia.w	sp!, {r4, r5, r6, r7, r8, r9, sl, fp, pc}
10004150:	fb07 2710 	mls	r7, r7, r0, r2
10004154:	2f00      	cmp	r7, #0
10004156:	d1a8      	bne.n	100040aa <check_sys_clock_hz+0x56>
10004158:	e7ef      	b.n	1000413a <check_sys_clock_hz+0xe6>
1000415a:	fb07 2710 	mls	r7, r7, r0, r2
1000415e:	2f00      	cmp	r7, #0
10004160:	d1aa      	bne.n	100040b8 <check_sys_clock_hz+0x64>
10004162:	468e      	mov	lr, r1
10004164:	e7e9      	b.n	1000413a <check_sys_clock_hz+0xe6>
10004166:	fb07 2710 	mls	r7, r7, r0, r2
1000416a:	2f00      	cmp	r7, #0
1000416c:	d1ab      	bne.n	100040c6 <check_sys_clock_hz+0x72>
1000416e:	46ae      	mov	lr, r5
10004170:	e7e3      	b.n	1000413a <check_sys_clock_hz+0xe6>
10004172:	fb07 2710 	mls	r7, r7, r0, r2
10004176:	2f00      	cmp	r7, #0
10004178:	d1ac      	bne.n	100040d4 <check_sys_clock_hz+0x80>
1000417a:	46b6      	mov	lr, r6
1000417c:	e7dd      	b.n	1000413a <check_sys_clock_hz+0xe6>
1000417e:	fb07 2710 	mls	r7, r7, r0, r2
10004182:	2f00      	cmp	r7, #0
10004184:	d1af      	bne.n	100040e6 <check_sys_clock_hz+0x92>
10004186:	46ce      	mov	lr, r9
10004188:	e7d7      	b.n	1000413a <check_sys_clock_hz+0xe6>
1000418a:	fb07 2710 	mls	r7, r7, r0, r2
1000418e:	2f00      	cmp	r7, #0
10004190:	d1b2      	bne.n	100040f8 <check_sys_clock_hz+0xa4>
10004192:	46e6      	mov	lr, ip
10004194:	e7d1      	b.n	1000413a <check_sys_clock_hz+0xe6>
10004196:	4b0a      	ldr	r3, [pc, #40]	; (100041c0 <check_sys_clock_hz+0x16c>)
10004198:	f5a4 0437 	sub.w	r4, r4, #11993088	; 0xb70000
1000419c:	f5a4 54d8 	sub.w	r4, r4, #6912	; 0x1b00
100041a0:	429c      	cmp	r4, r3
100041a2:	f47f af60 	bne.w	10004066 <check_sys_clock_hz+0x12>
100041a6:	2000      	movs	r0, #0
100041a8:	e7cf      	b.n	1000414a <check_sys_clock_hz+0xf6>
100041aa:	fb07 2710 	mls	r7, r7, r0, r2
100041ae:	2f00      	cmp	r7, #0
100041b0:	d1ab      	bne.n	1000410a <check_sys_clock_hz+0xb6>
100041b2:	46c6      	mov	lr, r8
100041b4:	e7c1      	b.n	1000413a <check_sys_clock_hz+0xe6>
100041b6:	bf00      	nop
100041b8:	b7768d80 	.word	0xb7768d80
100041bc:	32a9f880 	.word	0x32a9f880
100041c0:	de067d80 	.word	0xde067d80
100041c4:	2cb41780 	.word	0x2cb41780

100041c8 <pll_init>:
100041c8:	b470      	push	{r4, r5, r6}
100041ca:	9c03      	ldr	r4, [sp, #12]
100041cc:	6805      	ldr	r5, [r0, #0]
100041ce:	0324      	lsls	r4, r4, #12
100041d0:	ea44 4303 	orr.w	r3, r4, r3, lsl #16
100041d4:	4c1b      	ldr	r4, [pc, #108]	; (10004244 <pll_init+0x7c>)
100041d6:	2d00      	cmp	r5, #0
100041d8:	fbb4 f4f1 	udiv	r4, r4, r1
100041dc:	fbb2 f2f4 	udiv	r2, r2, r4
100041e0:	db1f      	blt.n	10004222 <pll_init+0x5a>
100041e2:	4d19      	ldr	r5, [pc, #100]	; (10004248 <pll_init+0x80>)
100041e4:	4c19      	ldr	r4, [pc, #100]	; (1000424c <pll_init+0x84>)
100041e6:	42a8      	cmp	r0, r5
100041e8:	bf0c      	ite	eq
100041ea:	f44f 4500 	moveq.w	r5, #32768	; 0x8000
100041ee:	f44f 4580 	movne.w	r5, #16384	; 0x4000
100041f2:	4e17      	ldr	r6, [pc, #92]	; (10004250 <pll_init+0x88>)
100041f4:	6025      	str	r5, [r4, #0]
100041f6:	f504 5480 	add.w	r4, r4, #4096	; 0x1000
100041fa:	6025      	str	r5, [r4, #0]
100041fc:	68b4      	ldr	r4, [r6, #8]
100041fe:	ea35 0404 	bics.w	r4, r5, r4
10004202:	d1fb      	bne.n	100041fc <pll_init+0x34>
10004204:	2521      	movs	r5, #33	; 0x21
10004206:	f500 5440 	add.w	r4, r0, #12288	; 0x3000
1000420a:	3404      	adds	r4, #4
1000420c:	6001      	str	r1, [r0, #0]
1000420e:	6082      	str	r2, [r0, #8]
10004210:	6025      	str	r5, [r4, #0]
10004212:	6802      	ldr	r2, [r0, #0]
10004214:	2a00      	cmp	r2, #0
10004216:	dafc      	bge.n	10004212 <pll_init+0x4a>
10004218:	2208      	movs	r2, #8
1000421a:	60c3      	str	r3, [r0, #12]
1000421c:	6022      	str	r2, [r4, #0]
1000421e:	bc70      	pop	{r4, r5, r6}
10004220:	4770      	bx	lr
10004222:	6804      	ldr	r4, [r0, #0]
10004224:	f004 043f 	and.w	r4, r4, #63	; 0x3f
10004228:	428c      	cmp	r4, r1
1000422a:	d1da      	bne.n	100041e2 <pll_init+0x1a>
1000422c:	6884      	ldr	r4, [r0, #8]
1000422e:	f3c4 040b 	ubfx	r4, r4, #0, #12
10004232:	4294      	cmp	r4, r2
10004234:	d1d5      	bne.n	100041e2 <pll_init+0x1a>
10004236:	68c4      	ldr	r4, [r0, #12]
10004238:	f404 24ee 	and.w	r4, r4, #487424	; 0x77000
1000423c:	429c      	cmp	r4, r3
1000423e:	d1d0      	bne.n	100041e2 <pll_init+0x1a>
10004240:	e7ed      	b.n	1000421e <pll_init+0x56>
10004242:	bf00      	nop
10004244:	00b71b00 	.word	0x00b71b00
10004248:	40058000 	.word	0x40058000
1000424c:	40022000 	.word	0x40022000
10004250:	40020000 	.word	0x40020000

10004254 <watchdog_reboot>:
10004254:	b430      	push	{r4, r5}
10004256:	f04f 4480 	mov.w	r4, #1073741824	; 0x40000000
1000425a:	4b1d      	ldr	r3, [pc, #116]	; (100042d0 <watchdog_reboot+0x7c>)
1000425c:	601c      	str	r4, [r3, #0]
1000425e:	b1e0      	cbz	r0, 1000429a <watchdog_reboot+0x46>
10004260:	4c1c      	ldr	r4, [pc, #112]	; (100042d4 <watchdog_reboot+0x80>)
10004262:	f5a3 5340 	sub.w	r3, r3, #12288	; 0x3000
10004266:	61dc      	str	r4, [r3, #28]
10004268:	4c1b      	ldr	r4, [pc, #108]	; (100042d8 <watchdog_reboot+0x84>)
1000426a:	f040 0001 	orr.w	r0, r0, #1
1000426e:	4044      	eors	r4, r0
10004270:	621c      	str	r4, [r3, #32]
10004272:	6259      	str	r1, [r3, #36]	; 0x24
10004274:	6298      	str	r0, [r3, #40]	; 0x28
10004276:	f04f 4580 	mov.w	r5, #1073741824	; 0x40000000
1000427a:	f04f 61e0 	mov.w	r1, #117440512	; 0x7000000
1000427e:	4b14      	ldr	r3, [pc, #80]	; (100042d0 <watchdog_reboot+0x7c>)
10004280:	4816      	ldr	r0, [pc, #88]	; (100042dc <watchdog_reboot+0x88>)
10004282:	4c17      	ldr	r4, [pc, #92]	; (100042e0 <watchdog_reboot+0x8c>)
10004284:	601d      	str	r5, [r3, #0]
10004286:	6084      	str	r4, [r0, #8]
10004288:	6019      	str	r1, [r3, #0]
1000428a:	b94a      	cbnz	r2, 100042a0 <watchdog_reboot+0x4c>
1000428c:	bc30      	pop	{r4, r5}
1000428e:	f04f 4200 	mov.w	r2, #2147483648	; 0x80000000
10004292:	f5a3 5380 	sub.w	r3, r3, #4096	; 0x1000
10004296:	601a      	str	r2, [r3, #0]
10004298:	4770      	bx	lr
1000429a:	4b12      	ldr	r3, [pc, #72]	; (100042e4 <watchdog_reboot+0x90>)
1000429c:	61d8      	str	r0, [r3, #28]
1000429e:	e7ea      	b.n	10004276 <watchdog_reboot+0x22>
100042a0:	f44f 737a 	mov.w	r3, #1000	; 0x3e8
100042a4:	fb03 f202 	mul.w	r2, r3, r2
100042a8:	f1b2 7f80 	cmp.w	r2, #16777216	; 0x1000000
100042ac:	d209      	bcs.n	100042c2 <watchdog_reboot+0x6e>
100042ae:	4b0e      	ldr	r3, [pc, #56]	; (100042e8 <watchdog_reboot+0x94>)
100042b0:	601a      	str	r2, [r3, #0]
100042b2:	f04f 4180 	mov.w	r1, #1073741824	; 0x40000000
100042b6:	bc30      	pop	{r4, r5}
100042b8:	480a      	ldr	r0, [pc, #40]	; (100042e4 <watchdog_reboot+0x90>)
100042ba:	4b0c      	ldr	r3, [pc, #48]	; (100042ec <watchdog_reboot+0x98>)
100042bc:	6042      	str	r2, [r0, #4]
100042be:	6019      	str	r1, [r3, #0]
100042c0:	4770      	bx	lr
100042c2:	f06f 437f 	mvn.w	r3, #4278190080	; 0xff000000
100042c6:	4908      	ldr	r1, [pc, #32]	; (100042e8 <watchdog_reboot+0x94>)
100042c8:	461a      	mov	r2, r3
100042ca:	600b      	str	r3, [r1, #0]
100042cc:	e7f1      	b.n	100042b2 <watchdog_reboot+0x5e>
100042ce:	bf00      	nop
100042d0:	400db000 	.word	0x400db000
100042d4:	b007c0d3 	.word	0xb007c0d3
100042d8:	4ff83f2d 	.word	0x4ff83f2d
100042dc:	4001a000 	.word	0x4001a000
100042e0:	01fffff3 	.word	0x01fffff3
100042e4:	400d8000 	.word	0x400d8000
100042e8:	20002fd8 	.word	0x20002fd8
100042ec:	400da000 	.word	0x400da000

100042f0 <tick_start>:
100042f0:	2301      	movs	r3, #1
100042f2:	eb00 0040 	add.w	r0, r0, r0, lsl #1
100042f6:	0080      	lsls	r0, r0, #2
100042f8:	f100 4080 	add.w	r0, r0, #1073741824	; 0x40000000
100042fc:	f500 1084 	add.w	r0, r0, #1081344	; 0x108000
10004300:	6041      	str	r1, [r0, #4]
10004302:	6003      	str	r3, [r0, #0]
10004304:	4770      	bx	lr
10004306:	bf00      	nop

10004308 <rom_reboot.constprop.0.isra.0>:
10004308:	b510      	push	{r4, lr}
1000430a:	2400      	movs	r4, #0
1000430c:	b082      	sub	sp, #8
1000430e:	460b      	mov	r3, r1
10004310:	8ae4      	ldrh	r4, [r4, #22]
10004312:	2100      	movs	r1, #0
10004314:	e841 f100 	tt	r1, r1
10004318:	e9cd 0300 	strd	r0, r3, [sp]
1000431c:	024b      	lsls	r3, r1, #9
1000431e:	bf54      	ite	pl
10004320:	2110      	movpl	r1, #16
10004322:	2104      	movmi	r1, #4
10004324:	f244 2052 	movw	r0, #16978	; 0x4252
10004328:	47a0      	blx	r4
1000432a:	e9dd 2300 	ldrd	r2, r3, [sp]
1000432e:	4686      	mov	lr, r0
10004330:	210a      	movs	r1, #10
10004332:	f44f 7081 	mov.w	r0, #258	; 0x102
10004336:	46f4      	mov	ip, lr
10004338:	b002      	add	sp, #8
1000433a:	e8bd 4010 	ldmia.w	sp!, {r4, lr}
1000433e:	4760      	bx	ip

10004340 <rom_func_lookup>:
10004340:	2300      	movs	r3, #0
10004342:	8adb      	ldrh	r3, [r3, #22]
10004344:	2200      	movs	r2, #0
10004346:	e842 f200 	tt	r2, r2
1000434a:	0252      	lsls	r2, r2, #9
1000434c:	d401      	bmi.n	10004352 <rom_func_lookup+0x12>
1000434e:	2110      	movs	r1, #16
10004350:	4718      	bx	r3
10004352:	2104      	movs	r1, #4
10004354:	4718      	bx	r3
10004356:	bf00      	nop

10004358 <rom_reset_usb_boot_extra>:
10004358:	b508      	push	{r3, lr}
1000435a:	460b      	mov	r3, r1
1000435c:	1e01      	subs	r1, r0, #0
1000435e:	db02      	blt.n	10004366 <rom_reset_usb_boot_extra+0xe>
10004360:	b122      	cbz	r2, 1000436c <rom_reset_usb_boot_extra+0x14>
10004362:	f043 0330 	orr.w	r3, r3, #48	; 0x30
10004366:	4618      	mov	r0, r3
10004368:	f7ff ffce 	bl	10004308 <rom_reboot.constprop.0.isra.0>
1000436c:	f043 0320 	orr.w	r3, r3, #32
10004370:	e7f9      	b.n	10004366 <rom_reset_usb_boot_extra+0xe>
10004372:	bf00      	nop

10004374 <runtime_init_bootrom_locking_enable>:
10004374:	4a03      	ldr	r2, [pc, #12]	; (10004384 <runtime_init_bootrom_locking_enable+0x10>)
10004376:	f8d2 3828 	ldr.w	r3, [r2, #2088]	; 0x828
1000437a:	2b00      	cmp	r3, #0
1000437c:	d0fb      	beq.n	10004376 <runtime_init_bootrom_locking_enable+0x2>
1000437e:	f3bf 8f5f 	dmb	sy
10004382:	4770      	bx	lr
10004384:	400e0000 	.word	0x400e0000

10004388 <runtime_init_boot_locks_reset>:
10004388:	2100      	movs	r1, #0
1000438a:	4b04      	ldr	r3, [pc, #16]	; (1000439c <runtime_init_boot_locks_reset+0x14>)
1000438c:	4a04      	ldr	r2, [pc, #16]	; (100043a0 <runtime_init_boot_locks_reset+0x18>)
1000438e:	f3bf 8f5f 	dmb	sy
10004392:	f843 1b04 	str.w	r1, [r3], #4
10004396:	4293      	cmp	r3, r2
10004398:	d1f9      	bne.n	1000438e <runtime_init_boot_locks_reset+0x6>
1000439a:	4770      	bx	lr
1000439c:	400e080c 	.word	0x400e080c
100043a0:	400e082c 	.word	0x400e082c

100043a4 <xosc_init>:
100043a4:	b410      	push	{r4}
100043a6:	f44f 708d 	mov.w	r0, #282	; 0x11a
100043aa:	f44f 642a 	mov.w	r4, #2720	; 0xaa0
100043ae:	4a06      	ldr	r2, [pc, #24]	; (100043c8 <xosc_init+0x24>)
100043b0:	4b06      	ldr	r3, [pc, #24]	; (100043cc <xosc_init+0x28>)
100043b2:	4907      	ldr	r1, [pc, #28]	; (100043d0 <xosc_init+0x2c>)
100043b4:	6014      	str	r4, [r2, #0]
100043b6:	60d0      	str	r0, [r2, #12]
100043b8:	6019      	str	r1, [r3, #0]
100043ba:	6853      	ldr	r3, [r2, #4]
100043bc:	2b00      	cmp	r3, #0
100043be:	dafc      	bge.n	100043ba <xosc_init+0x16>
100043c0:	f85d 4b04 	ldr.w	r4, [sp], #4
100043c4:	4770      	bx	lr
100043c6:	bf00      	nop
100043c8:	40048000 	.word	0x40048000
100043cc:	4004a000 	.word	0x4004a000
100043d0:	00fab000 	.word	0x00fab000

100043d4 <first_per_core_initializer>:
100043d4:	4770      	bx	lr
100043d6:	bf00      	nop

100043d8 <hard_assertion_failure>:
100043d8:	b508      	push	{r3, lr}
100043da:	4801      	ldr	r0, [pc, #4]	; (100043e0 <hard_assertion_failure+0x8>)
100043dc:	f7fe fd54 	bl	10002e88 <panic>
100043e0:	1000917c 	.word	0x1000917c

100043e4 <runtime_run_initializers>:
100043e4:	b538      	push	{r3, r4, r5, lr}
100043e6:	4c05      	ldr	r4, [pc, #20]	; (100043fc <runtime_run_initializers+0x18>)
100043e8:	4d05      	ldr	r5, [pc, #20]	; (10004400 <runtime_run_initializers+0x1c>)
100043ea:	42ac      	cmp	r4, r5
100043ec:	d204      	bcs.n	100043f8 <runtime_run_initializers+0x14>
100043ee:	f854 3b04 	ldr.w	r3, [r4], #4
100043f2:	4798      	blx	r3
100043f4:	42ac      	cmp	r4, r5
100043f6:	d3fa      	bcc.n	100043ee <runtime_run_initializers+0xa>
100043f8:	bd38      	pop	{r3, r4, r5, pc}
100043fa:	bf00      	nop
100043fc:	10008ff8 	.word	0x10008ff8
10004400:	10009038 	.word	0x10009038

10004404 <runtime_init_early_resets>:
10004404:	b410      	push	{r4}
10004406:	4807      	ldr	r0, [pc, #28]	; (10004424 <runtime_init_early_resets+0x20>)
10004408:	4c07      	ldr	r4, [pc, #28]	; (10004428 <runtime_init_early_resets+0x24>)
1000440a:	4b08      	ldr	r3, [pc, #32]	; (1000442c <runtime_init_early_resets+0x28>)
1000440c:	4a08      	ldr	r2, [pc, #32]	; (10004430 <runtime_init_early_resets+0x2c>)
1000440e:	4909      	ldr	r1, [pc, #36]	; (10004434 <runtime_init_early_resets+0x30>)
10004410:	6004      	str	r4, [r0, #0]
10004412:	601a      	str	r2, [r3, #0]
10004414:	688b      	ldr	r3, [r1, #8]
10004416:	ea32 0303 	bics.w	r3, r2, r3
1000441a:	d1fb      	bne.n	10004414 <runtime_init_early_resets+0x10>
1000441c:	f85d 4b04 	ldr.w	r4, [sp], #4
10004420:	4770      	bx	lr
10004422:	bf00      	nop
10004424:	40022000 	.word	0x40022000
10004428:	efef3b7f 	.word	0xefef3b7f
1000442c:	40023000 	.word	0x40023000
10004430:	03f3fff6 	.word	0x03f3fff6
10004434:	40020000 	.word	0x40020000

10004438 <runtime_init_usb_power_down>:
10004438:	4b04      	ldr	r3, [pc, #16]	; (1000444c <runtime_init_usb_power_down+0x14>)
1000443a:	6cdb      	ldr	r3, [r3, #76]	; 0x4c
1000443c:	f5b3 4f00 	cmp.w	r3, #32768	; 0x8000
10004440:	d103      	bne.n	1000444a <runtime_init_usb_power_down+0x12>
10004442:	f44f 2280 	mov.w	r2, #262144	; 0x40000
10004446:	4b02      	ldr	r3, [pc, #8]	; (10004450 <runtime_init_usb_power_down+0x18>)
10004448:	64da      	str	r2, [r3, #76]	; 0x4c
1000444a:	4770      	bx	lr
1000444c:	50110000 	.word	0x50110000
10004450:	50112000 	.word	0x50112000

10004454 <runtime_init_per_core_enable_coprocessors>:
10004454:	f04f 22e0 	mov.w	r2, #3758153728	; 0xe000e000
10004458:	4b04      	ldr	r3, [pc, #16]	; (1000446c <runtime_init_per_core_enable_coprocessors+0x18>)
1000445a:	f8d2 1d88 	ldr.w	r1, [r2, #3464]	; 0xd88
1000445e:	430b      	orrs	r3, r1
10004460:	f8c2 3d88 	str.w	r3, [r2, #3464]	; 0xd88
10004464:	ee10 0430 	dcp_rcmp r0
10004468:	4770      	bx	lr
1000446a:	bf00      	nop
1000446c:	00300303 	.word	0x00300303

10004470 <runtime_init_post_clock_resets>:
10004470:	f06f 4160 	mvn.w	r1, #3758096384	; 0xe0000000
10004474:	4b04      	ldr	r3, [pc, #16]	; (10004488 <runtime_init_post_clock_resets+0x18>)
10004476:	4a05      	ldr	r2, [pc, #20]	; (1000448c <runtime_init_post_clock_resets+0x1c>)
10004478:	6019      	str	r1, [r3, #0]
1000447a:	6893      	ldr	r3, [r2, #8]
1000447c:	43db      	mvns	r3, r3
1000447e:	f033 4360 	bics.w	r3, r3, #3758096384	; 0xe0000000
10004482:	d1fa      	bne.n	1000447a <runtime_init_post_clock_resets+0xa>
10004484:	4770      	bx	lr
10004486:	bf00      	nop
10004488:	40023000 	.word	0x40023000
1000448c:	40020000 	.word	0x40020000

10004490 <runtime_init_bootrom_reset>:
10004490:	b510      	push	{r4, lr}
10004492:	f245 2053 	movw	r0, #21075	; 0x5253
10004496:	f7ff ff53 	bl	10004340 <rom_func_lookup>
1000449a:	e8bd 4010 	ldmia.w	sp!, {r4, lr}
1000449e:	4603      	mov	r3, r0
100044a0:	2004      	movs	r0, #4
100044a2:	4718      	bx	r3

100044a4 <runtime_init_per_core_bootrom_reset>:
100044a4:	b510      	push	{r4, lr}
100044a6:	f245 2053 	movw	r0, #21075	; 0x5253
100044aa:	f7ff ff49 	bl	10004340 <rom_func_lookup>
100044ae:	e8bd 4010 	ldmia.w	sp!, {r4, lr}
100044b2:	4603      	mov	r3, r0
100044b4:	2001      	movs	r0, #1
100044b6:	4718      	bx	r3

100044b8 <runtime_init_spin_locks_reset>:
100044b8:	f7fe bdba 	b.w	10003030 <spin_locks_reset>

100044bc <runtime_init_install_ram_vector_table>:
100044bc:	b570      	push	{r4, r5, r6, lr}
100044be:	492e      	ldr	r1, [pc, #184]	; (10004578 <runtime_init_install_ram_vector_table+0xbc>)
100044c0:	4c2e      	ldr	r4, [pc, #184]	; (1000457c <runtime_init_install_ram_vector_table+0xc0>)
100044c2:	4e2f      	ldr	r6, [pc, #188]	; (10004580 <runtime_init_install_ram_vector_table+0xc4>)
100044c4:	1a64      	subs	r4, r4, r1
100044c6:	10a5      	asrs	r5, r4, #2
100044c8:	2d44      	cmp	r5, #68	; 0x44
100044ca:	462a      	mov	r2, r5
100044cc:	bf28      	it	cs
100044ce:	2244      	movcs	r2, #68	; 0x44
100044d0:	4630      	mov	r0, r6
100044d2:	0092      	lsls	r2, r2, #2
100044d4:	f004 fc36 	bl	10008d44 <memcpy>
100044d8:	f5b4 7f86 	cmp.w	r4, #268	; 0x10c
100044dc:	d847      	bhi.n	1000456e <runtime_init_install_ram_vector_table+0xb2>
100044de:	f105 0c01 	add.w	ip, r5, #1
100044e2:	f1bc 0f44 	cmp.w	ip, #68	; 0x44
100044e6:	f1c5 0143 	rsb	r1, r5, #67	; 0x43
100044ea:	4434      	add	r4, r6
100044ec:	f1c5 0044 	rsb	r0, r5, #68	; 0x44
100044f0:	bf88      	it	hi
100044f2:	2001      	movhi	r0, #1
100044f4:	2905      	cmp	r1, #5
100044f6:	4663      	mov	r3, ip
100044f8:	4a22      	ldr	r2, [pc, #136]	; (10004584 <runtime_init_install_ram_vector_table+0xc8>)
100044fa:	f3c4 0480 	ubfx	r4, r4, #2, #1
100044fe:	d918      	bls.n	10004532 <runtime_init_install_ram_vector_table+0x76>
10004500:	f1bc 0f44 	cmp.w	ip, #68	; 0x44
10004504:	d815      	bhi.n	10004532 <runtime_init_install_ram_vector_table+0x76>
10004506:	b3ac      	cbz	r4, 10004574 <runtime_init_install_ram_vector_table+0xb8>
10004508:	f846 2025 	str.w	r2, [r6, r5, lsl #2]
1000450c:	1b00      	subs	r0, r0, r4
1000450e:	442c      	add	r4, r5
10004510:	eb06 0384 	add.w	r3, r6, r4, lsl #2
10004514:	0841      	lsrs	r1, r0, #1
10004516:	eb03 01c1 	add.w	r1, r3, r1, lsl #3
1000451a:	e9c3 2200 	strd	r2, r2, [r3]
1000451e:	3308      	adds	r3, #8
10004520:	4299      	cmp	r1, r3
10004522:	d1fa      	bne.n	1000451a <runtime_init_install_ram_vector_table+0x5e>
10004524:	f020 0301 	bic.w	r3, r0, #1
10004528:	4298      	cmp	r0, r3
1000452a:	eb0c 0503 	add.w	r5, ip, r3
1000452e:	d01e      	beq.n	1000456e <runtime_init_install_ram_vector_table+0xb2>
10004530:	1c6b      	adds	r3, r5, #1
10004532:	2b44      	cmp	r3, #68	; 0x44
10004534:	f846 2025 	str.w	r2, [r6, r5, lsl #2]
10004538:	d019      	beq.n	1000456e <runtime_init_install_ram_vector_table+0xb2>
1000453a:	2d42      	cmp	r5, #66	; 0x42
1000453c:	f846 2023 	str.w	r2, [r6, r3, lsl #2]
10004540:	f105 0302 	add.w	r3, r5, #2
10004544:	d013      	beq.n	1000456e <runtime_init_install_ram_vector_table+0xb2>
10004546:	2d41      	cmp	r5, #65	; 0x41
10004548:	f846 2023 	str.w	r2, [r6, r3, lsl #2]
1000454c:	f105 0303 	add.w	r3, r5, #3
10004550:	d00d      	beq.n	1000456e <runtime_init_install_ram_vector_table+0xb2>
10004552:	2d40      	cmp	r5, #64	; 0x40
10004554:	f846 2023 	str.w	r2, [r6, r3, lsl #2]
10004558:	f105 0304 	add.w	r3, r5, #4
1000455c:	d007      	beq.n	1000456e <runtime_init_install_ram_vector_table+0xb2>
1000455e:	2d3f      	cmp	r5, #63	; 0x3f
10004560:	f846 2023 	str.w	r2, [r6, r3, lsl #2]
10004564:	f105 0305 	add.w	r3, r5, #5
10004568:	d001      	beq.n	1000456e <runtime_init_install_ram_vector_table+0xb2>
1000456a:	f846 2023 	str.w	r2, [r6, r3, lsl #2]
1000456e:	4b06      	ldr	r3, [pc, #24]	; (10004588 <runtime_init_install_ram_vector_table+0xcc>)
10004570:	609e      	str	r6, [r3, #8]
10004572:	bd70      	pop	{r4, r5, r6, pc}
10004574:	46ac      	mov	ip, r5
10004576:	e7c9      	b.n	1000450c <runtime_init_install_ram_vector_table+0x50>
10004578:	10000000 	.word	0x10000000
1000457c:	10000110 	.word	0x10000110
10004580:	20000000 	.word	0x20000000
10004584:	10000111 	.word	0x10000111
10004588:	e000ed00 	.word	0xe000ed00

1000458c <runtime_init_clocks>:
1000458c:	2300      	movs	r3, #0
1000458e:	b5f0      	push	{r4, r5, r6, r7, lr}
10004590:	4c2b      	ldr	r4, [pc, #172]	; (10004640 <runtime_init_clocks+0xb4>)
10004592:	b083      	sub	sp, #12
10004594:	f8c4 3084 	str.w	r3, [r4, #132]	; 0x84
10004598:	f7ff ff04 	bl	100043a4 <xosc_init>
1000459c:	2201      	movs	r2, #1
1000459e:	4b29      	ldr	r3, [pc, #164]	; (10004644 <runtime_init_clocks+0xb8>)
100045a0:	63da      	str	r2, [r3, #60]	; 0x3c
100045a2:	6c63      	ldr	r3, [r4, #68]	; 0x44
100045a4:	2b01      	cmp	r3, #1
100045a6:	d1fc      	bne.n	100045a2 <runtime_init_clocks+0x16>
100045a8:	2103      	movs	r1, #3
100045aa:	4a26      	ldr	r2, [pc, #152]	; (10004644 <runtime_init_clocks+0xb8>)
100045ac:	4b24      	ldr	r3, [pc, #144]	; (10004640 <runtime_init_clocks+0xb4>)
100045ae:	6311      	str	r1, [r2, #48]	; 0x30
100045b0:	6b9d      	ldr	r5, [r3, #56]	; 0x38
100045b2:	2d01      	cmp	r5, #1
100045b4:	d1fc      	bne.n	100045b0 <runtime_init_clocks+0x24>
100045b6:	2305      	movs	r3, #5
100045b8:	2702      	movs	r7, #2
100045ba:	461e      	mov	r6, r3
100045bc:	2400      	movs	r4, #0
100045be:	4629      	mov	r1, r5
100045c0:	4a21      	ldr	r2, [pc, #132]	; (10004648 <runtime_init_clocks+0xbc>)
100045c2:	4822      	ldr	r0, [pc, #136]	; (1000464c <runtime_init_clocks+0xc0>)
100045c4:	9700      	str	r7, [sp, #0]
100045c6:	f7ff fdff 	bl	100041c8 <pll_init>
100045ca:	4629      	mov	r1, r5
100045cc:	4633      	mov	r3, r6
100045ce:	4a20      	ldr	r2, [pc, #128]	; (10004650 <runtime_init_clocks+0xc4>)
100045d0:	4820      	ldr	r0, [pc, #128]	; (10004654 <runtime_init_clocks+0xc8>)
100045d2:	9600      	str	r6, [sp, #0]
100045d4:	f7ff fdf8 	bl	100041c8 <pll_init>
100045d8:	4639      	mov	r1, r7
100045da:	4622      	mov	r2, r4
100045dc:	2004      	movs	r0, #4
100045de:	4b1e      	ldr	r3, [pc, #120]	; (10004658 <runtime_init_clocks+0xcc>)
100045e0:	f7ff fbc8 	bl	10003d74 <clock_configure_undivided>
100045e4:	4629      	mov	r1, r5
100045e6:	4622      	mov	r2, r4
100045e8:	4630      	mov	r0, r6
100045ea:	4b1c      	ldr	r3, [pc, #112]	; (1000465c <runtime_init_clocks+0xd0>)
100045ec:	f7ff fbc2 	bl	10003d74 <clock_configure_undivided>
100045f0:	4622      	mov	r2, r4
100045f2:	2008      	movs	r0, #8
100045f4:	4621      	mov	r1, r4
100045f6:	4b1a      	ldr	r3, [pc, #104]	; (10004660 <runtime_init_clocks+0xd4>)
100045f8:	f7ff fbbc 	bl	10003d74 <clock_configure_undivided>
100045fc:	4622      	mov	r2, r4
100045fe:	2009      	movs	r0, #9
10004600:	4621      	mov	r1, r4
10004602:	4b17      	ldr	r3, [pc, #92]	; (10004660 <runtime_init_clocks+0xd4>)
10004604:	f7ff fbb6 	bl	10003d74 <clock_configure_undivided>
10004608:	4622      	mov	r2, r4
1000460a:	2006      	movs	r0, #6
1000460c:	4621      	mov	r1, r4
1000460e:	4b13      	ldr	r3, [pc, #76]	; (1000465c <runtime_init_clocks+0xd0>)
10004610:	f7ff fbb0 	bl	10003d74 <clock_configure_undivided>
10004614:	4b11      	ldr	r3, [pc, #68]	; (1000465c <runtime_init_clocks+0xd0>)
10004616:	4622      	mov	r2, r4
10004618:	2007      	movs	r0, #7
1000461a:	4621      	mov	r1, r4
1000461c:	f7ff fbaa 	bl	10003d74 <clock_configure_undivided>
10004620:	2004      	movs	r0, #4
10004622:	f7ff fc0f 	bl	10003e44 <clock_get_hz>
10004626:	4d0f      	ldr	r5, [pc, #60]	; (10004664 <runtime_init_clocks+0xd8>)
10004628:	fba5 3500 	umull	r3, r5, r5, r0
1000462c:	0cad      	lsrs	r5, r5, #18
1000462e:	b2e0      	uxtb	r0, r4
10004630:	4629      	mov	r1, r5
10004632:	3401      	adds	r4, #1
10004634:	f7ff fe5c 	bl	100042f0 <tick_start>
10004638:	2c06      	cmp	r4, #6
1000463a:	d1f8      	bne.n	1000462e <runtime_init_clocks+0xa2>
1000463c:	b003      	add	sp, #12
1000463e:	bdf0      	pop	{r4, r5, r6, r7, pc}
10004640:	40010000 	.word	0x40010000
10004644:	40013000 	.word	0x40013000
10004648:	59682f00 	.word	0x59682f00
1000464c:	40050000 	.word	0x40050000
10004650:	47868c00 	.word	0x47868c00
10004654:	40058000 	.word	0x40058000
10004658:	00b71b00 	.word	0x00b71b00
1000465c:	08f0d180 	.word	0x08f0d180
10004660:	02dc6c00 	.word	0x02dc6c00
10004664:	431bde83 	.word	0x431bde83

10004668 <generic_save_state>:
10004668:	b086      	sub	sp, #24
1000466a:	b403      	push	{r0, r1}
1000466c:	fc51 0408 	dcp_pxmd r0, r1
10004670:	e9cd 0102 	strd	r0, r1, [sp, #8]
10004674:	fc51 0409 	dcp_pymd r0, r1
10004678:	e9cd 0104 	strd	r0, r1, [sp, #16]
1000467c:	ec51 040a 	dcp_refd r0, r1
10004680:	e9cd 0106 	strd	r0, r1, [sp, #24]
10004684:	bc03      	pop	{r0, r1}
10004686:	47f0      	blx	lr

10004688 <generic_restore_state>:
10004688:	e8bd 5000 	ldmia.w	sp!, {ip, lr}
1000468c:	ec4e c400 	dcp_wxmd ip, lr
10004690:	e8bd 5000 	ldmia.w	sp!, {ip, lr}
10004694:	ec4e c401 	dcp_wymd ip, lr
10004698:	e8bd 5000 	ldmia.w	sp!, {ip, lr}
1000469c:	ec4e c402 	dcp_wefd ip, lr
100046a0:	bd00      	pop	{pc}
100046a2:	0000      	movs	r0, r0
100046a4:	b500      	push	{lr}
100046a6:	f7ff ffdf 	bl	10004668 <generic_save_state>
100046aa:	e002      	b.n	100046b2 <__wrap___aeabi_dadd+0x6>

100046ac <__wrap___aeabi_dadd>:
100046ac:	fe10 f430 	dcp_pcmp APSR_nzcv
100046b0:	d4f8      	bmi.n	100046a4 <generic_restore_state+0x1c>
100046b2:	ec41 0410 	dcp_wxup r0, r1
100046b6:	ec43 2411 	dcp_wyup r2, r3
100046ba:	ee00 0401 	dcp_add0
100046be:	ee10 0401 	dcp_add1
100046c2:	ee80 0420 	dcp_nrdd
100046c6:	ec51 0410 	dcp_rdda r0, r1
100046ca:	4770      	bx	lr
100046cc:	b500      	push	{lr}
100046ce:	f7ff ffcb 	bl	10004668 <generic_save_state>
100046d2:	e002      	b.n	100046da <__wrap___aeabi_dsub+0x6>

100046d4 <__wrap___aeabi_dsub>:
100046d4:	fe10 f430 	dcp_pcmp APSR_nzcv
100046d8:	d4f8      	bmi.n	100046cc <__wrap___aeabi_dadd+0x20>
100046da:	ec41 0410 	dcp_wxup r0, r1
100046de:	ec43 2411 	dcp_wyup r2, r3
100046e2:	ee00 0401 	dcp_add0
100046e6:	ee10 0421 	dcp_sub1
100046ea:	ee80 0420 	dcp_nrdd
100046ee:	ec51 0430 	dcp_rdds r0, r1
100046f2:	4770      	bx	lr
100046f4:	b500      	push	{lr}
100046f6:	f7ff ffb7 	bl	10004668 <generic_save_state>
100046fa:	e002      	b.n	10004702 <__wrap___aeabi_dmul+0x6>

100046fc <__wrap___aeabi_dmul>:
100046fc:	fe10 f430 	dcp_pcmp APSR_nzcv
10004700:	d4f8      	bmi.n	100046f4 <__wrap___aeabi_dsub+0x20>
10004702:	b510      	push	{r4, lr}
10004704:	ec41 0410 	dcp_wxup r0, r1
10004708:	ec43 2411 	dcp_wyup r2, r3
1000470c:	ec51 0404 	dcp_rxms r0, r1, #0x0
10004710:	ec53 2405 	dcp_ryms r2, r3, #0x0
10004714:	fba0 4c02 	umull	r4, ip, r0, r2
10004718:	f05f 0e00 	movs.w	lr, #0
1000471c:	fbe0 ce03 	umlal	ip, lr, r0, r3
10004720:	fbe1 ce02 	umlal	ip, lr, r1, r2
10004724:	ec4c 4420 	dcp_wxms r4, ip
10004728:	2400      	movs	r4, #0
1000472a:	fbe1 e403 	umlal	lr, r4, r1, r3
1000472e:	ec44 e430 	dcp_wxmo lr, r4
10004732:	ee80 0420 	dcp_nrdd
10004736:	ec51 0450 	dcp_rddm r0, r1
1000473a:	e8bd 4010 	ldmia.w	sp!, {r4, lr}
1000473e:	4770      	bx	lr
10004740:	b500      	push	{lr}
10004742:	f7ff ff91 	bl	10004668 <generic_save_state>
10004746:	e002      	b.n	1000474e <__wrap___aeabi_ddiv+0x6>

10004748 <__wrap___aeabi_ddiv>:
10004748:	fe10 f430 	dcp_pcmp APSR_nzcv
1000474c:	d4f8      	bmi.n	10004740 <__wrap___aeabi_dmul+0x44>
1000474e:	ec41 0410 	dcp_wxup r0, r1
10004752:	ec43 2411 	dcp_wyup r2, r3
10004756:	ec51 0421 	dcp_rymr r0, r1
1000475a:	fba0 1201 	umull	r1, r2, r0, r1
1000475e:	ea6f 0282 	mvn.w	r2, r2, lsl #2
10004762:	fb52 0010 	smmlar	r0, r2, r0, r0
10004766:	fb52 f212 	smmulr	r2, r2, r2
1000476a:	fb52 0010 	smmlar	r0, r2, r0, r0
1000476e:	eba0 7cd0 	sub.w	ip, r0, r0, lsr #31
10004772:	ec53 2404 	dcp_rxms r2, r3, #0x0
10004776:	fb5c f113 	smmulr	r1, ip, r3
1000477a:	ec53 2415 	dcp_ryms r2, r3, #0x1
1000477e:	fba1 2002 	umull	r2, r0, r1, r2
10004782:	fb01 0003 	mla	r0, r1, r3, r0
10004786:	ec53 2444 	dcp_rxms r2, r3, #0x4
1000478a:	eba2 0000 	sub.w	r0, r2, r0
1000478e:	fb50 f21c 	smmulr	r2, r0, ip
10004792:	ea4f 1311 	mov.w	r3, r1, lsr #4
10004796:	eb12 7001 	adds.w	r0, r2, r1, lsl #28
1000479a:	eb43 71e2 	adc.w	r1, r3, r2, asr #31
1000479e:	ea40 5051 	orr.w	r0, r0, r1, lsr #21
100047a2:	ea20 5091 	bic.w	r0, r0, r1, lsr #22
100047a6:	f020 0007 	bic.w	r0, r0, #7
100047aa:	ec53 2475 	dcp_ryms r2, r3, #0x7
100047ae:	fba0 3c02 	umull	r3, ip, r0, r2
100047b2:	ec53 2475 	dcp_ryms r2, r3, #0x7
100047b6:	fb00 cc03 	mla	ip, r0, r3, ip
100047ba:	fb01 cc02 	mla	ip, r1, r2, ip
100047be:	ec53 2404 	dcp_rxms r2, r3, #0x0
100047c2:	ebac 4c82 	sub.w	ip, ip, r2, lsl #18
100047c6:	ea40 705c 	orr.w	r0, r0, ip, lsr #29
100047ca:	f1a0 0001 	sub.w	r0, r0, #1
100047ce:	ec41 0440 	dcp_wxdd r0, r1
100047d2:	ee80 0420 	dcp_nrdd
100047d6:	ec51 0470 	dcp_rddd r0, r1
100047da:	4770      	bx	lr
100047dc:	b500      	push	{lr}
100047de:	f7ff ff43 	bl	10004668 <generic_save_state>
100047e2:	e002      	b.n	100047ea <__wrap___aeabi_i2d+0x6>

100047e4 <__wrap___aeabi_i2d>:
100047e4:	fe10 f430 	dcp_pcmp APSR_nzcv
100047e8:	d4f8      	bmi.n	100047dc <__wrap___aeabi_ddiv+0x94>
100047ea:	ec40 0470 	dcp_wxic r0, r0
100047ee:	ee00 0401 	dcp_add0
100047f2:	ee10 0421 	dcp_sub1
100047f6:	ee80 0420 	dcp_nrdd
100047fa:	ec51 0430 	dcp_rdds r0, r1
100047fe:	4770      	bx	lr
10004800:	b500      	push	{lr}
10004802:	f7ff ff31 	bl	10004668 <generic_save_state>
10004806:	e002      	b.n	1000480e <__wrap___aeabi_ui2d+0x6>

10004808 <__wrap___aeabi_ui2d>:
10004808:	fe10 f430 	dcp_pcmp APSR_nzcv
1000480c:	d4f8      	bmi.n	10004800 <__wrap___aeabi_i2d+0x1c>
1000480e:	ec40 0460 	dcp_wxuc r0, r0
10004812:	ee00 0401 	dcp_add0
10004816:	ee10 0421 	dcp_sub1
1000481a:	ee80 0420 	dcp_nrdd
1000481e:	ec51 0430 	dcp_rdds r0, r1
10004822:	4770      	bx	lr
10004824:	b500      	push	{lr}
10004826:	f7ff ff1f 	bl	10004668 <generic_save_state>
1000482a:	e002      	b.n	10004832 <double2int_z_entry>

1000482c <__wrap___aeabi_d2iz>:
1000482c:	fe10 f430 	dcp_pcmp APSR_nzcv
10004830:	d4f8      	bmi.n	10004824 <__wrap___aeabi_ui2d+0x1c>

10004832 <double2int_z_entry>:
10004832:	ec41 0480 	dcp_wxdc r0, r1
10004836:	ee00 0401 	dcp_add0
1000483a:	ee10 0401 	dcp_add1
1000483e:	ee80 0440 	dcp_ntdc
10004842:	ee10 0413 	dcp_rdic r0
10004846:	4770      	bx	lr
10004848:	b500      	push	{lr}
1000484a:	f7ff ff0d 	bl	10004668 <generic_save_state>
1000484e:	e002      	b.n	10004856 <double2uint_z_entry>

10004850 <__wrap___aeabi_d2uiz>:
10004850:	fe10 f430 	dcp_pcmp APSR_nzcv
10004854:	d4f8      	bmi.n	10004848 <double2int_z_entry+0x16>

10004856 <double2uint_z_entry>:
10004856:	ec41 0480 	dcp_wxdc r0, r1
1000485a:	ee00 0401 	dcp_add0
1000485e:	ee10 0401 	dcp_add1
10004862:	ee80 0440 	dcp_ntdc
10004866:	ee10 0433 	dcp_rduc r0
1000486a:	4770      	bx	lr
1000486c:	b500      	push	{lr}
1000486e:	f7ff fefb 	bl	10004668 <generic_save_state>
10004872:	e002      	b.n	1000487a <__wrap___aeabi_dcmpun+0x6>

10004874 <__wrap___aeabi_dcmpun>:
10004874:	fe10 f430 	dcp_pcmp APSR_nzcv
10004878:	d4f8      	bmi.n	1000486c <double2uint_z_entry+0x16>
1000487a:	ec41 0410 	dcp_wxup r0, r1
1000487e:	ec43 2411 	dcp_wyup r2, r3
10004882:	ee00 0401 	dcp_add0
10004886:	ee10 0430 	dcp_rcmp r0
1000488a:	f3c0 7000 	ubfx	r0, r0, #28, #1
1000488e:	4770      	bx	lr
10004890:	b500      	push	{lr}
10004892:	f7ff fee9 	bl	10004668 <generic_save_state>
10004896:	e002      	b.n	1000489e <__wrap___aeabi_dcmplt+0x6>

10004898 <__wrap___aeabi_dcmplt>:
10004898:	fe10 f430 	dcp_pcmp APSR_nzcv
1000489c:	d4f8      	bmi.n	10004890 <__wrap___aeabi_dcmpun+0x1c>
1000489e:	ec43 2410 	dcp_wxup r2, r3
100048a2:	ec41 0411 	dcp_wyup r0, r1
100048a6:	ee00 0401 	dcp_add0
100048aa:	ee10 f430 	dcp_rcmp APSR_nzcv
100048ae:	bf8c      	ite	hi
100048b0:	2001      	movhi	r0, #1
100048b2:	2000      	movls	r0, #0
100048b4:	4770      	bx	lr
100048b6:	bf00      	nop
100048b8:	b500      	push	{lr}
100048ba:	f7ff fed5 	bl	10004668 <generic_save_state>
100048be:	e002      	b.n	100048c6 <__wrap___aeabi_dcmple+0x6>

100048c0 <__wrap___aeabi_dcmple>:
100048c0:	fe10 f430 	dcp_pcmp APSR_nzcv
100048c4:	d4f8      	bmi.n	100048b8 <__wrap___aeabi_dcmplt+0x20>
100048c6:	ec43 2410 	dcp_wxup r2, r3
100048ca:	ec41 0411 	dcp_wyup r0, r1
100048ce:	ee00 0401 	dcp_add0
100048d2:	ee10 f430 	dcp_rcmp APSR_nzcv
100048d6:	bf2c      	ite	cs
100048d8:	2001      	movcs	r0, #1
100048da:	2000      	movcc	r0, #0
100048dc:	4770      	bx	lr
100048de:	bf00      	nop
100048e0:	b500      	push	{lr}
100048e2:	f7ff fec1 	bl	10004668 <generic_save_state>
100048e6:	e002      	b.n	100048ee <__wrap___aeabi_dcmpge+0x6>

100048e8 <__wrap___aeabi_dcmpge>:
100048e8:	fe10 f430 	dcp_pcmp APSR_nzcv
100048ec:	d4f8      	bmi.n	100048e0 <__wrap___aeabi_dcmple+0x20>
100048ee:	ec41 0410 	dcp_wxup r0, r1
100048f2:	ec43 2411 	dcp_wyup r2, r3
100048f6:	ee00 0401 	dcp_add0
100048fa:	ee10 f430 	dcp_rcmp APSR_nzcv
100048fe:	bf2c      	ite	cs
10004900:	2001      	movcs	r0, #1
10004902:	2000      	movcc	r0, #0
10004904:	4770      	bx	lr
10004906:	bf00      	nop
10004908:	b500      	push	{lr}
1000490a:	f7ff fead 	bl	10004668 <generic_save_state>
1000490e:	e002      	b.n	10004916 <__wrap___aeabi_dcmpgt+0x6>

10004910 <__wrap___aeabi_dcmpgt>:
10004910:	fe10 f430 	dcp_pcmp APSR_nzcv
10004914:	d4f8      	bmi.n	10004908 <__wrap___aeabi_dcmpge+0x20>
10004916:	ec41 0410 	dcp_wxup r0, r1
1000491a:	ec43 2411 	dcp_wyup r2, r3
1000491e:	ee00 0401 	dcp_add0
10004922:	ee10 f430 	dcp_rcmp APSR_nzcv
10004926:	bf8c      	ite	hi
10004928:	2001      	movhi	r0, #1
1000492a:	2000      	movls	r0, #0
1000492c:	4770      	bx	lr
1000492e:	bf00      	nop

10004930 <__wrap_expf>:
10004930:	15c1      	asrs	r1, r0, #23
10004932:	d445      	bmi.n	100049c0 <__wrap_expf+0x90>
10004934:	2985      	cmp	r1, #133	; 0x85
10004936:	da32      	bge.n	1000499e <__wrap_expf+0x6e>
10004938:	2201      	movs	r2, #1
1000493a:	f362 50df 	bfi	r0, r2, #23, #9
1000493e:	397e      	subs	r1, #126	; 0x7e
10004940:	d42a      	bmi.n	10004998 <__wrap_expf+0x68>
10004942:	fa00 f001 	lsl.w	r0, r0, r1
10004946:	f641 5395 	movw	r3, #7573	; 0x1d95
1000494a:	f6c5 4355 	movt	r3, #23637	; 0x5c55
1000494e:	fb80 0103 	smull	r0, r1, r0, r3
10004952:	a22b      	add	r2, pc, #172	; (adr r2, 10004a00 <k_exp2>)
10004954:	ec92 4a03 	vldmia	r2, {s8-s10}
10004958:	0d82      	lsrs	r2, r0, #22
1000495a:	f361 229a 	bfi	r2, r1, #10, #17
1000495e:	ee00 2a10 	vmov	s0, r2
10004962:	eebb 0ac0 	vcvt.f32.u32	s0, s0, #32
10004966:	ee60 0a00 	vmul.f32	s1, s0, s0
1000496a:	f3c1 4244 	ubfx	r2, r1, #17, #5
1000496e:	ee20 2a04 	vmul.f32	s4, s0, s8
10004972:	a326      	add	r3, pc, #152	; (adr r3, 10004a0c <exptab3>)
10004974:	ee20 1a20 	vmul.f32	s2, s0, s1
10004978:	f853 2022 	ldr.w	r2, [r3, r2, lsl #2]
1000497c:	ee00 2aa4 	vmla.f32	s4, s1, s9
10004980:	1589      	asrs	r1, r1, #22
10004982:	ee01 2a05 	vmla.f32	s4, s2, s10
10004986:	eb02 52c1 	add.w	r2, r2, r1, lsl #23
1000498a:	ee00 2a10 	vmov	s0, r2
1000498e:	ee00 0a02 	vmla.f32	s0, s0, s4
10004992:	ee10 0a10 	vmov	r0, s0
10004996:	4770      	bx	lr
10004998:	4249      	negs	r1, r1
1000499a:	40c8      	lsrs	r0, r1
1000499c:	e7d3      	b.n	10004946 <__wrap_expf+0x16>
1000499e:	f247 2218 	movw	r2, #29208	; 0x7218
100049a2:	f2c4 22b1 	movt	r2, #17073	; 0x42b1
100049a6:	4290      	cmp	r0, r2
100049a8:	d3c6      	bcc.n	10004938 <__wrap_expf+0x8>
100049aa:	f1b0 4fff 	cmp.w	r0, #2139095040	; 0x7f800000
100049ae:	d902      	bls.n	100049b6 <__wrap_expf+0x86>
100049b0:	f450 0080 	orrs.w	r0, r0, #4194304	; 0x400000
100049b4:	4770      	bx	lr
100049b6:	f240 0000 	movw	r0, #0
100049ba:	f6c7 7080 	movt	r0, #32640	; 0x7f80
100049be:	4770      	bx	lr
100049c0:	f111 0f7b 	cmn.w	r1, #123	; 0x7b
100049c4:	da0c      	bge.n	100049e0 <__wrap_expf+0xb0>
100049c6:	2201      	movs	r2, #1
100049c8:	f362 50df 	bfi	r0, r2, #23, #9
100049cc:	3182      	adds	r1, #130	; 0x82
100049ce:	d505      	bpl.n	100049dc <__wrap_expf+0xac>
100049d0:	4249      	negs	r1, r1
100049d2:	40c8      	lsrs	r0, r1
100049d4:	f140 0000 	adc.w	r0, r0, #0
100049d8:	4240      	negs	r0, r0
100049da:	e7b4      	b.n	10004946 <__wrap_expf+0x16>
100049dc:	4088      	lsls	r0, r1
100049de:	e7fb      	b.n	100049d8 <__wrap_expf+0xa8>
100049e0:	f64a 424f 	movw	r2, #44111	; 0xac4f
100049e4:	f2cc 22ae 	movt	r2, #49838	; 0xc2ae
100049e8:	4290      	cmp	r0, r2
100049ea:	d9ec      	bls.n	100049c6 <__wrap_expf+0x96>
100049ec:	f510 0f00 	cmn.w	r0, #8388608	; 0x800000
100049f0:	d902      	bls.n	100049f8 <__wrap_expf+0xc8>
100049f2:	f450 0080 	orrs.w	r0, r0, #4194304	; 0x400000
100049f6:	4770      	bx	lr
100049f8:	f04f 0000 	mov.w	r0, #0
100049fc:	4770      	bx	lr
100049fe:	bf00      	nop

10004a00 <k_exp2>:
10004a00:	3f317218 	.word	0x3f317218
10004a04:	3e75fdf0 	.word	0x3e75fdf0
10004a08:	3d635847 	.word	0x3d635847

10004a0c <exptab3>:
10004a0c:	3f800000 	.word	0x3f800000
10004a10:	3f82cd87 	.word	0x3f82cd87
10004a14:	3f85aac3 	.word	0x3f85aac3
10004a18:	3f88980f 	.word	0x3f88980f
10004a1c:	3f8b95c2 	.word	0x3f8b95c2
10004a20:	3f8ea43a 	.word	0x3f8ea43a
10004a24:	3f91c3d3 	.word	0x3f91c3d3
10004a28:	3f94f4f0 	.word	0x3f94f4f0
10004a2c:	3f9837f0 	.word	0x3f9837f0
10004a30:	3f9b8d3a 	.word	0x3f9b8d3a
10004a34:	3f9ef532 	.word	0x3f9ef532
10004a38:	3fa27043 	.word	0x3fa27043
10004a3c:	3fa5fed7 	.word	0x3fa5fed7
10004a40:	3fa9a15b 	.word	0x3fa9a15b
10004a44:	3fad583f 	.word	0x3fad583f
10004a48:	3fb123f6 	.word	0x3fb123f6
10004a4c:	3fb504f3 	.word	0x3fb504f3
10004a50:	3fb8fbaf 	.word	0x3fb8fbaf
10004a54:	3fbd08a4 	.word	0x3fbd08a4
10004a58:	3fc12c4d 	.word	0x3fc12c4d
10004a5c:	3fc5672a 	.word	0x3fc5672a
10004a60:	3fc9b9be 	.word	0x3fc9b9be
10004a64:	3fce248c 	.word	0x3fce248c
10004a68:	3fd2a81e 	.word	0x3fd2a81e
10004a6c:	3fd744fd 	.word	0x3fd744fd
10004a70:	3fdbfbb8 	.word	0x3fdbfbb8
10004a74:	3fe0ccdf 	.word	0x3fe0ccdf
10004a78:	3fe5b907 	.word	0x3fe5b907
10004a7c:	3feac0c7 	.word	0x3feac0c7
10004a80:	3fefe4ba 	.word	0x3fefe4ba
10004a84:	3ff5257d 	.word	0x3ff5257d
10004a88:	3ffa83b3 	.word	0x3ffa83b3

10004a8c <_out_null>:
10004a8c:	4770      	bx	lr
10004a8e:	bf00      	nop

10004a90 <_out_rev>:
10004a90:	e92d 4ff8 	stmdb	sp!, {r3, r4, r5, r6, r7, r8, r9, sl, fp, lr}
10004a94:	469a      	mov	sl, r3
10004a96:	9b0d      	ldr	r3, [sp, #52]	; 0x34
10004a98:	4617      	mov	r7, r2
10004a9a:	079a      	lsls	r2, r3, #30
10004a9c:	4606      	mov	r6, r0
10004a9e:	468b      	mov	fp, r1
10004aa0:	f8dd 8028 	ldr.w	r8, [sp, #40]	; 0x28
10004aa4:	d111      	bne.n	10004aca <_out_rev+0x3a>
10004aa6:	e9dd 320b 	ldrd	r3, r2, [sp, #44]	; 0x2c
10004aaa:	4293      	cmp	r3, r2
10004aac:	d20d      	bcs.n	10004aca <_out_rev+0x3a>
10004aae:	4613      	mov	r3, r2
10004ab0:	463c      	mov	r4, r7
10004ab2:	9a0b      	ldr	r2, [sp, #44]	; 0x2c
10004ab4:	1a9d      	subs	r5, r3, r2
10004ab6:	443d      	add	r5, r7
10004ab8:	4622      	mov	r2, r4
10004aba:	4653      	mov	r3, sl
10004abc:	4659      	mov	r1, fp
10004abe:	2020      	movs	r0, #32
10004ac0:	3401      	adds	r4, #1
10004ac2:	47b0      	blx	r6
10004ac4:	42ac      	cmp	r4, r5
10004ac6:	d1f7      	bne.n	10004ab8 <_out_rev+0x28>
10004ac8:	e000      	b.n	10004acc <_out_rev+0x3c>
10004aca:	463d      	mov	r5, r7
10004acc:	9b0b      	ldr	r3, [sp, #44]	; 0x2c
10004ace:	b173      	cbz	r3, 10004aee <_out_rev+0x5e>
10004ad0:	eb08 0403 	add.w	r4, r8, r3
10004ad4:	eb04 0905 	add.w	r9, r4, r5
10004ad8:	eba9 0204 	sub.w	r2, r9, r4
10004adc:	f814 0d01 	ldrb.w	r0, [r4, #-1]!
10004ae0:	4653      	mov	r3, sl
10004ae2:	4659      	mov	r1, fp
10004ae4:	47b0      	blx	r6
10004ae6:	4544      	cmp	r4, r8
10004ae8:	d1f6      	bne.n	10004ad8 <_out_rev+0x48>
10004aea:	9b0b      	ldr	r3, [sp, #44]	; 0x2c
10004aec:	441d      	add	r5, r3
10004aee:	9b0d      	ldr	r3, [sp, #52]	; 0x34
10004af0:	079b      	lsls	r3, r3, #30
10004af2:	d50e      	bpl.n	10004b12 <_out_rev+0x82>
10004af4:	9b0c      	ldr	r3, [sp, #48]	; 0x30
10004af6:	1bef      	subs	r7, r5, r7
10004af8:	42bb      	cmp	r3, r7
10004afa:	d90a      	bls.n	10004b12 <_out_rev+0x82>
10004afc:	461c      	mov	r4, r3
10004afe:	462a      	mov	r2, r5
10004b00:	4653      	mov	r3, sl
10004b02:	4659      	mov	r1, fp
10004b04:	2020      	movs	r0, #32
10004b06:	3701      	adds	r7, #1
10004b08:	47b0      	blx	r6
10004b0a:	42bc      	cmp	r4, r7
10004b0c:	f105 0501 	add.w	r5, r5, #1
10004b10:	d8f5      	bhi.n	10004afe <_out_rev+0x6e>
10004b12:	4628      	mov	r0, r5
10004b14:	e8bd 8ff8 	ldmia.w	sp!, {r3, r4, r5, r6, r7, r8, r9, sl, fp, pc}

10004b18 <_ntoa_format>:
10004b18:	e92d 4ff0 	stmdb	sp!, {r4, r5, r6, r7, r8, r9, sl, fp, lr}
10004b1c:	9e0f      	ldr	r6, [sp, #60]	; 0x3c
10004b1e:	f8dd e024 	ldr.w	lr, [sp, #36]	; 0x24
10004b22:	f016 0f02 	tst.w	r6, #2
10004b26:	9c0a      	ldr	r4, [sp, #40]	; 0x28
10004b28:	f89d 902c 	ldrb.w	r9, [sp, #44]	; 0x2c
10004b2c:	9d0e      	ldr	r5, [sp, #56]	; 0x38
10004b2e:	e9dd 870c 	ldrd	r8, r7, [sp, #48]	; 0x30
10004b32:	d12c      	bne.n	10004b8e <_ntoa_format+0x76>
10004b34:	2d00      	cmp	r5, #0
10004b36:	d174      	bne.n	10004c22 <_ntoa_format+0x10a>
10004b38:	42bc      	cmp	r4, r7
10004b3a:	f006 0b01 	and.w	fp, r6, #1
10004b3e:	f080 80cb 	bcs.w	10004cd8 <_ntoa_format+0x1c0>
10004b42:	2c1f      	cmp	r4, #31
10004b44:	bf88      	it	hi
10004b46:	2420      	movhi	r4, #32
10004b48:	f200 80c6 	bhi.w	10004cd8 <_ntoa_format+0x1c0>
10004b4c:	f104 3cff 	add.w	ip, r4, #4294967295
10004b50:	f04f 0a30 	mov.w	sl, #48	; 0x30
10004b54:	44f4      	add	ip, lr
10004b56:	e001      	b.n	10004b5c <_ntoa_format+0x44>
10004b58:	2c20      	cmp	r4, #32
10004b5a:	d004      	beq.n	10004b66 <_ntoa_format+0x4e>
10004b5c:	3401      	adds	r4, #1
10004b5e:	42a7      	cmp	r7, r4
10004b60:	f80c af01 	strb.w	sl, [ip, #1]!
10004b64:	d8f8      	bhi.n	10004b58 <_ntoa_format+0x40>
10004b66:	f1bb 0f00 	cmp.w	fp, #0
10004b6a:	d010      	beq.n	10004b8e <_ntoa_format+0x76>
10004b6c:	42a5      	cmp	r5, r4
10004b6e:	d90e      	bls.n	10004b8e <_ntoa_format+0x76>
10004b70:	2c20      	cmp	r4, #32
10004b72:	d02d      	beq.n	10004bd0 <_ntoa_format+0xb8>
10004b74:	f104 3cff 	add.w	ip, r4, #4294967295
10004b78:	f04f 0a30 	mov.w	sl, #48	; 0x30
10004b7c:	44f4      	add	ip, lr
10004b7e:	e001      	b.n	10004b84 <_ntoa_format+0x6c>
10004b80:	2c20      	cmp	r4, #32
10004b82:	d025      	beq.n	10004bd0 <_ntoa_format+0xb8>
10004b84:	3401      	adds	r4, #1
10004b86:	42ac      	cmp	r4, r5
10004b88:	f80c af01 	strb.w	sl, [ip, #1]!
10004b8c:	d1f8      	bne.n	10004b80 <_ntoa_format+0x68>
10004b8e:	f016 0f10 	tst.w	r6, #16
10004b92:	d038      	beq.n	10004c06 <_ntoa_format+0xee>
10004b94:	f416 6f80 	tst.w	r6, #1024	; 0x400
10004b98:	d126      	bne.n	10004be8 <_ntoa_format+0xd0>
10004b9a:	bb0c      	cbnz	r4, 10004be0 <_ntoa_format+0xc8>
10004b9c:	f1b8 0f10 	cmp.w	r8, #16
10004ba0:	d07f      	beq.n	10004ca2 <_ntoa_format+0x18a>
10004ba2:	f1b8 0f02 	cmp.w	r8, #2
10004ba6:	f000 8092 	beq.w	10004cce <_ntoa_format+0x1b6>
10004baa:	2430      	movs	r4, #48	; 0x30
10004bac:	f88e 4000 	strb.w	r4, [lr]
10004bb0:	2401      	movs	r4, #1
10004bb2:	f1b9 0f00 	cmp.w	r9, #0
10004bb6:	d02b      	beq.n	10004c10 <_ntoa_format+0xf8>
10004bb8:	272d      	movs	r7, #45	; 0x2d
10004bba:	f80e 7004 	strb.w	r7, [lr, r4]
10004bbe:	3401      	adds	r4, #1
10004bc0:	e9cd 560b 	strd	r5, r6, [sp, #44]	; 0x2c
10004bc4:	e9cd e409 	strd	lr, r4, [sp, #36]	; 0x24
10004bc8:	e8bd 4ff0 	ldmia.w	sp!, {r4, r5, r6, r7, r8, r9, sl, fp, lr}
10004bcc:	f7ff bf60 	b.w	10004a90 <_out_rev>
10004bd0:	f016 0f10 	tst.w	r6, #16
10004bd4:	f04f 0420 	mov.w	r4, #32
10004bd8:	d0f2      	beq.n	10004bc0 <_ntoa_format+0xa8>
10004bda:	f416 6f80 	tst.w	r6, #1024	; 0x400
10004bde:	d103      	bne.n	10004be8 <_ntoa_format+0xd0>
10004be0:	42a7      	cmp	r7, r4
10004be2:	d049      	beq.n	10004c78 <_ntoa_format+0x160>
10004be4:	42a5      	cmp	r5, r4
10004be6:	d047      	beq.n	10004c78 <_ntoa_format+0x160>
10004be8:	f1b8 0f10 	cmp.w	r8, #16
10004bec:	d04e      	beq.n	10004c8c <_ntoa_format+0x174>
10004bee:	f1b8 0f02 	cmp.w	r8, #2
10004bf2:	d039      	beq.n	10004c68 <_ntoa_format+0x150>
10004bf4:	2c20      	cmp	r4, #32
10004bf6:	d0e3      	beq.n	10004bc0 <_ntoa_format+0xa8>
10004bf8:	f04f 0c30 	mov.w	ip, #48	; 0x30
10004bfc:	eb0e 0704 	add.w	r7, lr, r4
10004c00:	f887 c000 	strb.w	ip, [r7]
10004c04:	3401      	adds	r4, #1
10004c06:	2c20      	cmp	r4, #32
10004c08:	d0da      	beq.n	10004bc0 <_ntoa_format+0xa8>
10004c0a:	f1b9 0f00 	cmp.w	r9, #0
10004c0e:	d1d3      	bne.n	10004bb8 <_ntoa_format+0xa0>
10004c10:	0777      	lsls	r7, r6, #29
10004c12:	d41d      	bmi.n	10004c50 <_ntoa_format+0x138>
10004c14:	0737      	lsls	r7, r6, #28
10004c16:	d5d3      	bpl.n	10004bc0 <_ntoa_format+0xa8>
10004c18:	2720      	movs	r7, #32
10004c1a:	f80e 7004 	strb.w	r7, [lr, r4]
10004c1e:	3401      	adds	r4, #1
10004c20:	e7ce      	b.n	10004bc0 <_ntoa_format+0xa8>
10004c22:	f016 0b01 	ands.w	fp, r6, #1
10004c26:	d00d      	beq.n	10004c44 <_ntoa_format+0x12c>
10004c28:	f1b9 0f00 	cmp.w	r9, #0
10004c2c:	d122      	bne.n	10004c74 <_ntoa_format+0x15c>
10004c2e:	f016 0f0c 	tst.w	r6, #12
10004c32:	d11f      	bne.n	10004c74 <_ntoa_format+0x15c>
10004c34:	42bc      	cmp	r4, r7
10004c36:	d299      	bcs.n	10004b6c <_ntoa_format+0x54>
10004c38:	2c1f      	cmp	r4, #31
10004c3a:	d987      	bls.n	10004b4c <_ntoa_format+0x34>
10004c3c:	2d20      	cmp	r5, #32
10004c3e:	d8c7      	bhi.n	10004bd0 <_ntoa_format+0xb8>
10004c40:	2420      	movs	r4, #32
10004c42:	e7a4      	b.n	10004b8e <_ntoa_format+0x76>
10004c44:	42bc      	cmp	r4, r7
10004c46:	d2a2      	bcs.n	10004b8e <_ntoa_format+0x76>
10004c48:	2c1f      	cmp	r4, #31
10004c4a:	f67f af7f 	bls.w	10004b4c <_ntoa_format+0x34>
10004c4e:	e7f7      	b.n	10004c40 <_ntoa_format+0x128>
10004c50:	272b      	movs	r7, #43	; 0x2b
10004c52:	f80e 7004 	strb.w	r7, [lr, r4]
10004c56:	3401      	adds	r4, #1
10004c58:	e9cd 560b 	strd	r5, r6, [sp, #44]	; 0x2c
10004c5c:	e9cd e409 	strd	lr, r4, [sp, #36]	; 0x24
10004c60:	e8bd 4ff0 	ldmia.w	sp!, {r4, r5, r6, r7, r8, r9, sl, fp, lr}
10004c64:	f7ff bf14 	b.w	10004a90 <_out_rev>
10004c68:	2c20      	cmp	r4, #32
10004c6a:	d0a9      	beq.n	10004bc0 <_ntoa_format+0xa8>
10004c6c:	eb0e 0704 	add.w	r7, lr, r4
10004c70:	3401      	adds	r4, #1
10004c72:	e040      	b.n	10004cf6 <_ntoa_format+0x1de>
10004c74:	3d01      	subs	r5, #1
10004c76:	e7dd      	b.n	10004c34 <_ntoa_format+0x11c>
10004c78:	1e67      	subs	r7, r4, #1
10004c7a:	d08f      	beq.n	10004b9c <_ntoa_format+0x84>
10004c7c:	f1b8 0f10 	cmp.w	r8, #16
10004c80:	d02f      	beq.n	10004ce2 <_ntoa_format+0x1ca>
10004c82:	f1b8 0f02 	cmp.w	r8, #2
10004c86:	d035      	beq.n	10004cf4 <_ntoa_format+0x1dc>
10004c88:	463c      	mov	r4, r7
10004c8a:	e7b5      	b.n	10004bf8 <_ntoa_format+0xe0>
10004c8c:	06b7      	lsls	r7, r6, #26
10004c8e:	d40f      	bmi.n	10004cb0 <_ntoa_format+0x198>
10004c90:	2c20      	cmp	r4, #32
10004c92:	d095      	beq.n	10004bc0 <_ntoa_format+0xa8>
10004c94:	eb0e 0c04 	add.w	ip, lr, r4
10004c98:	3401      	adds	r4, #1
10004c9a:	2778      	movs	r7, #120	; 0x78
10004c9c:	f88c 7000 	strb.w	r7, [ip]
10004ca0:	e7a8      	b.n	10004bf4 <_ntoa_format+0xdc>
10004ca2:	06b4      	lsls	r4, r6, #26
10004ca4:	d40e      	bmi.n	10004cc4 <_ntoa_format+0x1ac>
10004ca6:	2478      	movs	r4, #120	; 0x78
10004ca8:	f88e 4000 	strb.w	r4, [lr]
10004cac:	2401      	movs	r4, #1
10004cae:	e7a3      	b.n	10004bf8 <_ntoa_format+0xe0>
10004cb0:	2c20      	cmp	r4, #32
10004cb2:	d085      	beq.n	10004bc0 <_ntoa_format+0xa8>
10004cb4:	f04f 0c58 	mov.w	ip, #88	; 0x58
10004cb8:	eb0e 0704 	add.w	r7, lr, r4
10004cbc:	f887 c000 	strb.w	ip, [r7]
10004cc0:	3401      	adds	r4, #1
10004cc2:	e797      	b.n	10004bf4 <_ntoa_format+0xdc>
10004cc4:	2458      	movs	r4, #88	; 0x58
10004cc6:	f88e 4000 	strb.w	r4, [lr]
10004cca:	2401      	movs	r4, #1
10004ccc:	e794      	b.n	10004bf8 <_ntoa_format+0xe0>
10004cce:	2462      	movs	r4, #98	; 0x62
10004cd0:	f88e 4000 	strb.w	r4, [lr]
10004cd4:	2401      	movs	r4, #1
10004cd6:	e78f      	b.n	10004bf8 <_ntoa_format+0xe0>
10004cd8:	f1bb 0f00 	cmp.w	fp, #0
10004cdc:	bf08      	it	eq
10004cde:	2500      	moveq	r5, #0
10004ce0:	e755      	b.n	10004b8e <_ntoa_format+0x76>
10004ce2:	f016 0f20 	tst.w	r6, #32
10004ce6:	f1a4 0402 	sub.w	r4, r4, #2
10004cea:	d1e3      	bne.n	10004cb4 <_ntoa_format+0x19c>
10004cec:	eb0e 0c04 	add.w	ip, lr, r4
10004cf0:	463c      	mov	r4, r7
10004cf2:	e7d2      	b.n	10004c9a <_ntoa_format+0x182>
10004cf4:	4477      	add	r7, lr
10004cf6:	f04f 0c62 	mov.w	ip, #98	; 0x62
10004cfa:	f887 c000 	strb.w	ip, [r7]
10004cfe:	e779      	b.n	10004bf4 <_ntoa_format+0xdc>

10004d00 <_out_char>:
10004d00:	b900      	cbnz	r0, 10004d04 <_out_char+0x4>
10004d02:	4770      	bx	lr
10004d04:	f001 ba60 	b.w	100061c8 <__wrap_putchar>

10004d08 <_out_fct>:
10004d08:	b110      	cbz	r0, 10004d10 <_out_fct+0x8>
10004d0a:	e9d1 3100 	ldrd	r3, r1, [r1]
10004d0e:	4718      	bx	r3
10004d10:	4770      	bx	lr
10004d12:	bf00      	nop
10004d14:	0000      	movs	r0, r0
	...

10004d18 <_etoa>:
10004d18:	e92d 4ff0 	stmdb	sp!, {r4, r5, r6, r7, r8, r9, sl, fp, lr}
10004d1c:	ed2d 8b04 	vpush	{d8-d9}
10004d20:	b09b      	sub	sp, #108	; 0x6c
10004d22:	9c2a      	ldr	r4, [sp, #168]	; 0xa8
10004d24:	e9dd 8928 	ldrd	r8, r9, [sp, #160]	; 0xa0
10004d28:	9409      	str	r4, [sp, #36]	; 0x24
10004d2a:	9c2b      	ldr	r4, [sp, #172]	; 0xac
10004d2c:	4683      	mov	fp, r0
10004d2e:	461d      	mov	r5, r3
10004d30:	940d      	str	r4, [sp, #52]	; 0x34
10004d32:	920c      	str	r2, [sp, #48]	; 0x30
10004d34:	460c      	mov	r4, r1
10004d36:	4642      	mov	r2, r8
10004d38:	464b      	mov	r3, r9
10004d3a:	4640      	mov	r0, r8
10004d3c:	4649      	mov	r1, r9
10004d3e:	f8dd a0b0 	ldr.w	sl, [sp, #176]	; 0xb0
10004d42:	f7ff fd97 	bl	10004874 <__wrap___aeabi_dcmpun>
10004d46:	2800      	cmp	r0, #0
10004d48:	f040 80d6 	bne.w	10004ef8 <_etoa+0x1e0>
10004d4c:	4640      	mov	r0, r8
10004d4e:	4649      	mov	r1, r9
10004d50:	f04f 32ff 	mov.w	r2, #4294967295
10004d54:	4b74      	ldr	r3, [pc, #464]	; (10004f28 <_etoa+0x210>)
10004d56:	f7ff fddb 	bl	10004910 <__wrap___aeabi_dcmpgt>
10004d5a:	2800      	cmp	r0, #0
10004d5c:	f040 80cc 	bne.w	10004ef8 <_etoa+0x1e0>
10004d60:	4640      	mov	r0, r8
10004d62:	4649      	mov	r1, r9
10004d64:	f04f 32ff 	mov.w	r2, #4294967295
10004d68:	f46f 1380 	mvn.w	r3, #1048576	; 0x100000
10004d6c:	f7ff fd94 	bl	10004898 <__wrap___aeabi_dcmplt>
10004d70:	2800      	cmp	r0, #0
10004d72:	f040 80c1 	bne.w	10004ef8 <_etoa+0x1e0>
10004d76:	4640      	mov	r0, r8
10004d78:	4649      	mov	r1, r9
10004d7a:	2200      	movs	r2, #0
10004d7c:	2300      	movs	r3, #0
10004d7e:	f7ff fd8b 	bl	10004898 <__wrap___aeabi_dcmplt>
10004d82:	2800      	cmp	r0, #0
10004d84:	f040 81c1 	bne.w	1000510a <_etoa+0x3f2>
10004d88:	e9cd 890a 	strd	r8, r9, [sp, #40]	; 0x28
10004d8c:	e9dd 230a 	ldrd	r2, r3, [sp, #40]	; 0x28
10004d90:	461f      	mov	r7, r3
10004d92:	f41a 6380 	ands.w	r3, sl, #1024	; 0x400
10004d96:	4616      	mov	r6, r2
10004d98:	9311      	str	r3, [sp, #68]	; 0x44
10004d9a:	9b09      	ldr	r3, [sp, #36]	; 0x24
10004d9c:	bf08      	it	eq
10004d9e:	2306      	moveq	r3, #6
10004da0:	9309      	str	r3, [sp, #36]	; 0x24
10004da2:	ea56 0307 	orrs.w	r3, r6, r7
10004da6:	f040 80c3 	bne.w	10004f30 <_etoa+0x218>
10004daa:	f41a 6e00 	ands.w	lr, sl, #2048	; 0x800
10004dae:	f000 81a4 	beq.w	100050fa <_etoa+0x3e2>
10004db2:	ed9f 7b5b 	vldr	d7, [pc, #364]	; 10004f20 <_etoa+0x208>
10004db6:	2300      	movs	r3, #0
10004db8:	ed8d 7b0e 	vstr	d7, [sp, #56]	; 0x38
10004dbc:	9310      	str	r3, [sp, #64]	; 0x40
10004dbe:	9b09      	ldr	r3, [sp, #36]	; 0x24
10004dc0:	9a10      	ldr	r2, [sp, #64]	; 0x40
10004dc2:	2600      	movs	r6, #0
10004dc4:	4293      	cmp	r3, r2
10004dc6:	bfd2      	itee	le
10004dc8:	2300      	movle	r3, #0
10004dca:	eba3 0e02 	subgt.w	lr, r3, r2
10004dce:	f10e 33ff 	addgt.w	r3, lr, #4294967295
10004dd2:	9309      	str	r3, [sp, #36]	; 0x24
10004dd4:	f44a 6a80 	orr.w	sl, sl, #1024	; 0x400
10004dd8:	9610      	str	r6, [sp, #64]	; 0x40
10004dda:	9b0d      	ldr	r3, [sp, #52]	; 0x34
10004ddc:	42b3      	cmp	r3, r6
10004dde:	bf94      	ite	ls
10004de0:	2700      	movls	r7, #0
10004de2:	1b9f      	subhi	r7, r3, r6
10004de4:	f01a 0302 	ands.w	r3, sl, #2
10004de8:	9311      	str	r3, [sp, #68]	; 0x44
10004dea:	d002      	beq.n	10004df2 <_etoa+0xda>
10004dec:	2e00      	cmp	r6, #0
10004dee:	bf18      	it	ne
10004df0:	2700      	movne	r7, #0
10004df2:	9b10      	ldr	r3, [sp, #64]	; 0x40
10004df4:	b13b      	cbz	r3, 10004e06 <_etoa+0xee>
10004df6:	e9dd 010a 	ldrd	r0, r1, [sp, #40]	; 0x28
10004dfa:	e9dd 230e 	ldrd	r2, r3, [sp, #56]	; 0x38
10004dfe:	f7ff fca3 	bl	10004748 <__wrap___aeabi_ddiv>
10004e02:	e9cd 010a 	strd	r0, r1, [sp, #40]	; 0x28
10004e06:	4640      	mov	r0, r8
10004e08:	4649      	mov	r1, r9
10004e0a:	2200      	movs	r2, #0
10004e0c:	2300      	movs	r3, #0
10004e0e:	f7ff fd43 	bl	10004898 <__wrap___aeabi_dcmplt>
10004e12:	b130      	cbz	r0, 10004e22 <_etoa+0x10a>
10004e14:	e9dd 010a 	ldrd	r0, r1, [sp, #40]	; 0x28
10004e18:	4602      	mov	r2, r0
10004e1a:	f101 4300 	add.w	r3, r1, #2147483648	; 0x80000000
10004e1e:	e9cd 230a 	strd	r2, r3, [sp, #40]	; 0x28
10004e22:	ed9d 7b0a 	vldr	d7, [sp, #40]	; 0x28
10004e26:	9b09      	ldr	r3, [sp, #36]	; 0x24
10004e28:	ed8d 7b00 	vstr	d7, [sp]
10004e2c:	9302      	str	r3, [sp, #8]
10004e2e:	f42a 6300 	bic.w	r3, sl, #2048	; 0x800
10004e32:	9304      	str	r3, [sp, #16]
10004e34:	4621      	mov	r1, r4
10004e36:	462b      	mov	r3, r5
10004e38:	4658      	mov	r0, fp
10004e3a:	9a0c      	ldr	r2, [sp, #48]	; 0x30
10004e3c:	9703      	str	r7, [sp, #12]
10004e3e:	f000 f99b 	bl	10005178 <_ftoa>
10004e42:	4680      	mov	r8, r0
10004e44:	2e00      	cmp	r6, #0
10004e46:	d051      	beq.n	10004eec <_etoa+0x1d4>
10004e48:	f01a 0f20 	tst.w	sl, #32
10004e4c:	4642      	mov	r2, r8
10004e4e:	bf14      	ite	ne
10004e50:	2045      	movne	r0, #69	; 0x45
10004e52:	2065      	moveq	r0, #101	; 0x65
10004e54:	462b      	mov	r3, r5
10004e56:	4621      	mov	r1, r4
10004e58:	47d8      	blx	fp
10004e5a:	9a10      	ldr	r2, [sp, #64]	; 0x40
10004e5c:	f10d 0c48 	add.w	ip, sp, #72	; 0x48
10004e60:	ea82 73e2 	eor.w	r3, r2, r2, asr #31
10004e64:	eba3 73e2 	sub.w	r3, r3, r2, asr #31
10004e68:	ea4f 7ed2 	mov.w	lr, r2, lsr #31
10004e6c:	2700      	movs	r7, #0
10004e6e:	4662      	mov	r2, ip
10004e70:	4618      	mov	r0, r3
10004e72:	f8df 90b8 	ldr.w	r9, [pc, #184]	; 10004f2c <_etoa+0x214>
10004e76:	f108 0801 	add.w	r8, r8, #1
10004e7a:	f106 3aff 	add.w	sl, r6, #4294967295
10004e7e:	e001      	b.n	10004e84 <_etoa+0x16c>
10004e80:	2f20      	cmp	r7, #32
10004e82:	d00f      	beq.n	10004ea4 <_etoa+0x18c>
10004e84:	4606      	mov	r6, r0
10004e86:	fba9 3100 	umull	r3, r1, r9, r0
10004e8a:	08c9      	lsrs	r1, r1, #3
10004e8c:	eb01 0381 	add.w	r3, r1, r1, lsl #2
10004e90:	eba0 0343 	sub.w	r3, r0, r3, lsl #1
10004e94:	3330      	adds	r3, #48	; 0x30
10004e96:	2e09      	cmp	r6, #9
10004e98:	4608      	mov	r0, r1
10004e9a:	f107 0701 	add.w	r7, r7, #1
10004e9e:	f802 3b01 	strb.w	r3, [r2], #1
10004ea2:	d8ed      	bhi.n	10004e80 <_etoa+0x168>
10004ea4:	2305      	movs	r3, #5
10004ea6:	2000      	movs	r0, #0
10004ea8:	9306      	str	r3, [sp, #24]
10004eaa:	230a      	movs	r3, #10
10004eac:	4642      	mov	r2, r8
10004eae:	e9cd 3003 	strd	r3, r0, [sp, #12]
10004eb2:	4621      	mov	r1, r4
10004eb4:	462b      	mov	r3, r5
10004eb6:	4658      	mov	r0, fp
10004eb8:	e9cd 7e01 	strd	r7, lr, [sp, #4]
10004ebc:	f8cd a014 	str.w	sl, [sp, #20]
10004ec0:	f8cd c000 	str.w	ip, [sp]
10004ec4:	f7ff fe28 	bl	10004b18 <_ntoa_format>
10004ec8:	9b11      	ldr	r3, [sp, #68]	; 0x44
10004eca:	4680      	mov	r8, r0
10004ecc:	b173      	cbz	r3, 10004eec <_etoa+0x1d4>
10004ece:	9b0c      	ldr	r3, [sp, #48]	; 0x30
10004ed0:	9f0d      	ldr	r7, [sp, #52]	; 0x34
10004ed2:	1ac6      	subs	r6, r0, r3
10004ed4:	42b7      	cmp	r7, r6
10004ed6:	d909      	bls.n	10004eec <_etoa+0x1d4>
10004ed8:	4642      	mov	r2, r8
10004eda:	462b      	mov	r3, r5
10004edc:	4621      	mov	r1, r4
10004ede:	2020      	movs	r0, #32
10004ee0:	3601      	adds	r6, #1
10004ee2:	47d8      	blx	fp
10004ee4:	42b7      	cmp	r7, r6
10004ee6:	f108 0801 	add.w	r8, r8, #1
10004eea:	d8f5      	bhi.n	10004ed8 <_etoa+0x1c0>
10004eec:	4640      	mov	r0, r8
10004eee:	b01b      	add	sp, #108	; 0x6c
10004ef0:	ecbd 8b04 	vpop	{d8-d9}
10004ef4:	e8bd 8ff0 	ldmia.w	sp!, {r4, r5, r6, r7, r8, r9, sl, fp, pc}
10004ef8:	9b0d      	ldr	r3, [sp, #52]	; 0x34
10004efa:	4621      	mov	r1, r4
10004efc:	932b      	str	r3, [sp, #172]	; 0xac
10004efe:	4658      	mov	r0, fp
10004f00:	462b      	mov	r3, r5
10004f02:	9c09      	ldr	r4, [sp, #36]	; 0x24
10004f04:	9a0c      	ldr	r2, [sp, #48]	; 0x30
10004f06:	e9cd 8928 	strd	r8, r9, [sp, #160]	; 0xa0
10004f0a:	f8cd a0b0 	str.w	sl, [sp, #176]	; 0xb0
10004f0e:	942a      	str	r4, [sp, #168]	; 0xa8
10004f10:	b01b      	add	sp, #108	; 0x6c
10004f12:	ecbd 8b04 	vpop	{d8-d9}
10004f16:	e8bd 4ff0 	ldmia.w	sp!, {r4, r5, r6, r7, r8, r9, sl, fp, lr}
10004f1a:	f000 b92d 	b.w	10005178 <_ftoa>
10004f1e:	bf00      	nop
	...
10004f28:	7fefffff 	.word	0x7fefffff
10004f2c:	cccccccd 	.word	0xcccccccd
10004f30:	f3c7 500a 	ubfx	r0, r7, #20, #11
10004f34:	f2a0 30ff 	subw	r0, r0, #1023	; 0x3ff
10004f38:	f7ff fc54 	bl	100047e4 <__wrap___aeabi_i2d>
10004f3c:	a38a      	add	r3, pc, #552	; (adr r3, 10005168 <_etoa+0x450>)
10004f3e:	e9d3 2300 	ldrd	r2, r3, [r3]
10004f42:	f7ff fbdb 	bl	100046fc <__wrap___aeabi_dmul>
10004f46:	a38a      	add	r3, pc, #552	; (adr r3, 10005170 <_etoa+0x458>)
10004f48:	e9d3 2300 	ldrd	r2, r3, [r3]
10004f4c:	f7ff fbae 	bl	100046ac <__wrap___aeabi_dadd>
10004f50:	f3c7 0313 	ubfx	r3, r7, #0, #20
10004f54:	ec41 0b18 	vmov	d8, r0, r1
10004f58:	f043 517f 	orr.w	r1, r3, #1069547520	; 0x3fc00000
10004f5c:	4630      	mov	r0, r6
10004f5e:	2200      	movs	r2, #0
10004f60:	4b7b      	ldr	r3, [pc, #492]	; (10005150 <_etoa+0x438>)
10004f62:	f441 1140 	orr.w	r1, r1, #3145728	; 0x300000
10004f66:	f7ff fbb5 	bl	100046d4 <__wrap___aeabi_dsub>
10004f6a:	a36b      	add	r3, pc, #428	; (adr r3, 10005118 <_etoa+0x400>)
10004f6c:	e9d3 2300 	ldrd	r2, r3, [r3]
10004f70:	f7ff fbc4 	bl	100046fc <__wrap___aeabi_dmul>
10004f74:	4602      	mov	r2, r0
10004f76:	460b      	mov	r3, r1
10004f78:	ec51 0b18 	vmov	r0, r1, d8
10004f7c:	f7ff fb96 	bl	100046ac <__wrap___aeabi_dadd>
10004f80:	f7ff fc54 	bl	1000482c <__wrap___aeabi_d2iz>
10004f84:	9010      	str	r0, [sp, #64]	; 0x40
10004f86:	f7ff fc2d 	bl	100047e4 <__wrap___aeabi_i2d>
10004f8a:	a365      	add	r3, pc, #404	; (adr r3, 10005120 <_etoa+0x408>)
10004f8c:	e9d3 2300 	ldrd	r2, r3, [r3]
10004f90:	4606      	mov	r6, r0
10004f92:	460f      	mov	r7, r1
10004f94:	f7ff fbb2 	bl	100046fc <__wrap___aeabi_dmul>
10004f98:	2200      	movs	r2, #0
10004f9a:	4b6e      	ldr	r3, [pc, #440]	; (10005154 <_etoa+0x43c>)
10004f9c:	f7ff fb86 	bl	100046ac <__wrap___aeabi_dadd>
10004fa0:	f7ff fc44 	bl	1000482c <__wrap___aeabi_d2iz>
10004fa4:	4603      	mov	r3, r0
10004fa6:	4639      	mov	r1, r7
10004fa8:	4630      	mov	r0, r6
10004faa:	930e      	str	r3, [sp, #56]	; 0x38
10004fac:	a35e      	add	r3, pc, #376	; (adr r3, 10005128 <_etoa+0x410>)
10004fae:	e9d3 2300 	ldrd	r2, r3, [r3]
10004fb2:	f7ff fba3 	bl	100046fc <__wrap___aeabi_dmul>
10004fb6:	4606      	mov	r6, r0
10004fb8:	980e      	ldr	r0, [sp, #56]	; 0x38
10004fba:	460f      	mov	r7, r1
10004fbc:	f7ff fc12 	bl	100047e4 <__wrap___aeabi_i2d>
10004fc0:	a35b      	add	r3, pc, #364	; (adr r3, 10005130 <_etoa+0x418>)
10004fc2:	e9d3 2300 	ldrd	r2, r3, [r3]
10004fc6:	f7ff fb99 	bl	100046fc <__wrap___aeabi_dmul>
10004fca:	4602      	mov	r2, r0
10004fcc:	460b      	mov	r3, r1
10004fce:	4630      	mov	r0, r6
10004fd0:	4639      	mov	r1, r7
10004fd2:	f7ff fb7f 	bl	100046d4 <__wrap___aeabi_dsub>
10004fd6:	4602      	mov	r2, r0
10004fd8:	460b      	mov	r3, r1
10004fda:	4606      	mov	r6, r0
10004fdc:	460f      	mov	r7, r1
10004fde:	f7ff fb8d 	bl	100046fc <__wrap___aeabi_dmul>
10004fe2:	4632      	mov	r2, r6
10004fe4:	ec41 0b18 	vmov	d8, r0, r1
10004fe8:	463b      	mov	r3, r7
10004fea:	4630      	mov	r0, r6
10004fec:	4639      	mov	r1, r7
10004fee:	f7ff fb5d 	bl	100046ac <__wrap___aeabi_dadd>
10004ff2:	2200      	movs	r2, #0
10004ff4:	ec41 0b19 	vmov	d9, r0, r1
10004ff8:	4b57      	ldr	r3, [pc, #348]	; (10005158 <_etoa+0x440>)
10004ffa:	ec51 0b18 	vmov	r0, r1, d8
10004ffe:	f7ff fba3 	bl	10004748 <__wrap___aeabi_ddiv>
10005002:	2200      	movs	r2, #0
10005004:	4b55      	ldr	r3, [pc, #340]	; (1000515c <_etoa+0x444>)
10005006:	f7ff fb51 	bl	100046ac <__wrap___aeabi_dadd>
1000500a:	4602      	mov	r2, r0
1000500c:	460b      	mov	r3, r1
1000500e:	ec51 0b18 	vmov	r0, r1, d8
10005012:	f7ff fb99 	bl	10004748 <__wrap___aeabi_ddiv>
10005016:	2200      	movs	r2, #0
10005018:	4b51      	ldr	r3, [pc, #324]	; (10005160 <_etoa+0x448>)
1000501a:	f7ff fb47 	bl	100046ac <__wrap___aeabi_dadd>
1000501e:	4602      	mov	r2, r0
10005020:	460b      	mov	r3, r1
10005022:	ec51 0b18 	vmov	r0, r1, d8
10005026:	f7ff fb8f 	bl	10004748 <__wrap___aeabi_ddiv>
1000502a:	4632      	mov	r2, r6
1000502c:	463b      	mov	r3, r7
1000502e:	4606      	mov	r6, r0
10005030:	460f      	mov	r7, r1
10005032:	2000      	movs	r0, #0
10005034:	f04f 4180 	mov.w	r1, #1073741824	; 0x40000000
10005038:	f7ff fb4c 	bl	100046d4 <__wrap___aeabi_dsub>
1000503c:	4602      	mov	r2, r0
1000503e:	460b      	mov	r3, r1
10005040:	4630      	mov	r0, r6
10005042:	4639      	mov	r1, r7
10005044:	f7ff fb32 	bl	100046ac <__wrap___aeabi_dadd>
10005048:	4602      	mov	r2, r0
1000504a:	460b      	mov	r3, r1
1000504c:	ec51 0b19 	vmov	r0, r1, d9
10005050:	f7ff fb7a 	bl	10004748 <__wrap___aeabi_ddiv>
10005054:	2200      	movs	r2, #0
10005056:	4b43      	ldr	r3, [pc, #268]	; (10005164 <_etoa+0x44c>)
10005058:	f7ff fb28 	bl	100046ac <__wrap___aeabi_dadd>
1000505c:	9b0e      	ldr	r3, [sp, #56]	; 0x38
1000505e:	2200      	movs	r2, #0
10005060:	f203 36ff 	addw	r6, r3, #1023	; 0x3ff
10005064:	0533      	lsls	r3, r6, #20
10005066:	f7ff fb49 	bl	100046fc <__wrap___aeabi_dmul>
1000506a:	4606      	mov	r6, r0
1000506c:	460f      	mov	r7, r1
1000506e:	e9dd 010a 	ldrd	r0, r1, [sp, #40]	; 0x28
10005072:	4632      	mov	r2, r6
10005074:	463b      	mov	r3, r7
10005076:	e9cd 670e 	strd	r6, r7, [sp, #56]	; 0x38
1000507a:	f7ff fc0d 	bl	10004898 <__wrap___aeabi_dcmplt>
1000507e:	bb60      	cbnz	r0, 100050da <_etoa+0x3c2>
10005080:	4631      	mov	r1, r6
10005082:	463a      	mov	r2, r7
10005084:	9b10      	ldr	r3, [sp, #64]	; 0x40
10005086:	3363      	adds	r3, #99	; 0x63
10005088:	2bc7      	cmp	r3, #199	; 0xc7
1000508a:	bf34      	ite	cc
1000508c:	2604      	movcc	r6, #4
1000508e:	2605      	movcs	r6, #5
10005090:	f41a 6f00 	tst.w	sl, #2048	; 0x800
10005094:	f43f aea1 	beq.w	10004dda <_etoa+0xc2>
10005098:	ea51 0302 	orrs.w	r3, r1, r2
1000509c:	f43f ae8f 	beq.w	10004dbe <_etoa+0xa6>
100050a0:	e9dd 010a 	ldrd	r0, r1, [sp, #40]	; 0x28
100050a4:	a324      	add	r3, pc, #144	; (adr r3, 10005138 <_etoa+0x420>)
100050a6:	e9d3 2300 	ldrd	r2, r3, [r3]
100050aa:	f7ff fc1d 	bl	100048e8 <__wrap___aeabi_dcmpge>
100050ae:	b148      	cbz	r0, 100050c4 <_etoa+0x3ac>
100050b0:	e9dd 010a 	ldrd	r0, r1, [sp, #40]	; 0x28
100050b4:	a322      	add	r3, pc, #136	; (adr r3, 10005140 <_etoa+0x428>)
100050b6:	e9d3 2300 	ldrd	r2, r3, [r3]
100050ba:	f7ff fbed 	bl	10004898 <__wrap___aeabi_dcmplt>
100050be:	2800      	cmp	r0, #0
100050c0:	f47f ae7d 	bne.w	10004dbe <_etoa+0xa6>
100050c4:	9b09      	ldr	r3, [sp, #36]	; 0x24
100050c6:	2b00      	cmp	r3, #0
100050c8:	f43f ae87 	beq.w	10004dda <_etoa+0xc2>
100050cc:	9a11      	ldr	r2, [sp, #68]	; 0x44
100050ce:	2a00      	cmp	r2, #0
100050d0:	f43f ae83 	beq.w	10004dda <_etoa+0xc2>
100050d4:	3b01      	subs	r3, #1
100050d6:	9309      	str	r3, [sp, #36]	; 0x24
100050d8:	e67f      	b.n	10004dda <_etoa+0xc2>
100050da:	9b10      	ldr	r3, [sp, #64]	; 0x40
100050dc:	2200      	movs	r2, #0
100050de:	3b01      	subs	r3, #1
100050e0:	9310      	str	r3, [sp, #64]	; 0x40
100050e2:	4630      	mov	r0, r6
100050e4:	4b1d      	ldr	r3, [pc, #116]	; (1000515c <_etoa+0x444>)
100050e6:	4639      	mov	r1, r7
100050e8:	f7ff fb2e 	bl	10004748 <__wrap___aeabi_ddiv>
100050ec:	460b      	mov	r3, r1
100050ee:	4602      	mov	r2, r0
100050f0:	4601      	mov	r1, r0
100050f2:	e9cd 230e 	strd	r2, r3, [sp, #56]	; 0x38
100050f6:	461a      	mov	r2, r3
100050f8:	e7c4      	b.n	10005084 <_etoa+0x36c>
100050fa:	ed9f 7b13 	vldr	d7, [pc, #76]	; 10005148 <_etoa+0x430>
100050fe:	2604      	movs	r6, #4
10005100:	ed8d 7b0e 	vstr	d7, [sp, #56]	; 0x38
10005104:	f8cd e040 	str.w	lr, [sp, #64]	; 0x40
10005108:	e667      	b.n	10004dda <_etoa+0xc2>
1000510a:	f109 4300 	add.w	r3, r9, #2147483648	; 0x80000000
1000510e:	f8cd 8028 	str.w	r8, [sp, #40]	; 0x28
10005112:	930b      	str	r3, [sp, #44]	; 0x2c
10005114:	e63a      	b.n	10004d8c <_etoa+0x74>
10005116:	bf00      	nop
10005118:	636f4361 	.word	0x636f4361
1000511c:	3fd287a7 	.word	0x3fd287a7
10005120:	0979a371 	.word	0x0979a371
10005124:	400a934f 	.word	0x400a934f
10005128:	bbb55516 	.word	0xbbb55516
1000512c:	40026bb1 	.word	0x40026bb1
10005130:	fefa39ef 	.word	0xfefa39ef
10005134:	3fe62e42 	.word	0x3fe62e42
10005138:	eb1c432d 	.word	0xeb1c432d
1000513c:	3f1a36e2 	.word	0x3f1a36e2
10005140:	00000000 	.word	0x00000000
10005144:	412e8480 	.word	0x412e8480
	...
10005150:	3ff80000 	.word	0x3ff80000
10005154:	3fe00000 	.word	0x3fe00000
10005158:	402c0000 	.word	0x402c0000
1000515c:	40240000 	.word	0x40240000
10005160:	40180000 	.word	0x40180000
10005164:	3ff00000 	.word	0x3ff00000
10005168:	509f79fb 	.word	0x509f79fb
1000516c:	3fd34413 	.word	0x3fd34413
10005170:	8b60c8b3 	.word	0x8b60c8b3
10005174:	3fc68a28 	.word	0x3fc68a28

10005178 <_ftoa>:
10005178:	e92d 4ff0 	stmdb	sp!, {r4, r5, r6, r7, r8, r9, sl, fp, lr}
1000517c:	ed2d 8b02 	vpush	{d8}
10005180:	b095      	sub	sp, #84	; 0x54
10005182:	e9dd 4522 	ldrd	r4, r5, [sp, #136]	; 0x88
10005186:	9506      	str	r5, [sp, #24]
10005188:	9d24      	ldr	r5, [sp, #144]	; 0x90
1000518a:	e9dd 6720 	ldrd	r6, r7, [sp, #128]	; 0x80
1000518e:	e9cd 0107 	strd	r0, r1, [sp, #28]
10005192:	e9cd 2309 	strd	r2, r3, [sp, #36]	; 0x24
10005196:	4630      	mov	r0, r6
10005198:	4632      	mov	r2, r6
1000519a:	463b      	mov	r3, r7
1000519c:	4639      	mov	r1, r7
1000519e:	9505      	str	r5, [sp, #20]
100051a0:	f7ff fb68 	bl	10004874 <__wrap___aeabi_dcmpun>
100051a4:	2800      	cmp	r0, #0
100051a6:	f040 81c4 	bne.w	10005532 <_ftoa+0x3ba>
100051aa:	4630      	mov	r0, r6
100051ac:	4639      	mov	r1, r7
100051ae:	f04f 32ff 	mov.w	r2, #4294967295
100051b2:	f46f 1380 	mvn.w	r3, #1048576	; 0x100000
100051b6:	f7ff fb6f 	bl	10004898 <__wrap___aeabi_dcmplt>
100051ba:	2800      	cmp	r0, #0
100051bc:	f040 810d 	bne.w	100053da <_ftoa+0x262>
100051c0:	4630      	mov	r0, r6
100051c2:	4639      	mov	r1, r7
100051c4:	f04f 32ff 	mov.w	r2, #4294967295
100051c8:	4bbf      	ldr	r3, [pc, #764]	; (100054c8 <_ftoa+0x350>)
100051ca:	f7ff fba1 	bl	10004910 <__wrap___aeabi_dcmpgt>
100051ce:	2800      	cmp	r0, #0
100051d0:	f040 80dd 	bne.w	1000538e <_ftoa+0x216>
100051d4:	a3b8      	add	r3, pc, #736	; (adr r3, 100054b8 <_ftoa+0x340>)
100051d6:	e9d3 2300 	ldrd	r2, r3, [r3]
100051da:	4630      	mov	r0, r6
100051dc:	4639      	mov	r1, r7
100051de:	f7ff fb97 	bl	10004910 <__wrap___aeabi_dcmpgt>
100051e2:	2800      	cmp	r0, #0
100051e4:	f040 80c1 	bne.w	1000536a <_ftoa+0x1f2>
100051e8:	a3b5      	add	r3, pc, #724	; (adr r3, 100054c0 <_ftoa+0x348>)
100051ea:	e9d3 2300 	ldrd	r2, r3, [r3]
100051ee:	4630      	mov	r0, r6
100051f0:	4639      	mov	r1, r7
100051f2:	f7ff fb51 	bl	10004898 <__wrap___aeabi_dcmplt>
100051f6:	2800      	cmp	r0, #0
100051f8:	f040 80b7 	bne.w	1000536a <_ftoa+0x1f2>
100051fc:	4630      	mov	r0, r6
100051fe:	4639      	mov	r1, r7
10005200:	2200      	movs	r2, #0
10005202:	2300      	movs	r3, #0
10005204:	f7ff fb48 	bl	10004898 <__wrap___aeabi_dcmplt>
10005208:	2800      	cmp	r0, #0
1000520a:	f040 80da 	bne.w	100053c2 <_ftoa+0x24a>
1000520e:	462b      	mov	r3, r5
10005210:	900b      	str	r0, [sp, #44]	; 0x2c
10005212:	f413 6f80 	tst.w	r3, #1024	; 0x400
10005216:	bf08      	it	eq
10005218:	2406      	moveq	r4, #6
1000521a:	2130      	movs	r1, #48	; 0x30
1000521c:	46a2      	mov	sl, r4
1000521e:	ab0c      	add	r3, sp, #48	; 0x30
10005220:	f1a4 0220 	sub.w	r2, r4, #32
10005224:	e006      	b.n	10005234 <_ftoa+0xbc>
10005226:	f10a 3aff 	add.w	sl, sl, #4294967295
1000522a:	4552      	cmp	r2, sl
1000522c:	f803 1b01 	strb.w	r1, [r3], #1
10005230:	f000 8131 	beq.w	10005496 <_ftoa+0x31e>
10005234:	f1ba 0f09 	cmp.w	sl, #9
10005238:	eba4 050a 	sub.w	r5, r4, sl
1000523c:	d8f3      	bhi.n	10005226 <_ftoa+0xae>
1000523e:	4639      	mov	r1, r7
10005240:	4630      	mov	r0, r6
10005242:	f7ff faf3 	bl	1000482c <__wrap___aeabi_d2iz>
10005246:	4ba1      	ldr	r3, [pc, #644]	; (100054cc <_ftoa+0x354>)
10005248:	4604      	mov	r4, r0
1000524a:	eb03 03ca 	add.w	r3, r3, sl, lsl #3
1000524e:	ed93 8b00 	vldr	d8, [r3]
10005252:	f7ff fac7 	bl	100047e4 <__wrap___aeabi_i2d>
10005256:	4602      	mov	r2, r0
10005258:	460b      	mov	r3, r1
1000525a:	4630      	mov	r0, r6
1000525c:	4639      	mov	r1, r7
1000525e:	f7ff fa39 	bl	100046d4 <__wrap___aeabi_dsub>
10005262:	ec53 2b18 	vmov	r2, r3, d8
10005266:	f7ff fa49 	bl	100046fc <__wrap___aeabi_dmul>
1000526a:	4689      	mov	r9, r1
1000526c:	4680      	mov	r8, r0
1000526e:	f7ff faef 	bl	10004850 <__wrap___aeabi_d2uiz>
10005272:	4683      	mov	fp, r0
10005274:	f7ff fac8 	bl	10004808 <__wrap___aeabi_ui2d>
10005278:	4602      	mov	r2, r0
1000527a:	460b      	mov	r3, r1
1000527c:	4640      	mov	r0, r8
1000527e:	4649      	mov	r1, r9
10005280:	f7ff fa28 	bl	100046d4 <__wrap___aeabi_dsub>
10005284:	2200      	movs	r2, #0
10005286:	4b92      	ldr	r3, [pc, #584]	; (100054d0 <_ftoa+0x358>)
10005288:	4680      	mov	r8, r0
1000528a:	4689      	mov	r9, r1
1000528c:	f7ff fb40 	bl	10004910 <__wrap___aeabi_dcmpgt>
10005290:	2800      	cmp	r0, #0
10005292:	f000 80f1 	beq.w	10005478 <_ftoa+0x300>
10005296:	f10b 0b01 	add.w	fp, fp, #1
1000529a:	4658      	mov	r0, fp
1000529c:	f7ff fab4 	bl	10004808 <__wrap___aeabi_ui2d>
100052a0:	4602      	mov	r2, r0
100052a2:	460b      	mov	r3, r1
100052a4:	ec51 0b18 	vmov	r0, r1, d8
100052a8:	f7ff fb0a 	bl	100048c0 <__wrap___aeabi_dcmple>
100052ac:	b110      	cbz	r0, 100052b4 <_ftoa+0x13c>
100052ae:	f04f 0b00 	mov.w	fp, #0
100052b2:	3401      	adds	r4, #1
100052b4:	f1ba 0f00 	cmp.w	sl, #0
100052b8:	f040 809a 	bne.w	100053f0 <_ftoa+0x278>
100052bc:	4620      	mov	r0, r4
100052be:	f7ff fa91 	bl	100047e4 <__wrap___aeabi_i2d>
100052c2:	4602      	mov	r2, r0
100052c4:	460b      	mov	r3, r1
100052c6:	4630      	mov	r0, r6
100052c8:	4639      	mov	r1, r7
100052ca:	f7ff fa03 	bl	100046d4 <__wrap___aeabi_dsub>
100052ce:	2200      	movs	r2, #0
100052d0:	4b7f      	ldr	r3, [pc, #508]	; (100054d0 <_ftoa+0x358>)
100052d2:	4606      	mov	r6, r0
100052d4:	460f      	mov	r7, r1
100052d6:	f7ff fadf 	bl	10004898 <__wrap___aeabi_dcmplt>
100052da:	b940      	cbnz	r0, 100052ee <_ftoa+0x176>
100052dc:	4630      	mov	r0, r6
100052de:	4639      	mov	r1, r7
100052e0:	2200      	movs	r2, #0
100052e2:	4b7b      	ldr	r3, [pc, #492]	; (100054d0 <_ftoa+0x358>)
100052e4:	f7ff fb14 	bl	10004910 <__wrap___aeabi_dcmpgt>
100052e8:	2800      	cmp	r0, #0
100052ea:	f000 8116 	beq.w	1000551a <_ftoa+0x3a2>
100052ee:	1e6a      	subs	r2, r5, #1
100052f0:	ab0c      	add	r3, sp, #48	; 0x30
100052f2:	4978      	ldr	r1, [pc, #480]	; (100054d4 <_ftoa+0x35c>)
100052f4:	441a      	add	r2, r3
100052f6:	2d20      	cmp	r5, #32
100052f8:	ea4f 73e4 	mov.w	r3, r4, asr #31
100052fc:	f000 8093 	beq.w	10005426 <_ftoa+0x2ae>
10005300:	fb81 6004 	smull	r6, r0, r1, r4
10005304:	ebc3 03a0 	rsb	r3, r3, r0, asr #2
10005308:	eb03 0083 	add.w	r0, r3, r3, lsl #2
1000530c:	eba4 0440 	sub.w	r4, r4, r0, lsl #1
10005310:	f104 0030 	add.w	r0, r4, #48	; 0x30
10005314:	3501      	adds	r5, #1
10005316:	461c      	mov	r4, r3
10005318:	f802 0f01 	strb.w	r0, [r2, #1]!
1000531c:	2b00      	cmp	r3, #0
1000531e:	d1ea      	bne.n	100052f6 <_ftoa+0x17e>
10005320:	9b05      	ldr	r3, [sp, #20]
10005322:	f003 0303 	and.w	r3, r3, #3
10005326:	2b01      	cmp	r3, #1
10005328:	f000 8083 	beq.w	10005432 <_ftoa+0x2ba>
1000532c:	2d20      	cmp	r5, #32
1000532e:	d00a      	beq.n	10005346 <_ftoa+0x1ce>
10005330:	9b0b      	ldr	r3, [sp, #44]	; 0x2c
10005332:	2b00      	cmp	r3, #0
10005334:	f000 80b1 	beq.w	1000549a <_ftoa+0x322>
10005338:	222d      	movs	r2, #45	; 0x2d
1000533a:	f105 0350 	add.w	r3, r5, #80	; 0x50
1000533e:	446b      	add	r3, sp
10005340:	f803 2c20 	strb.w	r2, [r3, #-32]
10005344:	3501      	adds	r5, #1
10005346:	9b05      	ldr	r3, [sp, #20]
10005348:	ac0c      	add	r4, sp, #48	; 0x30
1000534a:	9303      	str	r3, [sp, #12]
1000534c:	9b06      	ldr	r3, [sp, #24]
1000534e:	9400      	str	r4, [sp, #0]
10005350:	e9cd 5301 	strd	r5, r3, [sp, #4]
10005354:	e9dd 0107 	ldrd	r0, r1, [sp, #28]
10005358:	e9dd 2309 	ldrd	r2, r3, [sp, #36]	; 0x24
1000535c:	f7ff fb98 	bl	10004a90 <_out_rev>
10005360:	b015      	add	sp, #84	; 0x54
10005362:	ecbd 8b02 	vpop	{d8}
10005366:	e8bd 8ff0 	ldmia.w	sp!, {r4, r5, r6, r7, r8, r9, sl, fp, pc}
1000536a:	9b05      	ldr	r3, [sp, #20]
1000536c:	e9cd 6720 	strd	r6, r7, [sp, #128]	; 0x80
10005370:	e9dd 0107 	ldrd	r0, r1, [sp, #28]
10005374:	9324      	str	r3, [sp, #144]	; 0x90
10005376:	9b06      	ldr	r3, [sp, #24]
10005378:	9422      	str	r4, [sp, #136]	; 0x88
1000537a:	9323      	str	r3, [sp, #140]	; 0x8c
1000537c:	e9dd 2309 	ldrd	r2, r3, [sp, #36]	; 0x24
10005380:	b015      	add	sp, #84	; 0x54
10005382:	ecbd 8b02 	vpop	{d8}
10005386:	e8bd 4ff0 	ldmia.w	sp!, {r4, r5, r6, r7, r8, r9, sl, fp, lr}
1000538a:	f7ff bcc5 	b.w	10004d18 <_etoa>
1000538e:	f005 0404 	and.w	r4, r5, #4
10005392:	9523      	str	r5, [sp, #140]	; 0x8c
10005394:	4d50      	ldr	r5, [pc, #320]	; (100054d8 <_ftoa+0x360>)
10005396:	2c00      	cmp	r4, #0
10005398:	4c50      	ldr	r4, [pc, #320]	; (100054dc <_ftoa+0x364>)
1000539a:	bf18      	it	ne
1000539c:	462c      	movne	r4, r5
1000539e:	e9dd 0107 	ldrd	r0, r1, [sp, #28]
100053a2:	9420      	str	r4, [sp, #128]	; 0x80
100053a4:	bf0c      	ite	eq
100053a6:	2403      	moveq	r4, #3
100053a8:	2404      	movne	r4, #4
100053aa:	9b06      	ldr	r3, [sp, #24]
100053ac:	9322      	str	r3, [sp, #136]	; 0x88
100053ae:	e9dd 2309 	ldrd	r2, r3, [sp, #36]	; 0x24
100053b2:	9421      	str	r4, [sp, #132]	; 0x84
100053b4:	b015      	add	sp, #84	; 0x54
100053b6:	ecbd 8b02 	vpop	{d8}
100053ba:	e8bd 4ff0 	ldmia.w	sp!, {r4, r5, r6, r7, r8, r9, sl, fp, lr}
100053be:	f7ff bb67 	b.w	10004a90 <_out_rev>
100053c2:	2101      	movs	r1, #1
100053c4:	463b      	mov	r3, r7
100053c6:	4632      	mov	r2, r6
100053c8:	910b      	str	r1, [sp, #44]	; 0x2c
100053ca:	2000      	movs	r0, #0
100053cc:	2100      	movs	r1, #0
100053ce:	f7ff f981 	bl	100046d4 <__wrap___aeabi_dsub>
100053d2:	462b      	mov	r3, r5
100053d4:	4606      	mov	r6, r0
100053d6:	460f      	mov	r7, r1
100053d8:	e71b      	b.n	10005212 <_ftoa+0x9a>
100053da:	9c06      	ldr	r4, [sp, #24]
100053dc:	9523      	str	r5, [sp, #140]	; 0x8c
100053de:	9422      	str	r4, [sp, #136]	; 0x88
100053e0:	2404      	movs	r4, #4
100053e2:	e9dd 2309 	ldrd	r2, r3, [sp, #36]	; 0x24
100053e6:	e9dd 0107 	ldrd	r0, r1, [sp, #28]
100053ea:	4d3d      	ldr	r5, [pc, #244]	; (100054e0 <_ftoa+0x368>)
100053ec:	9520      	str	r5, [sp, #128]	; 0x80
100053ee:	e7e0      	b.n	100053b2 <_ftoa+0x23a>
100053f0:	1e68      	subs	r0, r5, #1
100053f2:	ab0c      	add	r3, sp, #48	; 0x30
100053f4:	4f3b      	ldr	r7, [pc, #236]	; (100054e4 <_ftoa+0x36c>)
100053f6:	4418      	add	r0, r3
100053f8:	e00f      	b.n	1000541a <_ftoa+0x2a2>
100053fa:	fba7 320b 	umull	r3, r2, r7, fp
100053fe:	08d2      	lsrs	r2, r2, #3
10005400:	eb02 0382 	add.w	r3, r2, r2, lsl #2
10005404:	ebab 0343 	sub.w	r3, fp, r3, lsl #1
10005408:	3330      	adds	r3, #48	; 0x30
1000540a:	f1bb 0f09 	cmp.w	fp, #9
1000540e:	f800 3f01 	strb.w	r3, [r0, #1]!
10005412:	d969      	bls.n	100054e8 <_ftoa+0x370>
10005414:	46b2      	mov	sl, r6
10005416:	4693      	mov	fp, r2
10005418:	460d      	mov	r5, r1
1000541a:	2d20      	cmp	r5, #32
1000541c:	f10a 36ff 	add.w	r6, sl, #4294967295
10005420:	f105 0101 	add.w	r1, r5, #1
10005424:	d1e9      	bne.n	100053fa <_ftoa+0x282>
10005426:	9b05      	ldr	r3, [sp, #20]
10005428:	2520      	movs	r5, #32
1000542a:	f003 0303 	and.w	r3, r3, #3
1000542e:	2b01      	cmp	r3, #1
10005430:	d189      	bne.n	10005346 <_ftoa+0x1ce>
10005432:	9b06      	ldr	r3, [sp, #24]
10005434:	2b00      	cmp	r3, #0
10005436:	f43f af79 	beq.w	1000532c <_ftoa+0x1b4>
1000543a:	9b0b      	ldr	r3, [sp, #44]	; 0x2c
1000543c:	b91b      	cbnz	r3, 10005446 <_ftoa+0x2ce>
1000543e:	9b05      	ldr	r3, [sp, #20]
10005440:	f013 0f0c 	tst.w	r3, #12
10005444:	d002      	beq.n	1000544c <_ftoa+0x2d4>
10005446:	9b06      	ldr	r3, [sp, #24]
10005448:	3b01      	subs	r3, #1
1000544a:	9306      	str	r3, [sp, #24]
1000544c:	9b06      	ldr	r3, [sp, #24]
1000544e:	42ab      	cmp	r3, r5
10005450:	f67f af6c 	bls.w	1000532c <_ftoa+0x1b4>
10005454:	2d20      	cmp	r5, #32
10005456:	d00d      	beq.n	10005474 <_ftoa+0x2fc>
10005458:	2230      	movs	r2, #48	; 0x30
1000545a:	1e6b      	subs	r3, r5, #1
1000545c:	eb0d 0102 	add.w	r1, sp, r2
10005460:	440b      	add	r3, r1
10005462:	9906      	ldr	r1, [sp, #24]
10005464:	3501      	adds	r5, #1
10005466:	428d      	cmp	r5, r1
10005468:	f803 2f01 	strb.w	r2, [r3, #1]!
1000546c:	f43f af5e 	beq.w	1000532c <_ftoa+0x1b4>
10005470:	2d20      	cmp	r5, #32
10005472:	d1f7      	bne.n	10005464 <_ftoa+0x2ec>
10005474:	2520      	movs	r5, #32
10005476:	e766      	b.n	10005346 <_ftoa+0x1ce>
10005478:	4640      	mov	r0, r8
1000547a:	4649      	mov	r1, r9
1000547c:	2200      	movs	r2, #0
1000547e:	4b14      	ldr	r3, [pc, #80]	; (100054d0 <_ftoa+0x358>)
10005480:	f7ff fa0a 	bl	10004898 <__wrap___aeabi_dcmplt>
10005484:	2800      	cmp	r0, #0
10005486:	f47f af15 	bne.w	100052b4 <_ftoa+0x13c>
1000548a:	f1bb 0f00 	cmp.w	fp, #0
1000548e:	d14b      	bne.n	10005528 <_ftoa+0x3b0>
10005490:	f10b 0b01 	add.w	fp, fp, #1
10005494:	e70e      	b.n	100052b4 <_ftoa+0x13c>
10005496:	2520      	movs	r5, #32
10005498:	e6d1      	b.n	1000523e <_ftoa+0xc6>
1000549a:	9b05      	ldr	r3, [sp, #20]
1000549c:	075a      	lsls	r2, r3, #29
1000549e:	d441      	bmi.n	10005524 <_ftoa+0x3ac>
100054a0:	071b      	lsls	r3, r3, #28
100054a2:	f57f af50 	bpl.w	10005346 <_ftoa+0x1ce>
100054a6:	2220      	movs	r2, #32
100054a8:	f105 0330 	add.w	r3, r5, #48	; 0x30
100054ac:	4413      	add	r3, r2
100054ae:	446b      	add	r3, sp
100054b0:	f803 2c20 	strb.w	r2, [r3, #-32]
100054b4:	3501      	adds	r5, #1
100054b6:	e746      	b.n	10005346 <_ftoa+0x1ce>
100054b8:	00000000 	.word	0x00000000
100054bc:	41cdcd65 	.word	0x41cdcd65
100054c0:	00000000 	.word	0x00000000
100054c4:	c1cdcd65 	.word	0xc1cdcd65
100054c8:	7fefffff 	.word	0x7fefffff
100054cc:	10009240 	.word	0x10009240
100054d0:	3fe00000 	.word	0x3fe00000
100054d4:	66666667 	.word	0x66666667
100054d8:	10009228 	.word	0x10009228
100054dc:	10009224 	.word	0x10009224
100054e0:	10009234 	.word	0x10009234
100054e4:	cccccccd 	.word	0xcccccccd
100054e8:	2920      	cmp	r1, #32
100054ea:	d09c      	beq.n	10005426 <_ftoa+0x2ae>
100054ec:	b35e      	cbz	r6, 10005546 <_ftoa+0x3ce>
100054ee:	ab0c      	add	r3, sp, #48	; 0x30
100054f0:	195a      	adds	r2, r3, r5
100054f2:	2030      	movs	r0, #48	; 0x30
100054f4:	460d      	mov	r5, r1
100054f6:	3501      	adds	r5, #1
100054f8:	2d20      	cmp	r5, #32
100054fa:	f802 0f01 	strb.w	r0, [r2, #1]!
100054fe:	d092      	beq.n	10005426 <_ftoa+0x2ae>
10005500:	43eb      	mvns	r3, r5
10005502:	440b      	add	r3, r1
10005504:	eb13 0f0a 	cmn.w	r3, sl
10005508:	d1f5      	bne.n	100054f6 <_ftoa+0x37e>
1000550a:	222e      	movs	r2, #46	; 0x2e
1000550c:	f105 0350 	add.w	r3, r5, #80	; 0x50
10005510:	446b      	add	r3, sp
10005512:	f803 2c20 	strb.w	r2, [r3, #-32]
10005516:	3501      	adds	r5, #1
10005518:	e6e9      	b.n	100052ee <_ftoa+0x176>
1000551a:	07e1      	lsls	r1, r4, #31
1000551c:	f57f aee7 	bpl.w	100052ee <_ftoa+0x176>
10005520:	3401      	adds	r4, #1
10005522:	e6e4      	b.n	100052ee <_ftoa+0x176>
10005524:	222b      	movs	r2, #43	; 0x2b
10005526:	e708      	b.n	1000533a <_ftoa+0x1c2>
10005528:	f01b 0f01 	tst.w	fp, #1
1000552c:	f43f aec2 	beq.w	100052b4 <_ftoa+0x13c>
10005530:	e7ae      	b.n	10005490 <_ftoa+0x318>
10005532:	9c06      	ldr	r4, [sp, #24]
10005534:	9523      	str	r5, [sp, #140]	; 0x8c
10005536:	9422      	str	r4, [sp, #136]	; 0x88
10005538:	4d04      	ldr	r5, [pc, #16]	; (1000554c <_ftoa+0x3d4>)
1000553a:	2403      	movs	r4, #3
1000553c:	e9dd 2309 	ldrd	r2, r3, [sp, #36]	; 0x24
10005540:	e9dd 0107 	ldrd	r0, r1, [sp, #28]
10005544:	e752      	b.n	100053ec <_ftoa+0x274>
10005546:	460d      	mov	r5, r1
10005548:	e7df      	b.n	1000550a <_ftoa+0x392>
1000554a:	bf00      	nop
1000554c:	10009230 	.word	0x10009230

10005550 <_vsnprintf>:
10005550:	e92d 4ff0 	stmdb	sp!, {r4, r5, r6, r7, r8, r9, sl, fp, lr}
10005554:	b09b      	sub	sp, #108	; 0x6c
10005556:	9c24      	ldr	r4, [sp, #144]	; 0x90
10005558:	4d84      	ldr	r5, [pc, #528]	; (1000576c <_vsnprintf+0x21c>)
1000555a:	9409      	str	r4, [sp, #36]	; 0x24
1000555c:	4c84      	ldr	r4, [pc, #528]	; (10005770 <_vsnprintf+0x220>)
1000555e:	1e0f      	subs	r7, r1, #0
10005560:	bf18      	it	ne
10005562:	4683      	movne	fp, r0
10005564:	6025      	str	r5, [r4, #0]
10005566:	7818      	ldrb	r0, [r3, #0]
10005568:	4d82      	ldr	r5, [pc, #520]	; (10005774 <_vsnprintf+0x224>)
1000556a:	4690      	mov	r8, r2
1000556c:	bf08      	it	eq
1000556e:	46ab      	moveq	fp, r5
10005570:	2800      	cmp	r0, #0
10005572:	f000 82c4 	beq.w	10005afe <_vsnprintf+0x5ae>
10005576:	461c      	mov	r4, r3
10005578:	f04f 0a00 	mov.w	sl, #0
1000557c:	e00a      	b.n	10005594 <_vsnprintf+0x44>
1000557e:	4652      	mov	r2, sl
10005580:	4643      	mov	r3, r8
10005582:	4639      	mov	r1, r7
10005584:	47d8      	blx	fp
10005586:	f10a 0a01 	add.w	sl, sl, #1
1000558a:	3401      	adds	r4, #1
1000558c:	7820      	ldrb	r0, [r4, #0]
1000558e:	2800      	cmp	r0, #0
10005590:	f000 80c9 	beq.w	10005726 <_vsnprintf+0x1d6>
10005594:	2825      	cmp	r0, #37	; 0x25
10005596:	d1f2      	bne.n	1000557e <_vsnprintf+0x2e>
10005598:	2100      	movs	r1, #0
1000559a:	1c63      	adds	r3, r4, #1
1000559c:	461c      	mov	r4, r3
1000559e:	f813 0b01 	ldrb.w	r0, [r3], #1
100055a2:	f1a0 0220 	sub.w	r2, r0, #32
100055a6:	2a10      	cmp	r2, #16
100055a8:	d80a      	bhi.n	100055c0 <_vsnprintf+0x70>
100055aa:	e8df f002 	tbb	[pc, r2]
100055ae:	093c      	.short	0x093c
100055b0:	09093909 	.word	0x09093909
100055b4:	09090909 	.word	0x09090909
100055b8:	33093609 	.word	0x33093609
100055bc:	0909      	.short	0x0909
100055be:	30          	.byte	0x30
100055bf:	00          	.byte	0x00
100055c0:	f1a0 0330 	sub.w	r3, r0, #48	; 0x30
100055c4:	2b09      	cmp	r3, #9
100055c6:	f240 8090 	bls.w	100056ea <_vsnprintf+0x19a>
100055ca:	282a      	cmp	r0, #42	; 0x2a
100055cc:	f000 80b9 	beq.w	10005742 <_vsnprintf+0x1f2>
100055d0:	2500      	movs	r5, #0
100055d2:	282e      	cmp	r0, #46	; 0x2e
100055d4:	f000 8098 	beq.w	10005708 <_vsnprintf+0x1b8>
100055d8:	2300      	movs	r3, #0
100055da:	930a      	str	r3, [sp, #40]	; 0x28
100055dc:	f1a0 0368 	sub.w	r3, r0, #104	; 0x68
100055e0:	2b12      	cmp	r3, #18
100055e2:	d827      	bhi.n	10005634 <_vsnprintf+0xe4>
100055e4:	e8df f013 	tbh	[pc, r3, lsl #1]
100055e8:	0026011f 	.word	0x0026011f
100055ec:	0026011a 	.word	0x0026011a
100055f0:	00260127 	.word	0x00260127
100055f4:	00260026 	.word	0x00260026
100055f8:	00260026 	.word	0x00260026
100055fc:	00260026 	.word	0x00260026
10005600:	00260022 	.word	0x00260022
10005604:	00260026 	.word	0x00260026
10005608:	00260026 	.word	0x00260026
1000560c:	0022      	.short	0x0022
1000560e:	f041 0101 	orr.w	r1, r1, #1
10005612:	e7c3      	b.n	1000559c <_vsnprintf+0x4c>
10005614:	f041 0102 	orr.w	r1, r1, #2
10005618:	e7c0      	b.n	1000559c <_vsnprintf+0x4c>
1000561a:	f041 0104 	orr.w	r1, r1, #4
1000561e:	e7bd      	b.n	1000559c <_vsnprintf+0x4c>
10005620:	f041 0110 	orr.w	r1, r1, #16
10005624:	e7ba      	b.n	1000559c <_vsnprintf+0x4c>
10005626:	f041 0108 	orr.w	r1, r1, #8
1000562a:	e7b7      	b.n	1000559c <_vsnprintf+0x4c>
1000562c:	7860      	ldrb	r0, [r4, #1]
1000562e:	f441 7180 	orr.w	r1, r1, #256	; 0x100
10005632:	3401      	adds	r4, #1
10005634:	f1a0 0325 	sub.w	r3, r0, #37	; 0x25
10005638:	2b53      	cmp	r3, #83	; 0x53
1000563a:	f200 808e 	bhi.w	1000575a <_vsnprintf+0x20a>
1000563e:	e8df f013 	tbh	[pc, r3, lsl #1]
10005642:	011c      	.short	0x011c
10005644:	008c008c 	.word	0x008c008c
10005648:	008c008c 	.word	0x008c008c
1000564c:	008c008c 	.word	0x008c008c
10005650:	008c008c 	.word	0x008c008c
10005654:	008c008c 	.word	0x008c008c
10005658:	008c008c 	.word	0x008c008c
1000565c:	008c008c 	.word	0x008c008c
10005660:	008c008c 	.word	0x008c008c
10005664:	008c008c 	.word	0x008c008c
10005668:	008c008c 	.word	0x008c008c
1000566c:	008c008c 	.word	0x008c008c
10005670:	008c008c 	.word	0x008c008c
10005674:	008c008c 	.word	0x008c008c
10005678:	008c008c 	.word	0x008c008c
1000567c:	008c008c 	.word	0x008c008c
10005680:	01c5008c 	.word	0x01c5008c
10005684:	01c50102 	.word	0x01c50102
10005688:	008c008c 	.word	0x008c008c
1000568c:	008c008c 	.word	0x008c008c
10005690:	008c008c 	.word	0x008c008c
10005694:	008c008c 	.word	0x008c008c
10005698:	008c008c 	.word	0x008c008c
1000569c:	008c008c 	.word	0x008c008c
100056a0:	008c008c 	.word	0x008c008c
100056a4:	008c008c 	.word	0x008c008c
100056a8:	008c009b 	.word	0x008c009b
100056ac:	008c008c 	.word	0x008c008c
100056b0:	008c008c 	.word	0x008c008c
100056b4:	008c008c 	.word	0x008c008c
100056b8:	008c008c 	.word	0x008c008c
100056bc:	018e009b 	.word	0x018e009b
100056c0:	01c5009b 	.word	0x01c5009b
100056c4:	01c50102 	.word	0x01c50102
100056c8:	009b008c 	.word	0x009b008c
100056cc:	008c008c 	.word	0x008c008c
100056d0:	008c008c 	.word	0x008c008c
100056d4:	009b008c 	.word	0x009b008c
100056d8:	008c016e 	.word	0x008c016e
100056dc:	0126008c 	.word	0x0126008c
100056e0:	009b008c 	.word	0x009b008c
100056e4:	008c008c 	.word	0x008c008c
100056e8:	009b      	.short	0x009b
100056ea:	2500      	movs	r5, #0
100056ec:	eb05 0585 	add.w	r5, r5, r5, lsl #2
100056f0:	eb00 0545 	add.w	r5, r0, r5, lsl #1
100056f4:	f814 0f01 	ldrb.w	r0, [r4, #1]!
100056f8:	3d30      	subs	r5, #48	; 0x30
100056fa:	f1a0 0330 	sub.w	r3, r0, #48	; 0x30
100056fe:	2b09      	cmp	r3, #9
10005700:	d9f4      	bls.n	100056ec <_vsnprintf+0x19c>
10005702:	282e      	cmp	r0, #46	; 0x2e
10005704:	f47f af68 	bne.w	100055d8 <_vsnprintf+0x88>
10005708:	7860      	ldrb	r0, [r4, #1]
1000570a:	f441 6180 	orr.w	r1, r1, #1024	; 0x400
1000570e:	f1a0 0330 	sub.w	r3, r0, #48	; 0x30
10005712:	2b09      	cmp	r3, #9
10005714:	f104 0201 	add.w	r2, r4, #1
10005718:	f240 813f 	bls.w	1000599a <_vsnprintf+0x44a>
1000571c:	282a      	cmp	r0, #42	; 0x2a
1000571e:	f000 814b 	beq.w	100059b8 <_vsnprintf+0x468>
10005722:	4614      	mov	r4, r2
10005724:	e758      	b.n	100055d8 <_vsnprintf+0x88>
10005726:	4654      	mov	r4, sl
10005728:	45d0      	cmp	r8, sl
1000572a:	d801      	bhi.n	10005730 <_vsnprintf+0x1e0>
1000572c:	f108 3aff 	add.w	sl, r8, #4294967295
10005730:	4643      	mov	r3, r8
10005732:	4652      	mov	r2, sl
10005734:	4639      	mov	r1, r7
10005736:	2000      	movs	r0, #0
10005738:	47d8      	blx	fp
1000573a:	4620      	mov	r0, r4
1000573c:	b01b      	add	sp, #108	; 0x6c
1000573e:	e8bd 8ff0 	ldmia.w	sp!, {r4, r5, r6, r7, r8, r9, sl, fp, pc}
10005742:	9b09      	ldr	r3, [sp, #36]	; 0x24
10005744:	7860      	ldrb	r0, [r4, #1]
10005746:	f853 5b04 	ldr.w	r5, [r3], #4
1000574a:	3401      	adds	r4, #1
1000574c:	2d00      	cmp	r5, #0
1000574e:	bfbc      	itt	lt
10005750:	f041 0102 	orrlt.w	r1, r1, #2
10005754:	426d      	neglt	r5, r5
10005756:	9309      	str	r3, [sp, #36]	; 0x24
10005758:	e73b      	b.n	100055d2 <_vsnprintf+0x82>
1000575a:	4652      	mov	r2, sl
1000575c:	4643      	mov	r3, r8
1000575e:	4639      	mov	r1, r7
10005760:	3401      	adds	r4, #1
10005762:	f10a 0a01 	add.w	sl, sl, #1
10005766:	47d8      	blx	fp
10005768:	e710      	b.n	1000558c <_vsnprintf+0x3c>
1000576a:	bf00      	nop
1000576c:	10005551 	.word	0x10005551
10005770:	20002fd4 	.word	0x20002fd4
10005774:	10004a8d 	.word	0x10004a8d
10005778:	2878      	cmp	r0, #120	; 0x78
1000577a:	f000 817a 	beq.w	10005a72 <_vsnprintf+0x522>
1000577e:	2858      	cmp	r0, #88	; 0x58
10005780:	f000 81c0 	beq.w	10005b04 <_vsnprintf+0x5b4>
10005784:	286f      	cmp	r0, #111	; 0x6f
10005786:	f000 820e 	beq.w	10005ba6 <_vsnprintf+0x656>
1000578a:	2862      	cmp	r0, #98	; 0x62
1000578c:	f000 836a 	beq.w	10005e64 <_vsnprintf+0x914>
10005790:	f021 0310 	bic.w	r3, r1, #16
10005794:	2869      	cmp	r0, #105	; 0x69
10005796:	f04f 090a 	mov.w	r9, #10
1000579a:	930b      	str	r3, [sp, #44]	; 0x2c
1000579c:	f040 8206 	bne.w	10005bac <_vsnprintf+0x65c>
100057a0:	0549      	lsls	r1, r1, #21
100057a2:	f100 816d 	bmi.w	10005a80 <_vsnprintf+0x530>
100057a6:	9b0b      	ldr	r3, [sp, #44]	; 0x2c
100057a8:	f413 7000 	ands.w	r0, r3, #512	; 0x200
100057ac:	f040 8208 	bne.w	10005bc0 <_vsnprintf+0x670>
100057b0:	f413 7180 	ands.w	r1, r3, #256	; 0x100
100057b4:	f040 82e3 	bne.w	10005d7e <_vsnprintf+0x82e>
100057b8:	065e      	lsls	r6, r3, #25
100057ba:	9a09      	ldr	r2, [sp, #36]	; 0x24
100057bc:	f100 8249 	bmi.w	10005c52 <_vsnprintf+0x702>
100057c0:	f013 0f80 	tst.w	r3, #128	; 0x80
100057c4:	f852 3b04 	ldr.w	r3, [r2], #4
100057c8:	f000 8397 	beq.w	10005efa <_vsnprintf+0x9aa>
100057cc:	b21b      	sxth	r3, r3
100057ce:	9209      	str	r2, [sp, #36]	; 0x24
100057d0:	ea83 72e3 	eor.w	r2, r3, r3, asr #31
100057d4:	eba2 72e3 	sub.w	r2, r2, r3, asr #31
100057d8:	b292      	uxth	r2, r2
100057da:	0fd8      	lsrs	r0, r3, #31
100057dc:	900d      	str	r0, [sp, #52]	; 0x34
100057de:	2b00      	cmp	r3, #0
100057e0:	f040 8265 	bne.w	10005cae <_vsnprintf+0x75e>
100057e4:	980b      	ldr	r0, [sp, #44]	; 0x2c
100057e6:	f020 0310 	bic.w	r3, r0, #16
100057ea:	0540      	lsls	r0, r0, #21
100057ec:	930b      	str	r3, [sp, #44]	; 0x2c
100057ee:	f140 825e 	bpl.w	10005cae <_vsnprintf+0x75e>
100057f2:	ab12      	add	r3, sp, #72	; 0x48
100057f4:	930c      	str	r3, [sp, #48]	; 0x30
100057f6:	4652      	mov	r2, sl
100057f8:	9b0b      	ldr	r3, [sp, #44]	; 0x2c
100057fa:	e9cd 5305 	strd	r5, r3, [sp, #20]
100057fe:	9b0a      	ldr	r3, [sp, #40]	; 0x28
10005800:	e9cd 9303 	strd	r9, r3, [sp, #12]
10005804:	9b0d      	ldr	r3, [sp, #52]	; 0x34
10005806:	e9cd 1301 	strd	r1, r3, [sp, #4]
1000580a:	9b0c      	ldr	r3, [sp, #48]	; 0x30
1000580c:	9300      	str	r3, [sp, #0]
1000580e:	4643      	mov	r3, r8
10005810:	4639      	mov	r1, r7
10005812:	4658      	mov	r0, fp
10005814:	f7ff f980 	bl	10004b18 <_ntoa_format>
10005818:	4682      	mov	sl, r0
1000581a:	e07e      	b.n	1000591a <_vsnprintf+0x3ca>
1000581c:	7860      	ldrb	r0, [r4, #1]
1000581e:	f441 7100 	orr.w	r1, r1, #512	; 0x200
10005822:	3401      	adds	r4, #1
10005824:	e706      	b.n	10005634 <_vsnprintf+0xe4>
10005826:	7860      	ldrb	r0, [r4, #1]
10005828:	2868      	cmp	r0, #104	; 0x68
1000582a:	f000 8163 	beq.w	10005af4 <_vsnprintf+0x5a4>
1000582e:	f041 0180 	orr.w	r1, r1, #128	; 0x80
10005832:	3401      	adds	r4, #1
10005834:	e6fe      	b.n	10005634 <_vsnprintf+0xe4>
10005836:	7860      	ldrb	r0, [r4, #1]
10005838:	286c      	cmp	r0, #108	; 0x6c
1000583a:	f000 8156 	beq.w	10005aea <_vsnprintf+0x59a>
1000583e:	f441 7180 	orr.w	r1, r1, #256	; 0x100
10005842:	3401      	adds	r4, #1
10005844:	e6f6      	b.n	10005634 <_vsnprintf+0xe4>
10005846:	9b0a      	ldr	r3, [sp, #40]	; 0x28
10005848:	2846      	cmp	r0, #70	; 0x46
1000584a:	bf08      	it	eq
1000584c:	f041 0120 	orreq.w	r1, r1, #32
10005850:	9302      	str	r3, [sp, #8]
10005852:	9b09      	ldr	r3, [sp, #36]	; 0x24
10005854:	e9cd 5103 	strd	r5, r1, [sp, #12]
10005858:	3307      	adds	r3, #7
1000585a:	f023 0507 	bic.w	r5, r3, #7
1000585e:	ecb5 7b02 	vldmia	r5!, {d7}
10005862:	4652      	mov	r2, sl
10005864:	4643      	mov	r3, r8
10005866:	4639      	mov	r1, r7
10005868:	4658      	mov	r0, fp
1000586a:	ed8d 7b00 	vstr	d7, [sp]
1000586e:	9509      	str	r5, [sp, #36]	; 0x24
10005870:	f7ff fc82 	bl	10005178 <_ftoa>
10005874:	3401      	adds	r4, #1
10005876:	4682      	mov	sl, r0
10005878:	e688      	b.n	1000558c <_vsnprintf+0x3c>
1000587a:	f10a 0001 	add.w	r0, sl, #1
1000587e:	4652      	mov	r2, sl
10005880:	4643      	mov	r3, r8
10005882:	4682      	mov	sl, r0
10005884:	4639      	mov	r1, r7
10005886:	2025      	movs	r0, #37	; 0x25
10005888:	3401      	adds	r4, #1
1000588a:	47d8      	blx	fp
1000588c:	e67e      	b.n	1000558c <_vsnprintf+0x3c>
1000588e:	9b09      	ldr	r3, [sp, #36]	; 0x24
10005890:	f853 6b04 	ldr.w	r6, [r3], #4
10005894:	930d      	str	r3, [sp, #52]	; 0x34
10005896:	9b0a      	ldr	r3, [sp, #40]	; 0x28
10005898:	7830      	ldrb	r0, [r6, #0]
1000589a:	2b00      	cmp	r3, #0
1000589c:	f000 80d8 	beq.w	10005a50 <_vsnprintf+0x500>
100058a0:	2800      	cmp	r0, #0
100058a2:	f000 8332 	beq.w	10005f0a <_vsnprintf+0x9ba>
100058a6:	1e5a      	subs	r2, r3, #1
100058a8:	3201      	adds	r2, #1
100058aa:	46b1      	mov	r9, r6
100058ac:	4432      	add	r2, r6
100058ae:	e001      	b.n	100058b4 <_vsnprintf+0x364>
100058b0:	4591      	cmp	r9, r2
100058b2:	d003      	beq.n	100058bc <_vsnprintf+0x36c>
100058b4:	f819 3f01 	ldrb.w	r3, [r9, #1]!
100058b8:	2b00      	cmp	r3, #0
100058ba:	d1f9      	bne.n	100058b0 <_vsnprintf+0x360>
100058bc:	eba9 0306 	sub.w	r3, r9, r6
100058c0:	9309      	str	r3, [sp, #36]	; 0x24
100058c2:	f411 6380 	ands.w	r3, r1, #1024	; 0x400
100058c6:	930b      	str	r3, [sp, #44]	; 0x2c
100058c8:	d005      	beq.n	100058d6 <_vsnprintf+0x386>
100058ca:	e9dd 3209 	ldrd	r3, r2, [sp, #36]	; 0x24
100058ce:	4293      	cmp	r3, r2
100058d0:	bf28      	it	cs
100058d2:	4613      	movcs	r3, r2
100058d4:	9309      	str	r3, [sp, #36]	; 0x24
100058d6:	f011 0302 	ands.w	r3, r1, #2
100058da:	930c      	str	r3, [sp, #48]	; 0x30
100058dc:	f000 8149 	beq.w	10005b72 <_vsnprintf+0x622>
100058e0:	2800      	cmp	r0, #0
100058e2:	f000 8134 	beq.w	10005b4e <_vsnprintf+0x5fe>
100058e6:	9b0b      	ldr	r3, [sp, #44]	; 0x2c
100058e8:	2b00      	cmp	r3, #0
100058ea:	f000 80b7 	beq.w	10005a5c <_vsnprintf+0x50c>
100058ee:	9b0a      	ldr	r3, [sp, #40]	; 0x28
100058f0:	4652      	mov	r2, sl
100058f2:	4453      	add	r3, sl
100058f4:	4699      	mov	r9, r3
100058f6:	e008      	b.n	1000590a <_vsnprintf+0x3ba>
100058f8:	4643      	mov	r3, r8
100058fa:	4639      	mov	r1, r7
100058fc:	47d8      	blx	fp
100058fe:	f816 0f01 	ldrb.w	r0, [r6, #1]!
10005902:	f10a 0a01 	add.w	sl, sl, #1
10005906:	b110      	cbz	r0, 1000590e <_vsnprintf+0x3be>
10005908:	4652      	mov	r2, sl
1000590a:	45d1      	cmp	r9, sl
1000590c:	d1f4      	bne.n	100058f8 <_vsnprintf+0x3a8>
1000590e:	9b0c      	ldr	r3, [sp, #48]	; 0x30
10005910:	2b00      	cmp	r3, #0
10005912:	f040 811c 	bne.w	10005b4e <_vsnprintf+0x5fe>
10005916:	9b0d      	ldr	r3, [sp, #52]	; 0x34
10005918:	9309      	str	r3, [sp, #36]	; 0x24
1000591a:	3401      	adds	r4, #1
1000591c:	e636      	b.n	1000558c <_vsnprintf+0x3c>
1000591e:	9809      	ldr	r0, [sp, #36]	; 0x24
10005920:	f850 3b04 	ldr.w	r3, [r0], #4
10005924:	2b00      	cmp	r3, #0
10005926:	d074      	beq.n	10005a12 <_vsnprintf+0x4c2>
10005928:	f041 0521 	orr.w	r5, r1, #33	; 0x21
1000592c:	aa12      	add	r2, sp, #72	; 0x48
1000592e:	4616      	mov	r6, r2
10005930:	2100      	movs	r1, #0
10005932:	920c      	str	r2, [sp, #48]	; 0x30
10005934:	e002      	b.n	1000593c <_vsnprintf+0x3ec>
10005936:	2920      	cmp	r1, #32
10005938:	d074      	beq.n	10005a24 <_vsnprintf+0x4d4>
1000593a:	4613      	mov	r3, r2
1000593c:	f003 0c0f 	and.w	ip, r3, #15
10005940:	4662      	mov	r2, ip
10005942:	f1bc 0f09 	cmp.w	ip, #9
10005946:	bf94      	ite	ls
10005948:	3230      	addls	r2, #48	; 0x30
1000594a:	3237      	addhi	r2, #55	; 0x37
1000594c:	2b0f      	cmp	r3, #15
1000594e:	f806 2b01 	strb.w	r2, [r6], #1
10005952:	f101 0101 	add.w	r1, r1, #1
10005956:	ea4f 1213 	mov.w	r2, r3, lsr #4
1000595a:	d8ec      	bhi.n	10005936 <_vsnprintf+0x3e6>
1000595c:	e062      	b.n	10005a24 <_vsnprintf+0x4d4>
1000595e:	078b      	lsls	r3, r1, #30
10005960:	f140 80da 	bpl.w	10005b18 <_vsnprintf+0x5c8>
10005964:	f8dd 9024 	ldr.w	r9, [sp, #36]	; 0x24
10005968:	4652      	mov	r2, sl
1000596a:	f859 0b04 	ldr.w	r0, [r9], #4
1000596e:	4643      	mov	r3, r8
10005970:	4639      	mov	r1, r7
10005972:	b2c0      	uxtb	r0, r0
10005974:	47d8      	blx	fp
10005976:	2d01      	cmp	r5, #1
10005978:	f10a 0601 	add.w	r6, sl, #1
1000597c:	bf88      	it	hi
1000597e:	44aa      	addhi	sl, r5
10005980:	f240 8191 	bls.w	10005ca6 <_vsnprintf+0x756>
10005984:	4632      	mov	r2, r6
10005986:	4643      	mov	r3, r8
10005988:	4639      	mov	r1, r7
1000598a:	2020      	movs	r0, #32
1000598c:	3601      	adds	r6, #1
1000598e:	47d8      	blx	fp
10005990:	4556      	cmp	r6, sl
10005992:	d1f7      	bne.n	10005984 <_vsnprintf+0x434>
10005994:	f8cd 9024 	str.w	r9, [sp, #36]	; 0x24
10005998:	e7bf      	b.n	1000591a <_vsnprintf+0x3ca>
1000599a:	2300      	movs	r3, #0
1000599c:	eb03 0383 	add.w	r3, r3, r3, lsl #2
100059a0:	eb00 0343 	add.w	r3, r0, r3, lsl #1
100059a4:	f812 0f01 	ldrb.w	r0, [r2, #1]!
100059a8:	3b30      	subs	r3, #48	; 0x30
100059aa:	f1a0 0430 	sub.w	r4, r0, #48	; 0x30
100059ae:	2c09      	cmp	r4, #9
100059b0:	d9f4      	bls.n	1000599c <_vsnprintf+0x44c>
100059b2:	4614      	mov	r4, r2
100059b4:	930a      	str	r3, [sp, #40]	; 0x28
100059b6:	e611      	b.n	100055dc <_vsnprintf+0x8c>
100059b8:	9b09      	ldr	r3, [sp, #36]	; 0x24
100059ba:	78a0      	ldrb	r0, [r4, #2]
100059bc:	f853 2b04 	ldr.w	r2, [r3], #4
100059c0:	3402      	adds	r4, #2
100059c2:	9309      	str	r3, [sp, #36]	; 0x24
100059c4:	ea22 73e2 	bic.w	r3, r2, r2, asr #31
100059c8:	930a      	str	r3, [sp, #40]	; 0x28
100059ca:	e607      	b.n	100055dc <_vsnprintf+0x8c>
100059cc:	f000 03df 	and.w	r3, r0, #223	; 0xdf
100059d0:	2b47      	cmp	r3, #71	; 0x47
100059d2:	bf08      	it	eq
100059d4:	f000 00fd 	andeq.w	r0, r0, #253	; 0xfd
100059d8:	9b0a      	ldr	r3, [sp, #40]	; 0x28
100059da:	bf08      	it	eq
100059dc:	f441 6100 	orreq.w	r1, r1, #2048	; 0x800
100059e0:	2845      	cmp	r0, #69	; 0x45
100059e2:	bf08      	it	eq
100059e4:	f041 0120 	orreq.w	r1, r1, #32
100059e8:	9302      	str	r3, [sp, #8]
100059ea:	9b09      	ldr	r3, [sp, #36]	; 0x24
100059ec:	e9cd 5103 	strd	r5, r1, [sp, #12]
100059f0:	3307      	adds	r3, #7
100059f2:	f023 0507 	bic.w	r5, r3, #7
100059f6:	ecb5 7b02 	vldmia	r5!, {d7}
100059fa:	4652      	mov	r2, sl
100059fc:	4643      	mov	r3, r8
100059fe:	4639      	mov	r1, r7
10005a00:	4658      	mov	r0, fp
10005a02:	ed8d 7b00 	vstr	d7, [sp]
10005a06:	9509      	str	r5, [sp, #36]	; 0x24
10005a08:	f7ff f986 	bl	10004d18 <_etoa>
10005a0c:	3401      	adds	r4, #1
10005a0e:	4682      	mov	sl, r0
10005a10:	e5bc      	b.n	1000558c <_vsnprintf+0x3c>
10005a12:	f021 0510 	bic.w	r5, r1, #16
10005a16:	054e      	lsls	r6, r1, #21
10005a18:	f045 0521 	orr.w	r5, r5, #33	; 0x21
10005a1c:	d586      	bpl.n	1000592c <_vsnprintf+0x3dc>
10005a1e:	4619      	mov	r1, r3
10005a20:	ab12      	add	r3, sp, #72	; 0x48
10005a22:	930c      	str	r3, [sp, #48]	; 0x30
10005a24:	9b0a      	ldr	r3, [sp, #40]	; 0x28
10005a26:	4652      	mov	r2, sl
10005a28:	9304      	str	r3, [sp, #16]
10005a2a:	9b0c      	ldr	r3, [sp, #48]	; 0x30
10005a2c:	9101      	str	r1, [sp, #4]
10005a2e:	9300      	str	r3, [sp, #0]
10005a30:	2308      	movs	r3, #8
10005a32:	9305      	str	r3, [sp, #20]
10005a34:	2310      	movs	r3, #16
10005a36:	9303      	str	r3, [sp, #12]
10005a38:	2300      	movs	r3, #0
10005a3a:	9009      	str	r0, [sp, #36]	; 0x24
10005a3c:	9302      	str	r3, [sp, #8]
10005a3e:	4639      	mov	r1, r7
10005a40:	4643      	mov	r3, r8
10005a42:	4658      	mov	r0, fp
10005a44:	9506      	str	r5, [sp, #24]
10005a46:	f7ff f867 	bl	10004b18 <_ntoa_format>
10005a4a:	3401      	adds	r4, #1
10005a4c:	4682      	mov	sl, r0
10005a4e:	e59d      	b.n	1000558c <_vsnprintf+0x3c>
10005a50:	f06f 0201 	mvn.w	r2, #1
10005a54:	2800      	cmp	r0, #0
10005a56:	f47f af27 	bne.w	100058a8 <_vsnprintf+0x358>
10005a5a:	e731      	b.n	100058c0 <_vsnprintf+0x370>
10005a5c:	4652      	mov	r2, sl
10005a5e:	4643      	mov	r3, r8
10005a60:	4639      	mov	r1, r7
10005a62:	47d8      	blx	fp
10005a64:	f816 0f01 	ldrb.w	r0, [r6, #1]!
10005a68:	f10a 0a01 	add.w	sl, sl, #1
10005a6c:	2800      	cmp	r0, #0
10005a6e:	d1f5      	bne.n	10005a5c <_vsnprintf+0x50c>
10005a70:	e74d      	b.n	1000590e <_vsnprintf+0x3be>
10005a72:	f04f 0910 	mov.w	r9, #16
10005a76:	f021 030c 	bic.w	r3, r1, #12
10005a7a:	0549      	lsls	r1, r1, #21
10005a7c:	930b      	str	r3, [sp, #44]	; 0x2c
10005a7e:	d503      	bpl.n	10005a88 <_vsnprintf+0x538>
10005a80:	9b0b      	ldr	r3, [sp, #44]	; 0x2c
10005a82:	f023 0301 	bic.w	r3, r3, #1
10005a86:	930b      	str	r3, [sp, #44]	; 0x2c
10005a88:	2869      	cmp	r0, #105	; 0x69
10005a8a:	f43f ae8c 	beq.w	100057a6 <_vsnprintf+0x256>
10005a8e:	2864      	cmp	r0, #100	; 0x64
10005a90:	f43f ae89 	beq.w	100057a6 <_vsnprintf+0x256>
10005a94:	9b0b      	ldr	r3, [sp, #44]	; 0x2c
10005a96:	f413 7000 	ands.w	r0, r3, #512	; 0x200
10005a9a:	f040 8152 	bne.w	10005d42 <_vsnprintf+0x7f2>
10005a9e:	f413 7180 	ands.w	r1, r3, #256	; 0x100
10005aa2:	f040 81c6 	bne.w	10005e32 <_vsnprintf+0x8e2>
10005aa6:	065e      	lsls	r6, r3, #25
10005aa8:	f140 80f0 	bpl.w	10005c8c <_vsnprintf+0x73c>
10005aac:	9b09      	ldr	r3, [sp, #36]	; 0x24
10005aae:	f853 2b04 	ldr.w	r2, [r3], #4
10005ab2:	9309      	str	r3, [sp, #36]	; 0x24
10005ab4:	b2d2      	uxtb	r2, r2
10005ab6:	2a00      	cmp	r2, #0
10005ab8:	f040 811e 	bne.w	10005cf8 <_vsnprintf+0x7a8>
10005abc:	980b      	ldr	r0, [sp, #44]	; 0x2c
10005abe:	f020 0310 	bic.w	r3, r0, #16
10005ac2:	0540      	lsls	r0, r0, #21
10005ac4:	930b      	str	r3, [sp, #44]	; 0x2c
10005ac6:	f140 8117 	bpl.w	10005cf8 <_vsnprintf+0x7a8>
10005aca:	4611      	mov	r1, r2
10005acc:	ab12      	add	r3, sp, #72	; 0x48
10005ace:	930c      	str	r3, [sp, #48]	; 0x30
10005ad0:	9b0b      	ldr	r3, [sp, #44]	; 0x2c
10005ad2:	9101      	str	r1, [sp, #4]
10005ad4:	e9cd 5305 	strd	r5, r3, [sp, #20]
10005ad8:	9b0a      	ldr	r3, [sp, #40]	; 0x28
10005ada:	e9cd 9303 	strd	r9, r3, [sp, #12]
10005ade:	4652      	mov	r2, sl
10005ae0:	9b0c      	ldr	r3, [sp, #48]	; 0x30
10005ae2:	9300      	str	r3, [sp, #0]
10005ae4:	2300      	movs	r3, #0
10005ae6:	9302      	str	r3, [sp, #8]
10005ae8:	e691      	b.n	1000580e <_vsnprintf+0x2be>
10005aea:	78a0      	ldrb	r0, [r4, #2]
10005aec:	f441 7140 	orr.w	r1, r1, #768	; 0x300
10005af0:	3402      	adds	r4, #2
10005af2:	e59f      	b.n	10005634 <_vsnprintf+0xe4>
10005af4:	78a0      	ldrb	r0, [r4, #2]
10005af6:	f041 01c0 	orr.w	r1, r1, #192	; 0xc0
10005afa:	3402      	adds	r4, #2
10005afc:	e59a      	b.n	10005634 <_vsnprintf+0xe4>
10005afe:	4604      	mov	r4, r0
10005b00:	4682      	mov	sl, r0
10005b02:	e611      	b.n	10005728 <_vsnprintf+0x1d8>
10005b04:	f021 030c 	bic.w	r3, r1, #12
10005b08:	f043 0320 	orr.w	r3, r3, #32
10005b0c:	930b      	str	r3, [sp, #44]	; 0x2c
10005b0e:	054b      	lsls	r3, r1, #21
10005b10:	f04f 0910 	mov.w	r9, #16
10005b14:	d4b4      	bmi.n	10005a80 <_vsnprintf+0x530>
10005b16:	e7bd      	b.n	10005a94 <_vsnprintf+0x544>
10005b18:	2d01      	cmp	r5, #1
10005b1a:	f240 81f4 	bls.w	10005f06 <_vsnprintf+0x9b6>
10005b1e:	f10a 33ff 	add.w	r3, sl, #4294967295
10005b22:	441d      	add	r5, r3
10005b24:	4652      	mov	r2, sl
10005b26:	4643      	mov	r3, r8
10005b28:	4639      	mov	r1, r7
10005b2a:	2020      	movs	r0, #32
10005b2c:	f10a 0a01 	add.w	sl, sl, #1
10005b30:	47d8      	blx	fp
10005b32:	45aa      	cmp	sl, r5
10005b34:	d1f6      	bne.n	10005b24 <_vsnprintf+0x5d4>
10005b36:	9e09      	ldr	r6, [sp, #36]	; 0x24
10005b38:	4643      	mov	r3, r8
10005b3a:	f856 0b04 	ldr.w	r0, [r6], #4
10005b3e:	462a      	mov	r2, r5
10005b40:	4639      	mov	r1, r7
10005b42:	b2c0      	uxtb	r0, r0
10005b44:	47d8      	blx	fp
10005b46:	f105 0a01 	add.w	sl, r5, #1
10005b4a:	9609      	str	r6, [sp, #36]	; 0x24
10005b4c:	e6e5      	b.n	1000591a <_vsnprintf+0x3ca>
10005b4e:	9b09      	ldr	r3, [sp, #36]	; 0x24
10005b50:	4656      	mov	r6, sl
10005b52:	429d      	cmp	r5, r3
10005b54:	f67f aedf 	bls.w	10005916 <_vsnprintf+0x3c6>
10005b58:	eb05 000a 	add.w	r0, r5, sl
10005b5c:	eba0 0a03 	sub.w	sl, r0, r3
10005b60:	4632      	mov	r2, r6
10005b62:	4643      	mov	r3, r8
10005b64:	4639      	mov	r1, r7
10005b66:	2020      	movs	r0, #32
10005b68:	3601      	adds	r6, #1
10005b6a:	47d8      	blx	fp
10005b6c:	4556      	cmp	r6, sl
10005b6e:	d1f7      	bne.n	10005b60 <_vsnprintf+0x610>
10005b70:	e6d1      	b.n	10005916 <_vsnprintf+0x3c6>
10005b72:	9a09      	ldr	r2, [sp, #36]	; 0x24
10005b74:	4295      	cmp	r5, r2
10005b76:	f102 0301 	add.w	r3, r2, #1
10005b7a:	f240 81c8 	bls.w	10005f0e <_vsnprintf+0x9be>
10005b7e:	eb05 090a 	add.w	r9, r5, sl
10005b82:	eba9 0902 	sub.w	r9, r9, r2
10005b86:	4652      	mov	r2, sl
10005b88:	4643      	mov	r3, r8
10005b8a:	4639      	mov	r1, r7
10005b8c:	2020      	movs	r0, #32
10005b8e:	f10a 0a01 	add.w	sl, sl, #1
10005b92:	47d8      	blx	fp
10005b94:	45ca      	cmp	sl, r9
10005b96:	d1f6      	bne.n	10005b86 <_vsnprintf+0x636>
10005b98:	7830      	ldrb	r0, [r6, #0]
10005b9a:	1c6b      	adds	r3, r5, #1
10005b9c:	9309      	str	r3, [sp, #36]	; 0x24
10005b9e:	2800      	cmp	r0, #0
10005ba0:	f47f aea1 	bne.w	100058e6 <_vsnprintf+0x396>
10005ba4:	e6b7      	b.n	10005916 <_vsnprintf+0x3c6>
10005ba6:	f04f 0908 	mov.w	r9, #8
10005baa:	910b      	str	r1, [sp, #44]	; 0x2c
10005bac:	2864      	cmp	r0, #100	; 0x64
10005bae:	bf18      	it	ne
10005bb0:	990b      	ldrne	r1, [sp, #44]	; 0x2c
10005bb2:	f47f af60 	bne.w	10005a76 <_vsnprintf+0x526>
10005bb6:	9b0b      	ldr	r3, [sp, #44]	; 0x2c
10005bb8:	055a      	lsls	r2, r3, #21
10005bba:	f53f af61 	bmi.w	10005a80 <_vsnprintf+0x530>
10005bbe:	e5f2      	b.n	100057a6 <_vsnprintf+0x256>
10005bc0:	9b09      	ldr	r3, [sp, #36]	; 0x24
10005bc2:	3307      	adds	r3, #7
10005bc4:	f023 0307 	bic.w	r3, r3, #7
10005bc8:	461a      	mov	r2, r3
10005bca:	4610      	mov	r0, r2
10005bcc:	685b      	ldr	r3, [r3, #4]
10005bce:	f850 2b08 	ldr.w	r2, [r0], #8
10005bd2:	2b00      	cmp	r3, #0
10005bd4:	4619      	mov	r1, r3
10005bd6:	4616      	mov	r6, r2
10005bd8:	9009      	str	r0, [sp, #36]	; 0x24
10005bda:	db60      	blt.n	10005c9e <_vsnprintf+0x74e>
10005bdc:	4608      	mov	r0, r1
10005bde:	0fd9      	lsrs	r1, r3, #31
10005be0:	4313      	orrs	r3, r2
10005be2:	910d      	str	r1, [sp, #52]	; 0x34
10005be4:	d03b      	beq.n	10005c5e <_vsnprintf+0x70e>
10005be6:	9b0b      	ldr	r3, [sp, #44]	; 0x2c
10005be8:	2100      	movs	r1, #0
10005bea:	f013 0f20 	tst.w	r3, #32
10005bee:	bf14      	ite	ne
10005bf0:	2341      	movne	r3, #65	; 0x41
10005bf2:	2361      	moveq	r3, #97	; 0x61
10005bf4:	aa12      	add	r2, sp, #72	; 0x48
10005bf6:	3b0a      	subs	r3, #10
10005bf8:	e9cd a50e 	strd	sl, r5, [sp, #56]	; 0x38
10005bfc:	9410      	str	r4, [sp, #64]	; 0x40
10005bfe:	f8cd b044 	str.w	fp, [sp, #68]	; 0x44
10005c02:	460d      	mov	r5, r1
10005c04:	4614      	mov	r4, r2
10005c06:	4682      	mov	sl, r0
10005c08:	469b      	mov	fp, r3
10005c0a:	920c      	str	r2, [sp, #48]	; 0x30
10005c0c:	e003      	b.n	10005c16 <_vsnprintf+0x6c6>
10005c0e:	2d20      	cmp	r5, #32
10005c10:	d017      	beq.n	10005c42 <_vsnprintf+0x6f2>
10005c12:	4606      	mov	r6, r0
10005c14:	468a      	mov	sl, r1
10005c16:	4630      	mov	r0, r6
10005c18:	464a      	mov	r2, r9
10005c1a:	4651      	mov	r1, sl
10005c1c:	2300      	movs	r3, #0
10005c1e:	f003 f98b 	bl	10008f38 <____aeabi_uldivmod_veneer>
10005c22:	b2d2      	uxtb	r2, r2
10005c24:	2a09      	cmp	r2, #9
10005c26:	f102 0330 	add.w	r3, r2, #48	; 0x30
10005c2a:	bf88      	it	hi
10005c2c:	eb02 030b 	addhi.w	r3, r2, fp
10005c30:	b2db      	uxtb	r3, r3
10005c32:	454e      	cmp	r6, r9
10005c34:	f804 3b01 	strb.w	r3, [r4], #1
10005c38:	f17a 0300 	sbcs.w	r3, sl, #0
10005c3c:	f105 0501 	add.w	r5, r5, #1
10005c40:	d2e5      	bcs.n	10005c0e <_vsnprintf+0x6be>
10005c42:	462a      	mov	r2, r5
10005c44:	f8dd a038 	ldr.w	sl, [sp, #56]	; 0x38
10005c48:	9c10      	ldr	r4, [sp, #64]	; 0x40
10005c4a:	9d0f      	ldr	r5, [sp, #60]	; 0x3c
10005c4c:	f8dd b044 	ldr.w	fp, [sp, #68]	; 0x44
10005c50:	e00f      	b.n	10005c72 <_vsnprintf+0x722>
10005c52:	f852 3b04 	ldr.w	r3, [r2], #4
10005c56:	b2db      	uxtb	r3, r3
10005c58:	9209      	str	r2, [sp, #36]	; 0x24
10005c5a:	461a      	mov	r2, r3
10005c5c:	e5bd      	b.n	100057da <_vsnprintf+0x28a>
10005c5e:	9a0b      	ldr	r2, [sp, #44]	; 0x2c
10005c60:	f022 0310 	bic.w	r3, r2, #16
10005c64:	0552      	lsls	r2, r2, #21
10005c66:	930b      	str	r3, [sp, #44]	; 0x2c
10005c68:	d5bd      	bpl.n	10005be6 <_vsnprintf+0x696>
10005c6a:	2300      	movs	r3, #0
10005c6c:	461a      	mov	r2, r3
10005c6e:	ab12      	add	r3, sp, #72	; 0x48
10005c70:	930c      	str	r3, [sp, #48]	; 0x30
10005c72:	9b0b      	ldr	r3, [sp, #44]	; 0x2c
10005c74:	9201      	str	r2, [sp, #4]
10005c76:	e9cd 5305 	strd	r5, r3, [sp, #20]
10005c7a:	9b0a      	ldr	r3, [sp, #40]	; 0x28
10005c7c:	4652      	mov	r2, sl
10005c7e:	e9cd 9303 	strd	r9, r3, [sp, #12]
10005c82:	9b0d      	ldr	r3, [sp, #52]	; 0x34
10005c84:	9302      	str	r3, [sp, #8]
10005c86:	9b0c      	ldr	r3, [sp, #48]	; 0x30
10005c88:	9300      	str	r3, [sp, #0]
10005c8a:	e5c0      	b.n	1000580e <_vsnprintf+0x2be>
10005c8c:	f013 0f80 	tst.w	r3, #128	; 0x80
10005c90:	9b09      	ldr	r3, [sp, #36]	; 0x24
10005c92:	f853 2b04 	ldr.w	r2, [r3], #4
10005c96:	9309      	str	r3, [sp, #36]	; 0x24
10005c98:	bf18      	it	ne
10005c9a:	b292      	uxthne	r2, r2
10005c9c:	e70b      	b.n	10005ab6 <_vsnprintf+0x566>
10005c9e:	4256      	negs	r6, r2
10005ca0:	eb63 0143 	sbc.w	r1, r3, r3, lsl #1
10005ca4:	e79a      	b.n	10005bdc <_vsnprintf+0x68c>
10005ca6:	46b2      	mov	sl, r6
10005ca8:	f8cd 9024 	str.w	r9, [sp, #36]	; 0x24
10005cac:	e635      	b.n	1000591a <_vsnprintf+0x3ca>
10005cae:	9b0b      	ldr	r3, [sp, #44]	; 0x2c
10005cb0:	f013 0f20 	tst.w	r3, #32
10005cb4:	bf14      	ite	ne
10005cb6:	f04f 0e41 	movne.w	lr, #65	; 0x41
10005cba:	f04f 0e61 	moveq.w	lr, #97	; 0x61
10005cbe:	ab12      	add	r3, sp, #72	; 0x48
10005cc0:	469c      	mov	ip, r3
10005cc2:	930c      	str	r3, [sp, #48]	; 0x30
10005cc4:	f1ae 0e0a 	sub.w	lr, lr, #10
10005cc8:	e003      	b.n	10005cd2 <_vsnprintf+0x782>
10005cca:	2920      	cmp	r1, #32
10005ccc:	f43f ad93 	beq.w	100057f6 <_vsnprintf+0x2a6>
10005cd0:	4632      	mov	r2, r6
10005cd2:	fbb2 f6f9 	udiv	r6, r2, r9
10005cd6:	fb09 2016 	mls	r0, r9, r6, r2
10005cda:	b2c3      	uxtb	r3, r0
10005cdc:	2809      	cmp	r0, #9
10005cde:	f103 0030 	add.w	r0, r3, #48	; 0x30
10005ce2:	bf8a      	itet	hi
10005ce4:	4473      	addhi	r3, lr
10005ce6:	b2c3      	uxtbls	r3, r0
10005ce8:	b2db      	uxtbhi	r3, r3
10005cea:	454a      	cmp	r2, r9
10005cec:	f80c 3b01 	strb.w	r3, [ip], #1
10005cf0:	f101 0101 	add.w	r1, r1, #1
10005cf4:	d2e9      	bcs.n	10005cca <_vsnprintf+0x77a>
10005cf6:	e57e      	b.n	100057f6 <_vsnprintf+0x2a6>
10005cf8:	9b0b      	ldr	r3, [sp, #44]	; 0x2c
10005cfa:	f013 0f20 	tst.w	r3, #32
10005cfe:	bf14      	ite	ne
10005d00:	f04f 0e41 	movne.w	lr, #65	; 0x41
10005d04:	f04f 0e61 	moveq.w	lr, #97	; 0x61
10005d08:	ab12      	add	r3, sp, #72	; 0x48
10005d0a:	469c      	mov	ip, r3
10005d0c:	930c      	str	r3, [sp, #48]	; 0x30
10005d0e:	f1ae 0e0a 	sub.w	lr, lr, #10
10005d12:	e003      	b.n	10005d1c <_vsnprintf+0x7cc>
10005d14:	2920      	cmp	r1, #32
10005d16:	f43f aedb 	beq.w	10005ad0 <_vsnprintf+0x580>
10005d1a:	4632      	mov	r2, r6
10005d1c:	fbb2 f6f9 	udiv	r6, r2, r9
10005d20:	fb09 2016 	mls	r0, r9, r6, r2
10005d24:	b2c3      	uxtb	r3, r0
10005d26:	2809      	cmp	r0, #9
10005d28:	f103 0030 	add.w	r0, r3, #48	; 0x30
10005d2c:	bf8a      	itet	hi
10005d2e:	4473      	addhi	r3, lr
10005d30:	b2c3      	uxtbls	r3, r0
10005d32:	b2db      	uxtbhi	r3, r3
10005d34:	454a      	cmp	r2, r9
10005d36:	f80c 3b01 	strb.w	r3, [ip], #1
10005d3a:	f101 0101 	add.w	r1, r1, #1
10005d3e:	d2e9      	bcs.n	10005d14 <_vsnprintf+0x7c4>
10005d40:	e6c6      	b.n	10005ad0 <_vsnprintf+0x580>
10005d42:	9b09      	ldr	r3, [sp, #36]	; 0x24
10005d44:	3307      	adds	r3, #7
10005d46:	f023 0307 	bic.w	r3, r3, #7
10005d4a:	685a      	ldr	r2, [r3, #4]
10005d4c:	f853 6b08 	ldr.w	r6, [r3], #8
10005d50:	4610      	mov	r0, r2
10005d52:	9309      	str	r3, [sp, #36]	; 0x24
10005d54:	ea56 0302 	orrs.w	r3, r6, r2
10005d58:	d135      	bne.n	10005dc6 <_vsnprintf+0x876>
10005d5a:	9a0b      	ldr	r2, [sp, #44]	; 0x2c
10005d5c:	f022 0310 	bic.w	r3, r2, #16
10005d60:	0552      	lsls	r2, r2, #21
10005d62:	930b      	str	r3, [sp, #44]	; 0x2c
10005d64:	d52f      	bpl.n	10005dc6 <_vsnprintf+0x876>
10005d66:	2300      	movs	r3, #0
10005d68:	461a      	mov	r2, r3
10005d6a:	ab12      	add	r3, sp, #72	; 0x48
10005d6c:	930c      	str	r3, [sp, #48]	; 0x30
10005d6e:	9b0b      	ldr	r3, [sp, #44]	; 0x2c
10005d70:	9201      	str	r2, [sp, #4]
10005d72:	e9cd 5305 	strd	r5, r3, [sp, #20]
10005d76:	9b0a      	ldr	r3, [sp, #40]	; 0x28
10005d78:	e9cd 9303 	strd	r9, r3, [sp, #12]
10005d7c:	e6af      	b.n	10005ade <_vsnprintf+0x58e>
10005d7e:	9b09      	ldr	r3, [sp, #36]	; 0x24
10005d80:	461a      	mov	r2, r3
10005d82:	f852 3b04 	ldr.w	r3, [r2], #4
10005d86:	920d      	str	r2, [sp, #52]	; 0x34
10005d88:	0fd9      	lsrs	r1, r3, #31
10005d8a:	ea83 72e3 	eor.w	r2, r3, r3, asr #31
10005d8e:	eba2 72e3 	sub.w	r2, r2, r3, asr #31
10005d92:	9109      	str	r1, [sp, #36]	; 0x24
10005d94:	2b00      	cmp	r3, #0
10005d96:	d168      	bne.n	10005e6a <_vsnprintf+0x91a>
10005d98:	990b      	ldr	r1, [sp, #44]	; 0x2c
10005d9a:	f021 0310 	bic.w	r3, r1, #16
10005d9e:	930b      	str	r3, [sp, #44]	; 0x2c
10005da0:	054b      	lsls	r3, r1, #21
10005da2:	d562      	bpl.n	10005e6a <_vsnprintf+0x91a>
10005da4:	ab12      	add	r3, sp, #72	; 0x48
10005da6:	930c      	str	r3, [sp, #48]	; 0x30
10005da8:	9b0b      	ldr	r3, [sp, #44]	; 0x2c
10005daa:	4652      	mov	r2, sl
10005dac:	e9cd 5305 	strd	r5, r3, [sp, #20]
10005db0:	9b0a      	ldr	r3, [sp, #40]	; 0x28
10005db2:	e9cd 9303 	strd	r9, r3, [sp, #12]
10005db6:	9b09      	ldr	r3, [sp, #36]	; 0x24
10005db8:	e9cd 0301 	strd	r0, r3, [sp, #4]
10005dbc:	9b0c      	ldr	r3, [sp, #48]	; 0x30
10005dbe:	9300      	str	r3, [sp, #0]
10005dc0:	9b0d      	ldr	r3, [sp, #52]	; 0x34
10005dc2:	9309      	str	r3, [sp, #36]	; 0x24
10005dc4:	e523      	b.n	1000580e <_vsnprintf+0x2be>
10005dc6:	9b0b      	ldr	r3, [sp, #44]	; 0x2c
10005dc8:	2100      	movs	r1, #0
10005dca:	f013 0f20 	tst.w	r3, #32
10005dce:	bf14      	ite	ne
10005dd0:	2341      	movne	r3, #65	; 0x41
10005dd2:	2361      	moveq	r3, #97	; 0x61
10005dd4:	aa12      	add	r2, sp, #72	; 0x48
10005dd6:	3b0a      	subs	r3, #10
10005dd8:	e9cd a50d 	strd	sl, r5, [sp, #52]	; 0x34
10005ddc:	940f      	str	r4, [sp, #60]	; 0x3c
10005dde:	f8cd b040 	str.w	fp, [sp, #64]	; 0x40
10005de2:	460d      	mov	r5, r1
10005de4:	4614      	mov	r4, r2
10005de6:	4682      	mov	sl, r0
10005de8:	469b      	mov	fp, r3
10005dea:	920c      	str	r2, [sp, #48]	; 0x30
10005dec:	e003      	b.n	10005df6 <_vsnprintf+0x8a6>
10005dee:	2d20      	cmp	r5, #32
10005df0:	d017      	beq.n	10005e22 <_vsnprintf+0x8d2>
10005df2:	4606      	mov	r6, r0
10005df4:	468a      	mov	sl, r1
10005df6:	4630      	mov	r0, r6
10005df8:	464a      	mov	r2, r9
10005dfa:	4651      	mov	r1, sl
10005dfc:	2300      	movs	r3, #0
10005dfe:	f003 f89b 	bl	10008f38 <____aeabi_uldivmod_veneer>
10005e02:	b2d2      	uxtb	r2, r2
10005e04:	2a09      	cmp	r2, #9
10005e06:	f102 0330 	add.w	r3, r2, #48	; 0x30
10005e0a:	bf88      	it	hi
10005e0c:	eb02 030b 	addhi.w	r3, r2, fp
10005e10:	b2db      	uxtb	r3, r3
10005e12:	454e      	cmp	r6, r9
10005e14:	f804 3b01 	strb.w	r3, [r4], #1
10005e18:	f17a 0300 	sbcs.w	r3, sl, #0
10005e1c:	f105 0501 	add.w	r5, r5, #1
10005e20:	d2e5      	bcs.n	10005dee <_vsnprintf+0x89e>
10005e22:	462a      	mov	r2, r5
10005e24:	f8dd a034 	ldr.w	sl, [sp, #52]	; 0x34
10005e28:	9c0f      	ldr	r4, [sp, #60]	; 0x3c
10005e2a:	9d0e      	ldr	r5, [sp, #56]	; 0x38
10005e2c:	f8dd b040 	ldr.w	fp, [sp, #64]	; 0x40
10005e30:	e79d      	b.n	10005d6e <_vsnprintf+0x81e>
10005e32:	9b09      	ldr	r3, [sp, #36]	; 0x24
10005e34:	f853 2b04 	ldr.w	r2, [r3], #4
10005e38:	9309      	str	r3, [sp, #36]	; 0x24
10005e3a:	2a00      	cmp	r2, #0
10005e3c:	d139      	bne.n	10005eb2 <_vsnprintf+0x962>
10005e3e:	990b      	ldr	r1, [sp, #44]	; 0x2c
10005e40:	f021 0310 	bic.w	r3, r1, #16
10005e44:	930b      	str	r3, [sp, #44]	; 0x2c
10005e46:	054b      	lsls	r3, r1, #21
10005e48:	d533      	bpl.n	10005eb2 <_vsnprintf+0x962>
10005e4a:	ab12      	add	r3, sp, #72	; 0x48
10005e4c:	930c      	str	r3, [sp, #48]	; 0x30
10005e4e:	9b0b      	ldr	r3, [sp, #44]	; 0x2c
10005e50:	4652      	mov	r2, sl
10005e52:	e9cd 5305 	strd	r5, r3, [sp, #20]
10005e56:	9b0a      	ldr	r3, [sp, #40]	; 0x28
10005e58:	9001      	str	r0, [sp, #4]
10005e5a:	e9cd 9303 	strd	r9, r3, [sp, #12]
10005e5e:	9b0c      	ldr	r3, [sp, #48]	; 0x30
10005e60:	9300      	str	r3, [sp, #0]
10005e62:	e63f      	b.n	10005ae4 <_vsnprintf+0x594>
10005e64:	f04f 0902 	mov.w	r9, #2
10005e68:	e69f      	b.n	10005baa <_vsnprintf+0x65a>
10005e6a:	9b0b      	ldr	r3, [sp, #44]	; 0x2c
10005e6c:	f013 0f20 	tst.w	r3, #32
10005e70:	bf14      	ite	ne
10005e72:	f04f 0e41 	movne.w	lr, #65	; 0x41
10005e76:	f04f 0e61 	moveq.w	lr, #97	; 0x61
10005e7a:	ab12      	add	r3, sp, #72	; 0x48
10005e7c:	469c      	mov	ip, r3
10005e7e:	930c      	str	r3, [sp, #48]	; 0x30
10005e80:	f1ae 0e0a 	sub.w	lr, lr, #10
10005e84:	e002      	b.n	10005e8c <_vsnprintf+0x93c>
10005e86:	2820      	cmp	r0, #32
10005e88:	d08e      	beq.n	10005da8 <_vsnprintf+0x858>
10005e8a:	4632      	mov	r2, r6
10005e8c:	fbb2 f6f9 	udiv	r6, r2, r9
10005e90:	fb09 2116 	mls	r1, r9, r6, r2
10005e94:	b2cb      	uxtb	r3, r1
10005e96:	2909      	cmp	r1, #9
10005e98:	f103 0130 	add.w	r1, r3, #48	; 0x30
10005e9c:	bf8a      	itet	hi
10005e9e:	4473      	addhi	r3, lr
10005ea0:	b2cb      	uxtbls	r3, r1
10005ea2:	b2db      	uxtbhi	r3, r3
10005ea4:	454a      	cmp	r2, r9
10005ea6:	f80c 3b01 	strb.w	r3, [ip], #1
10005eaa:	f100 0001 	add.w	r0, r0, #1
10005eae:	d2ea      	bcs.n	10005e86 <_vsnprintf+0x936>
10005eb0:	e77a      	b.n	10005da8 <_vsnprintf+0x858>
10005eb2:	9b0b      	ldr	r3, [sp, #44]	; 0x2c
10005eb4:	f013 0f20 	tst.w	r3, #32
10005eb8:	bf14      	ite	ne
10005eba:	f04f 0e41 	movne.w	lr, #65	; 0x41
10005ebe:	f04f 0e61 	moveq.w	lr, #97	; 0x61
10005ec2:	ab12      	add	r3, sp, #72	; 0x48
10005ec4:	469c      	mov	ip, r3
10005ec6:	930c      	str	r3, [sp, #48]	; 0x30
10005ec8:	f1ae 0e0a 	sub.w	lr, lr, #10
10005ecc:	e002      	b.n	10005ed4 <_vsnprintf+0x984>
10005ece:	2820      	cmp	r0, #32
10005ed0:	d0bd      	beq.n	10005e4e <_vsnprintf+0x8fe>
10005ed2:	4632      	mov	r2, r6
10005ed4:	fbb2 f6f9 	udiv	r6, r2, r9
10005ed8:	fb09 2116 	mls	r1, r9, r6, r2
10005edc:	b2cb      	uxtb	r3, r1
10005ede:	2909      	cmp	r1, #9
10005ee0:	f103 0130 	add.w	r1, r3, #48	; 0x30
10005ee4:	bf8a      	itet	hi
10005ee6:	4473      	addhi	r3, lr
10005ee8:	b2cb      	uxtbls	r3, r1
10005eea:	b2db      	uxtbhi	r3, r3
10005eec:	454a      	cmp	r2, r9
10005eee:	f80c 3b01 	strb.w	r3, [ip], #1
10005ef2:	f100 0001 	add.w	r0, r0, #1
10005ef6:	d2ea      	bcs.n	10005ece <_vsnprintf+0x97e>
10005ef8:	e7a9      	b.n	10005e4e <_vsnprintf+0x8fe>
10005efa:	9209      	str	r2, [sp, #36]	; 0x24
10005efc:	ea83 72e3 	eor.w	r2, r3, r3, asr #31
10005f00:	eba2 72e3 	sub.w	r2, r2, r3, asr #31
10005f04:	e469      	b.n	100057da <_vsnprintf+0x28a>
10005f06:	4655      	mov	r5, sl
10005f08:	e615      	b.n	10005b36 <_vsnprintf+0x5e6>
10005f0a:	9009      	str	r0, [sp, #36]	; 0x24
10005f0c:	e4d9      	b.n	100058c2 <_vsnprintf+0x372>
10005f0e:	9309      	str	r3, [sp, #36]	; 0x24
10005f10:	2800      	cmp	r0, #0
10005f12:	f47f ace8 	bne.w	100058e6 <_vsnprintf+0x396>
10005f16:	e4fe      	b.n	10005916 <_vsnprintf+0x3c6>

10005f18 <vfctprintf>:
10005f18:	b570      	push	{r4, r5, r6, lr}
10005f1a:	4694      	mov	ip, r2
10005f1c:	461e      	mov	r6, r3
10005f1e:	4605      	mov	r5, r0
10005f20:	460c      	mov	r4, r1
10005f22:	b084      	sub	sp, #16
10005f24:	f04f 32ff 	mov.w	r2, #4294967295
10005f28:	4663      	mov	r3, ip
10005f2a:	a902      	add	r1, sp, #8
10005f2c:	9600      	str	r6, [sp, #0]
10005f2e:	4803      	ldr	r0, [pc, #12]	; (10005f3c <vfctprintf+0x24>)
10005f30:	e9cd 5402 	strd	r5, r4, [sp, #8]
10005f34:	f7ff fb0c 	bl	10005550 <_vsnprintf>
10005f38:	b004      	add	sp, #16
10005f3a:	bd70      	pop	{r4, r5, r6, pc}
10005f3c:	10004d09 	.word	0x10004d09

10005f40 <weak_raw_vprintf>:
10005f40:	b510      	push	{r4, lr}
10005f42:	4b09      	ldr	r3, [pc, #36]	; (10005f68 <weak_raw_vprintf+0x28>)
10005f44:	b084      	sub	sp, #16
10005f46:	681c      	ldr	r4, [r3, #0]
10005f48:	b14c      	cbz	r4, 10005f5e <weak_raw_vprintf+0x1e>
10005f4a:	4603      	mov	r3, r0
10005f4c:	9100      	str	r1, [sp, #0]
10005f4e:	f04f 32ff 	mov.w	r2, #4294967295
10005f52:	a903      	add	r1, sp, #12
10005f54:	4805      	ldr	r0, [pc, #20]	; (10005f6c <weak_raw_vprintf+0x2c>)
10005f56:	47a0      	blx	r4
10005f58:	2001      	movs	r0, #1
10005f5a:	b004      	add	sp, #16
10005f5c:	bd10      	pop	{r4, pc}
10005f5e:	f000 f971 	bl	10006244 <__wrap_puts>
10005f62:	4620      	mov	r0, r4
10005f64:	b004      	add	sp, #16
10005f66:	bd10      	pop	{r4, pc}
10005f68:	20002fd4 	.word	0x20002fd4
10005f6c:	10004d01 	.word	0x10004d01

10005f70 <_exit>:
10005f70:	be00      	bkpt	0x0000
10005f72:	e7fd      	b.n	10005f70 <_exit>

10005f74 <exit>:
10005f74:	b508      	push	{r3, lr}
10005f76:	f7ff fffb 	bl	10005f70 <_exit>
10005f7a:	bf00      	nop

10005f7c <runtime_init>:
10005f7c:	b538      	push	{r3, r4, r5, lr}
10005f7e:	4d06      	ldr	r5, [pc, #24]	; (10005f98 <runtime_init+0x1c>)
10005f80:	4c06      	ldr	r4, [pc, #24]	; (10005f9c <runtime_init+0x20>)
10005f82:	f7fe fa2f 	bl	100043e4 <runtime_run_initializers>
10005f86:	42ac      	cmp	r4, r5
10005f88:	d204      	bcs.n	10005f94 <runtime_init+0x18>
10005f8a:	f854 3b04 	ldr.w	r3, [r4], #4
10005f8e:	4798      	blx	r3
10005f90:	42ac      	cmp	r4, r5
10005f92:	d3fa      	bcc.n	10005f8a <runtime_init+0xe>
10005f94:	bd38      	pop	{r3, r4, r5, pc}
10005f96:	bf00      	nop
10005f98:	10009044 	.word	0x10009044
10005f9c:	10009038 	.word	0x10009038

10005fa0 <stdio_out_chars_no_crlf>:
10005fa0:	6803      	ldr	r3, [r0, #0]
10005fa2:	4608      	mov	r0, r1
10005fa4:	4611      	mov	r1, r2
10005fa6:	4718      	bx	r3

10005fa8 <stdio_out_chars_crlf>:
10005fa8:	7d43      	ldrb	r3, [r0, #21]
10005faa:	e92d 47f0 	stmdb	sp!, {r4, r5, r6, r7, r8, r9, sl, lr}
10005fae:	4682      	mov	sl, r0
10005fb0:	460f      	mov	r7, r1
10005fb2:	4691      	mov	r9, r2
10005fb4:	2b00      	cmp	r3, #0
10005fb6:	d044      	beq.n	10006042 <stdio_out_chars_crlf+0x9a>
10005fb8:	2a00      	cmp	r2, #0
10005fba:	dd2a      	ble.n	10006012 <stdio_out_chars_crlf+0x6a>
10005fbc:	2400      	movs	r4, #0
10005fbe:	2501      	movs	r5, #1
10005fc0:	4620      	mov	r0, r4
10005fc2:	f8df 808c 	ldr.w	r8, [pc, #140]	; 10006050 <stdio_out_chars_crlf+0xa8>
10005fc6:	1e4e      	subs	r6, r1, #1
10005fc8:	b32c      	cbz	r4, 10006016 <stdio_out_chars_crlf+0x6e>
10005fca:	7833      	ldrb	r3, [r6, #0]
10005fcc:	f816 2f01 	ldrb.w	r2, [r6, #1]!
10005fd0:	f1a3 030d 	sub.w	r3, r3, #13
10005fd4:	fab3 f383 	clz	r3, r3
10005fd8:	2a0a      	cmp	r2, #10
10005fda:	ea4f 1353 	mov.w	r3, r3, lsr #5
10005fde:	d020      	beq.n	10006022 <stdio_out_chars_crlf+0x7a>
10005fe0:	462b      	mov	r3, r5
10005fe2:	4599      	cmp	r9, r3
10005fe4:	f104 0401 	add.w	r4, r4, #1
10005fe8:	f105 0501 	add.w	r5, r5, #1
10005fec:	dcec      	bgt.n	10005fc8 <stdio_out_chars_crlf+0x20>
10005fee:	4581      	cmp	r9, r0
10005ff0:	dd05      	ble.n	10005ffe <stdio_out_chars_crlf+0x56>
10005ff2:	eba9 0100 	sub.w	r1, r9, r0
10005ff6:	f8da 3000 	ldr.w	r3, [sl]
10005ffa:	4438      	add	r0, r7
10005ffc:	4798      	blx	r3
10005ffe:	444f      	add	r7, r9
10006000:	f817 3c01 	ldrb.w	r3, [r7, #-1]
10006004:	f1a3 030d 	sub.w	r3, r3, #13
10006008:	fab3 f383 	clz	r3, r3
1000600c:	095b      	lsrs	r3, r3, #5
1000600e:	f88a 3014 	strb.w	r3, [sl, #20]
10006012:	e8bd 87f0 	ldmia.w	sp!, {r4, r5, r6, r7, r8, r9, sl, pc}
10006016:	f816 2f01 	ldrb.w	r2, [r6, #1]!
1000601a:	f89a 3014 	ldrb.w	r3, [sl, #20]
1000601e:	2a0a      	cmp	r2, #10
10006020:	d1de      	bne.n	10005fe0 <stdio_out_chars_crlf+0x38>
10006022:	2b00      	cmp	r3, #0
10006024:	d1dc      	bne.n	10005fe0 <stdio_out_chars_crlf+0x38>
10006026:	42a0      	cmp	r0, r4
10006028:	da04      	bge.n	10006034 <stdio_out_chars_crlf+0x8c>
1000602a:	1a21      	subs	r1, r4, r0
1000602c:	f8da 3000 	ldr.w	r3, [sl]
10006030:	4438      	add	r0, r7
10006032:	4798      	blx	r3
10006034:	4640      	mov	r0, r8
10006036:	2102      	movs	r1, #2
10006038:	f8da 3000 	ldr.w	r3, [sl]
1000603c:	4798      	blx	r3
1000603e:	4628      	mov	r0, r5
10006040:	e7ce      	b.n	10005fe0 <stdio_out_chars_crlf+0x38>
10006042:	4638      	mov	r0, r7
10006044:	f8da 3000 	ldr.w	r3, [sl]
10006048:	4611      	mov	r1, r2
1000604a:	e8bd 47f0 	ldmia.w	sp!, {r4, r5, r6, r7, r8, r9, sl, lr}
1000604e:	4718      	bx	r3
10006050:	10009290 	.word	0x10009290

10006054 <stdio_buffered_printer>:
10006054:	680b      	ldr	r3, [r1, #0]
10006056:	e92d 41f0 	stmdb	sp!, {r4, r5, r6, r7, r8, lr}
1000605a:	2b80      	cmp	r3, #128	; 0x80
1000605c:	460d      	mov	r5, r1
1000605e:	4606      	mov	r6, r0
10006060:	d005      	beq.n	1000606e <stdio_buffered_printer+0x1a>
10006062:	1c5a      	adds	r2, r3, #1
10006064:	442b      	add	r3, r5
10006066:	602a      	str	r2, [r5, #0]
10006068:	711e      	strb	r6, [r3, #4]
1000606a:	e8bd 81f0 	ldmia.w	sp!, {r4, r5, r6, r7, r8, pc}
1000606e:	4b0f      	ldr	r3, [pc, #60]	; (100060ac <stdio_buffered_printer+0x58>)
10006070:	681c      	ldr	r4, [r3, #0]
10006072:	b1a4      	cbz	r4, 1000609e <stdio_buffered_printer+0x4a>
10006074:	4f0e      	ldr	r7, [pc, #56]	; (100060b0 <stdio_buffered_printer+0x5c>)
10006076:	f101 0804 	add.w	r8, r1, #4
1000607a:	e001      	b.n	10006080 <stdio_buffered_printer+0x2c>
1000607c:	6924      	ldr	r4, [r4, #16]
1000607e:	b174      	cbz	r4, 1000609e <stdio_buffered_printer+0x4a>
10006080:	6823      	ldr	r3, [r4, #0]
10006082:	2b00      	cmp	r3, #0
10006084:	d0fa      	beq.n	1000607c <stdio_buffered_printer+0x28>
10006086:	683b      	ldr	r3, [r7, #0]
10006088:	b10b      	cbz	r3, 1000608e <stdio_buffered_printer+0x3a>
1000608a:	42a3      	cmp	r3, r4
1000608c:	d1f6      	bne.n	1000607c <stdio_buffered_printer+0x28>
1000608e:	4620      	mov	r0, r4
10006090:	4641      	mov	r1, r8
10006092:	682a      	ldr	r2, [r5, #0]
10006094:	f7ff ff88 	bl	10005fa8 <stdio_out_chars_crlf>
10006098:	6924      	ldr	r4, [r4, #16]
1000609a:	2c00      	cmp	r4, #0
1000609c:	d1f0      	bne.n	10006080 <stdio_buffered_printer+0x2c>
1000609e:	2300      	movs	r3, #0
100060a0:	2201      	movs	r2, #1
100060a2:	442b      	add	r3, r5
100060a4:	602a      	str	r2, [r5, #0]
100060a6:	711e      	strb	r6, [r3, #4]
100060a8:	e8bd 81f0 	ldmia.w	sp!, {r4, r5, r6, r7, r8, pc}
100060ac:	20002bc8 	.word	0x20002bc8
100060b0:	20002bd0 	.word	0x20002bd0

100060b4 <stdio_put_string>:
100060b4:	e92d 47f0 	stmdb	sp!, {r4, r5, r6, r7, r8, r9, sl, lr}
100060b8:	b082      	sub	sp, #8
100060ba:	460d      	mov	r5, r1
100060bc:	4692      	mov	sl, r2
100060be:	4699      	mov	r9, r3
100060c0:	4607      	mov	r7, r0
100060c2:	f7fd fe3b 	bl	10003d3c <time_us_64>
100060c6:	4a2f      	ldr	r2, [pc, #188]	; (10006184 <stdio_put_string+0xd0>)
100060c8:	1882      	adds	r2, r0, r2
100060ca:	f141 0300 	adc.w	r3, r1, #0
100060ce:	2b00      	cmp	r3, #0
100060d0:	bfbc      	itt	lt
100060d2:	f04f 32ff 	movlt.w	r2, #4294967295
100060d6:	f06f 4300 	mvnlt.w	r3, #2147483648	; 0x80000000
100060da:	482b      	ldr	r0, [pc, #172]	; (10006188 <stdio_put_string+0xd4>)
100060dc:	f002 ff64 	bl	10008fa8 <__mutex_try_enter_block_until_veneer>
100060e0:	1c6b      	adds	r3, r5, #1
100060e2:	4680      	mov	r8, r0
100060e4:	d103      	bne.n	100060ee <stdio_put_string+0x3a>
100060e6:	4638      	mov	r0, r7
100060e8:	f002 fef4 	bl	10008ed4 <strlen>
100060ec:	4605      	mov	r5, r0
100060ee:	4b27      	ldr	r3, [pc, #156]	; (1000618c <stdio_put_string+0xd8>)
100060f0:	4e27      	ldr	r6, [pc, #156]	; (10006190 <stdio_put_string+0xdc>)
100060f2:	681c      	ldr	r4, [r3, #0]
100060f4:	4b27      	ldr	r3, [pc, #156]	; (10006194 <stdio_put_string+0xe0>)
100060f6:	f1b9 0f00 	cmp.w	r9, #0
100060fa:	bf08      	it	eq
100060fc:	461e      	moveq	r6, r3
100060fe:	b1b4      	cbz	r4, 1000612e <stdio_put_string+0x7a>
10006100:	f1ba 0f00 	cmp.w	sl, #0
10006104:	d11a      	bne.n	1000613c <stdio_put_string+0x88>
10006106:	f8df 9090 	ldr.w	r9, [pc, #144]	; 10006198 <stdio_put_string+0xe4>
1000610a:	e001      	b.n	10006110 <stdio_put_string+0x5c>
1000610c:	6924      	ldr	r4, [r4, #16]
1000610e:	b174      	cbz	r4, 1000612e <stdio_put_string+0x7a>
10006110:	6823      	ldr	r3, [r4, #0]
10006112:	2b00      	cmp	r3, #0
10006114:	d0fa      	beq.n	1000610c <stdio_put_string+0x58>
10006116:	f8d9 3000 	ldr.w	r3, [r9]
1000611a:	b10b      	cbz	r3, 10006120 <stdio_put_string+0x6c>
1000611c:	42a3      	cmp	r3, r4
1000611e:	d1f5      	bne.n	1000610c <stdio_put_string+0x58>
10006120:	4620      	mov	r0, r4
10006122:	462a      	mov	r2, r5
10006124:	4639      	mov	r1, r7
10006126:	47b0      	blx	r6
10006128:	6924      	ldr	r4, [r4, #16]
1000612a:	2c00      	cmp	r4, #0
1000612c:	d1f0      	bne.n	10006110 <stdio_put_string+0x5c>
1000612e:	f1b8 0f00 	cmp.w	r8, #0
10006132:	d11f      	bne.n	10006174 <stdio_put_string+0xc0>
10006134:	4628      	mov	r0, r5
10006136:	b002      	add	sp, #8
10006138:	e8bd 87f0 	ldmia.w	sp!, {r4, r5, r6, r7, r8, r9, sl, pc}
1000613c:	f04f 0a0a 	mov.w	sl, #10
10006140:	f8df 9054 	ldr.w	r9, [pc, #84]	; 10006198 <stdio_put_string+0xe4>
10006144:	e002      	b.n	1000614c <stdio_put_string+0x98>
10006146:	6924      	ldr	r4, [r4, #16]
10006148:	2c00      	cmp	r4, #0
1000614a:	d0f0      	beq.n	1000612e <stdio_put_string+0x7a>
1000614c:	6823      	ldr	r3, [r4, #0]
1000614e:	2b00      	cmp	r3, #0
10006150:	d0f9      	beq.n	10006146 <stdio_put_string+0x92>
10006152:	f8d9 3000 	ldr.w	r3, [r9]
10006156:	b10b      	cbz	r3, 1000615c <stdio_put_string+0xa8>
10006158:	42a3      	cmp	r3, r4
1000615a:	d1f4      	bne.n	10006146 <stdio_put_string+0x92>
1000615c:	4620      	mov	r0, r4
1000615e:	462a      	mov	r2, r5
10006160:	4639      	mov	r1, r7
10006162:	47b0      	blx	r6
10006164:	4620      	mov	r0, r4
10006166:	2201      	movs	r2, #1
10006168:	f10d 0107 	add.w	r1, sp, #7
1000616c:	f88d a007 	strb.w	sl, [sp, #7]
10006170:	47b0      	blx	r6
10006172:	e7e8      	b.n	10006146 <stdio_put_string+0x92>
10006174:	4804      	ldr	r0, [pc, #16]	; (10006188 <stdio_put_string+0xd4>)
10006176:	f002 fee7 	bl	10008f48 <__mutex_exit_veneer>
1000617a:	4628      	mov	r0, r5
1000617c:	b002      	add	sp, #8
1000617e:	e8bd 87f0 	ldmia.w	sp!, {r4, r5, r6, r7, r8, r9, sl, pc}
10006182:	bf00      	nop
10006184:	000f4240 	.word	0x000f4240
10006188:	20001668 	.word	0x20001668
1000618c:	20002bc8 	.word	0x20002bc8
10006190:	10005fa9 	.word	0x10005fa9
10006194:	10005fa1 	.word	0x10005fa1
10006198:	20002bd0 	.word	0x20002bd0

1000619c <stdio_set_driver_enabled>:
1000619c:	4a08      	ldr	r2, [pc, #32]	; (100061c0 <stdio_set_driver_enabled+0x24>)
1000619e:	6813      	ldr	r3, [r2, #0]
100061a0:	b923      	cbnz	r3, 100061ac <stdio_set_driver_enabled+0x10>
100061a2:	e00a      	b.n	100061ba <stdio_set_driver_enabled+0x1e>
100061a4:	f103 0210 	add.w	r2, r3, #16
100061a8:	691b      	ldr	r3, [r3, #16]
100061aa:	b133      	cbz	r3, 100061ba <stdio_set_driver_enabled+0x1e>
100061ac:	4298      	cmp	r0, r3
100061ae:	d1f9      	bne.n	100061a4 <stdio_set_driver_enabled+0x8>
100061b0:	b929      	cbnz	r1, 100061be <stdio_set_driver_enabled+0x22>
100061b2:	6903      	ldr	r3, [r0, #16]
100061b4:	6013      	str	r3, [r2, #0]
100061b6:	6101      	str	r1, [r0, #16]
100061b8:	4770      	bx	lr
100061ba:	b101      	cbz	r1, 100061be <stdio_set_driver_enabled+0x22>
100061bc:	6010      	str	r0, [r2, #0]
100061be:	4770      	bx	lr
100061c0:	20002bc8 	.word	0x20002bc8

100061c4 <stdio_init_all>:
100061c4:	f000 baca 	b.w	1000675c <stdio_usb_init>

100061c8 <__wrap_putchar>:
100061c8:	b5f0      	push	{r4, r5, r6, r7, lr}
100061ca:	b083      	sub	sp, #12
100061cc:	4606      	mov	r6, r0
100061ce:	f88d 0007 	strb.w	r0, [sp, #7]
100061d2:	f7fd fdb3 	bl	10003d3c <time_us_64>
100061d6:	4a17      	ldr	r2, [pc, #92]	; (10006234 <__wrap_putchar+0x6c>)
100061d8:	1882      	adds	r2, r0, r2
100061da:	f141 0300 	adc.w	r3, r1, #0
100061de:	2b00      	cmp	r3, #0
100061e0:	bfbc      	itt	lt
100061e2:	f06f 4300 	mvnlt.w	r3, #2147483648	; 0x80000000
100061e6:	f04f 32ff 	movlt.w	r2, #4294967295
100061ea:	4813      	ldr	r0, [pc, #76]	; (10006238 <__wrap_putchar+0x70>)
100061ec:	f002 fedc 	bl	10008fa8 <__mutex_try_enter_block_until_veneer>
100061f0:	4b12      	ldr	r3, [pc, #72]	; (1000623c <__wrap_putchar+0x74>)
100061f2:	4607      	mov	r7, r0
100061f4:	681c      	ldr	r4, [r3, #0]
100061f6:	b19c      	cbz	r4, 10006220 <__wrap_putchar+0x58>
100061f8:	4d11      	ldr	r5, [pc, #68]	; (10006240 <__wrap_putchar+0x78>)
100061fa:	e001      	b.n	10006200 <__wrap_putchar+0x38>
100061fc:	6924      	ldr	r4, [r4, #16]
100061fe:	b17c      	cbz	r4, 10006220 <__wrap_putchar+0x58>
10006200:	6823      	ldr	r3, [r4, #0]
10006202:	2b00      	cmp	r3, #0
10006204:	d0fa      	beq.n	100061fc <__wrap_putchar+0x34>
10006206:	682b      	ldr	r3, [r5, #0]
10006208:	b10b      	cbz	r3, 1000620e <__wrap_putchar+0x46>
1000620a:	42a3      	cmp	r3, r4
1000620c:	d1f6      	bne.n	100061fc <__wrap_putchar+0x34>
1000620e:	4620      	mov	r0, r4
10006210:	2201      	movs	r2, #1
10006212:	f10d 0107 	add.w	r1, sp, #7
10006216:	f7ff fec7 	bl	10005fa8 <stdio_out_chars_crlf>
1000621a:	6924      	ldr	r4, [r4, #16]
1000621c:	2c00      	cmp	r4, #0
1000621e:	d1ef      	bne.n	10006200 <__wrap_putchar+0x38>
10006220:	b917      	cbnz	r7, 10006228 <__wrap_putchar+0x60>
10006222:	4630      	mov	r0, r6
10006224:	b003      	add	sp, #12
10006226:	bdf0      	pop	{r4, r5, r6, r7, pc}
10006228:	4803      	ldr	r0, [pc, #12]	; (10006238 <__wrap_putchar+0x70>)
1000622a:	f002 fe8d 	bl	10008f48 <__mutex_exit_veneer>
1000622e:	4630      	mov	r0, r6
10006230:	b003      	add	sp, #12
10006232:	bdf0      	pop	{r4, r5, r6, r7, pc}
10006234:	000f4240 	.word	0x000f4240
10006238:	20001668 	.word	0x20001668
1000623c:	20002bc8 	.word	0x20002bc8
10006240:	20002bd0 	.word	0x20002bd0

10006244 <__wrap_puts>:
10006244:	b538      	push	{r3, r4, r5, lr}
10006246:	4604      	mov	r4, r0
10006248:	f002 fe44 	bl	10008ed4 <strlen>
1000624c:	2301      	movs	r3, #1
1000624e:	4605      	mov	r5, r0
10006250:	461a      	mov	r2, r3
10006252:	4620      	mov	r0, r4
10006254:	4629      	mov	r1, r5
10006256:	f7ff ff2d 	bl	100060b4 <stdio_put_string>
1000625a:	4b08      	ldr	r3, [pc, #32]	; (1000627c <__wrap_puts+0x38>)
1000625c:	681c      	ldr	r4, [r3, #0]
1000625e:	b12c      	cbz	r4, 1000626c <__wrap_puts+0x28>
10006260:	6863      	ldr	r3, [r4, #4]
10006262:	b12b      	cbz	r3, 10006270 <__wrap_puts+0x2c>
10006264:	4798      	blx	r3
10006266:	6924      	ldr	r4, [r4, #16]
10006268:	2c00      	cmp	r4, #0
1000626a:	d1f9      	bne.n	10006260 <__wrap_puts+0x1c>
1000626c:	4628      	mov	r0, r5
1000626e:	bd38      	pop	{r3, r4, r5, pc}
10006270:	6924      	ldr	r4, [r4, #16]
10006272:	2c00      	cmp	r4, #0
10006274:	d1f4      	bne.n	10006260 <__wrap_puts+0x1c>
10006276:	4628      	mov	r0, r5
10006278:	bd38      	pop	{r3, r4, r5, pc}
1000627a:	bf00      	nop
1000627c:	20002bc8 	.word	0x20002bc8

10006280 <__wrap_vprintf>:
10006280:	e92d 41f0 	stmdb	sp!, {r4, r5, r6, r7, r8, lr}
10006284:	b0a2      	sub	sp, #136	; 0x88
10006286:	4604      	mov	r4, r0
10006288:	460d      	mov	r5, r1
1000628a:	f7fd fd57 	bl	10003d3c <time_us_64>
1000628e:	4a27      	ldr	r2, [pc, #156]	; (1000632c <__wrap_vprintf+0xac>)
10006290:	2600      	movs	r6, #0
10006292:	1882      	adds	r2, r0, r2
10006294:	f141 0300 	adc.w	r3, r1, #0
10006298:	2b00      	cmp	r3, #0
1000629a:	bfbc      	itt	lt
1000629c:	f04f 32ff 	movlt.w	r2, #4294967295
100062a0:	f06f 4300 	mvnlt.w	r3, #2147483648	; 0x80000000
100062a4:	4822      	ldr	r0, [pc, #136]	; (10006330 <__wrap_vprintf+0xb0>)
100062a6:	f002 fe7f 	bl	10008fa8 <__mutex_try_enter_block_until_veneer>
100062aa:	462b      	mov	r3, r5
100062ac:	4607      	mov	r7, r0
100062ae:	4622      	mov	r2, r4
100062b0:	4820      	ldr	r0, [pc, #128]	; (10006334 <__wrap_vprintf+0xb4>)
100062b2:	a901      	add	r1, sp, #4
100062b4:	9601      	str	r6, [sp, #4]
100062b6:	f7ff fe2f 	bl	10005f18 <vfctprintf>
100062ba:	9b01      	ldr	r3, [sp, #4]
100062bc:	4606      	mov	r6, r0
100062be:	b97b      	cbnz	r3, 100062e0 <__wrap_vprintf+0x60>
100062c0:	4b1d      	ldr	r3, [pc, #116]	; (10006338 <__wrap_vprintf+0xb8>)
100062c2:	681c      	ldr	r4, [r3, #0]
100062c4:	b12c      	cbz	r4, 100062d2 <__wrap_vprintf+0x52>
100062c6:	6863      	ldr	r3, [r4, #4]
100062c8:	b143      	cbz	r3, 100062dc <__wrap_vprintf+0x5c>
100062ca:	4798      	blx	r3
100062cc:	6924      	ldr	r4, [r4, #16]
100062ce:	2c00      	cmp	r4, #0
100062d0:	d1f9      	bne.n	100062c6 <__wrap_vprintf+0x46>
100062d2:	bb0f      	cbnz	r7, 10006318 <__wrap_vprintf+0x98>
100062d4:	4630      	mov	r0, r6
100062d6:	b022      	add	sp, #136	; 0x88
100062d8:	e8bd 81f0 	ldmia.w	sp!, {r4, r5, r6, r7, r8, pc}
100062dc:	6924      	ldr	r4, [r4, #16]
100062de:	e7f1      	b.n	100062c4 <__wrap_vprintf+0x44>
100062e0:	f8df 8054 	ldr.w	r8, [pc, #84]	; 10006338 <__wrap_vprintf+0xb8>
100062e4:	f8d8 5000 	ldr.w	r5, [r8]
100062e8:	b1ed      	cbz	r5, 10006326 <__wrap_vprintf+0xa6>
100062ea:	4c14      	ldr	r4, [pc, #80]	; (1000633c <__wrap_vprintf+0xbc>)
100062ec:	e001      	b.n	100062f2 <__wrap_vprintf+0x72>
100062ee:	692d      	ldr	r5, [r5, #16]
100062f0:	b175      	cbz	r5, 10006310 <__wrap_vprintf+0x90>
100062f2:	682b      	ldr	r3, [r5, #0]
100062f4:	2b00      	cmp	r3, #0
100062f6:	d0fa      	beq.n	100062ee <__wrap_vprintf+0x6e>
100062f8:	6823      	ldr	r3, [r4, #0]
100062fa:	b10b      	cbz	r3, 10006300 <__wrap_vprintf+0x80>
100062fc:	429d      	cmp	r5, r3
100062fe:	d1f6      	bne.n	100062ee <__wrap_vprintf+0x6e>
10006300:	4628      	mov	r0, r5
10006302:	9a01      	ldr	r2, [sp, #4]
10006304:	a902      	add	r1, sp, #8
10006306:	f7ff fe4f 	bl	10005fa8 <stdio_out_chars_crlf>
1000630a:	692d      	ldr	r5, [r5, #16]
1000630c:	2d00      	cmp	r5, #0
1000630e:	d1f0      	bne.n	100062f2 <__wrap_vprintf+0x72>
10006310:	f8d8 4000 	ldr.w	r4, [r8]
10006314:	9501      	str	r5, [sp, #4]
10006316:	e7d5      	b.n	100062c4 <__wrap_vprintf+0x44>
10006318:	4805      	ldr	r0, [pc, #20]	; (10006330 <__wrap_vprintf+0xb0>)
1000631a:	f002 fe15 	bl	10008f48 <__mutex_exit_veneer>
1000631e:	4630      	mov	r0, r6
10006320:	b022      	add	sp, #136	; 0x88
10006322:	e8bd 81f0 	ldmia.w	sp!, {r4, r5, r6, r7, r8, pc}
10006326:	9501      	str	r5, [sp, #4]
10006328:	e7d3      	b.n	100062d2 <__wrap_vprintf+0x52>
1000632a:	bf00      	nop
1000632c:	000f4240 	.word	0x000f4240
10006330:	20001668 	.word	0x20001668
10006334:	10006055 	.word	0x10006055
10006338:	20002bc8 	.word	0x20002bc8
1000633c:	20002bd0 	.word	0x20002bd0

10006340 <__wrap_printf>:
10006340:	b40f      	push	{r0, r1, r2, r3}
10006342:	b500      	push	{lr}
10006344:	b083      	sub	sp, #12
10006346:	a904      	add	r1, sp, #16
10006348:	f851 0b04 	ldr.w	r0, [r1], #4
1000634c:	9101      	str	r1, [sp, #4]
1000634e:	f7ff ff97 	bl	10006280 <__wrap_vprintf>
10006352:	b003      	add	sp, #12
10006354:	f85d eb04 	ldr.w	lr, [sp], #4
10006358:	b004      	add	sp, #16
1000635a:	4770      	bx	lr

1000635c <resetd_init>:
1000635c:	4770      	bx	lr
1000635e:	bf00      	nop

10006360 <resetd_reset>:
10006360:	2200      	movs	r2, #0
10006362:	4b01      	ldr	r3, [pc, #4]	; (10006368 <resetd_reset+0x8>)
10006364:	701a      	strb	r2, [r3, #0]
10006366:	4770      	bx	lr
10006368:	20003034 	.word	0x20003034

1000636c <resetd_open>:
1000636c:	794b      	ldrb	r3, [r1, #5]
1000636e:	2bff      	cmp	r3, #255	; 0xff
10006370:	d10b      	bne.n	1000638a <resetd_open+0x1e>
10006372:	7988      	ldrb	r0, [r1, #6]
10006374:	b948      	cbnz	r0, 1000638a <resetd_open+0x1e>
10006376:	79cb      	ldrb	r3, [r1, #7]
10006378:	2b01      	cmp	r3, #1
1000637a:	d107      	bne.n	1000638c <resetd_open+0x20>
1000637c:	2a08      	cmp	r2, #8
1000637e:	d905      	bls.n	1000638c <resetd_open+0x20>
10006380:	4b03      	ldr	r3, [pc, #12]	; (10006390 <resetd_open+0x24>)
10006382:	788a      	ldrb	r2, [r1, #2]
10006384:	2009      	movs	r0, #9
10006386:	701a      	strb	r2, [r3, #0]
10006388:	4770      	bx	lr
1000638a:	2000      	movs	r0, #0
1000638c:	4770      	bx	lr
1000638e:	bf00      	nop
10006390:	20003034 	.word	0x20003034

10006394 <resetd_xfer_cb>:
10006394:	2001      	movs	r0, #1
10006396:	4770      	bx	lr

10006398 <resetd_control_xfer_cb>:
10006398:	2901      	cmp	r1, #1
1000639a:	d108      	bne.n	100063ae <resetd_control_xfer_cb+0x16>
1000639c:	b510      	push	{r4, lr}
1000639e:	4b12      	ldr	r3, [pc, #72]	; (100063e8 <resetd_control_xfer_cb+0x50>)
100063a0:	460c      	mov	r4, r1
100063a2:	781b      	ldrb	r3, [r3, #0]
100063a4:	8891      	ldrh	r1, [r2, #4]
100063a6:	4299      	cmp	r1, r3
100063a8:	d003      	beq.n	100063b2 <resetd_control_xfer_cb+0x1a>
100063aa:	2000      	movs	r0, #0
100063ac:	bd10      	pop	{r4, pc}
100063ae:	2001      	movs	r0, #1
100063b0:	4770      	bx	lr
100063b2:	7853      	ldrb	r3, [r2, #1]
100063b4:	2b01      	cmp	r3, #1
100063b6:	d008      	beq.n	100063ca <resetd_control_xfer_cb+0x32>
100063b8:	2b02      	cmp	r3, #2
100063ba:	d1f6      	bne.n	100063aa <resetd_control_xfer_cb+0x12>
100063bc:	2100      	movs	r1, #0
100063be:	2264      	movs	r2, #100	; 0x64
100063c0:	4608      	mov	r0, r1
100063c2:	f7fd ff47 	bl	10004254 <watchdog_reboot>
100063c6:	4620      	mov	r0, r4
100063c8:	bd10      	pop	{r4, pc}
100063ca:	8851      	ldrh	r1, [r2, #2]
100063cc:	05cb      	lsls	r3, r1, #23
100063ce:	bf4b      	itete	mi
100063d0:	0a4a      	lsrmi	r2, r1, #9
100063d2:	0a4a      	lsrpl	r2, r1, #9
100063d4:	4610      	movmi	r0, r2
100063d6:	f04f 30ff 	movpl.w	r0, #4294967295
100063da:	f002 0201 	and.w	r2, r2, #1
100063de:	f001 017f 	and.w	r1, r1, #127	; 0x7f
100063e2:	f7fd ffb9 	bl	10004358 <rom_reset_usb_boot_extra>
100063e6:	bf00      	nop
100063e8:	20003034 	.word	0x20003034

100063ec <tud_descriptor_bos_cb>:
100063ec:	4800      	ldr	r0, [pc, #0]	; (100063f0 <tud_descriptor_bos_cb+0x4>)
100063ee:	4770      	bx	lr
100063f0:	100092b4 	.word	0x100092b4

100063f4 <tud_vendor_control_xfer_cb>:
100063f4:	2901      	cmp	r1, #1
100063f6:	d107      	bne.n	10006408 <tud_vendor_control_xfer_cb+0x14>
100063f8:	7853      	ldrb	r3, [r2, #1]
100063fa:	2b01      	cmp	r3, #1
100063fc:	d102      	bne.n	10006404 <tud_vendor_control_xfer_cb+0x10>
100063fe:	8893      	ldrh	r3, [r2, #4]
10006400:	2b07      	cmp	r3, #7
10006402:	d003      	beq.n	1000640c <tud_vendor_control_xfer_cb+0x18>
10006404:	2000      	movs	r0, #0
10006406:	4770      	bx	lr
10006408:	2001      	movs	r0, #1
1000640a:	4770      	bx	lr
1000640c:	4611      	mov	r1, r2
1000640e:	23a6      	movs	r3, #166	; 0xa6
10006410:	4a01      	ldr	r2, [pc, #4]	; (10006418 <tud_vendor_control_xfer_cb+0x24>)
10006412:	f001 ba57 	b.w	100078c4 <tud_control_xfer>
10006416:	bf00      	nop
10006418:	100092d8 	.word	0x100092d8

1000641c <usbd_app_driver_get_cb>:
1000641c:	4603      	mov	r3, r0
1000641e:	2201      	movs	r2, #1
10006420:	4801      	ldr	r0, [pc, #4]	; (10006428 <usbd_app_driver_get_cb+0xc>)
10006422:	701a      	strb	r2, [r3, #0]
10006424:	4770      	bx	lr
10006426:	bf00      	nop
10006428:	10009294 	.word	0x10009294

1000642c <tud_cdc_line_coding_cb>:
1000642c:	b508      	push	{r3, lr}
1000642e:	680b      	ldr	r3, [r1, #0]
10006430:	f5b3 6f96 	cmp.w	r3, #1200	; 0x4b0
10006434:	d000      	beq.n	10006438 <tud_cdc_line_coding_cb+0xc>
10006436:	bd08      	pop	{r3, pc}
10006438:	2200      	movs	r2, #0
1000643a:	f04f 30ff 	mov.w	r0, #4294967295
1000643e:	4611      	mov	r1, r2
10006440:	f7fd ff8a 	bl	10004358 <rom_reset_usb_boot_extra>

10006444 <stdio_usb_set_chars_available_callback>:
10006444:	4a02      	ldr	r2, [pc, #8]	; (10006450 <stdio_usb_set_chars_available_callback+0xc>)
10006446:	4b03      	ldr	r3, [pc, #12]	; (10006454 <stdio_usb_set_chars_available_callback+0x10>)
10006448:	6010      	str	r0, [r2, #0]
1000644a:	6019      	str	r1, [r3, #0]
1000644c:	4770      	bx	lr
1000644e:	bf00      	nop
10006450:	20002b68 	.word	0x20002b68
10006454:	20002b6c 	.word	0x20002b6c

10006458 <timer_task>:
10006458:	4b18      	ldr	r3, [pc, #96]	; (100064bc <timer_task+0x64>)
1000645a:	b570      	push	{r4, r5, r6, lr}
1000645c:	681a      	ldr	r2, [r3, #0]
1000645e:	2a00      	cmp	r2, #0
10006460:	d028      	beq.n	100064b4 <timer_task+0x5c>
10006462:	f3ef 8110 	mrs	r1, PRIMASK
10006466:	b672      	cpsid	i
10006468:	e8d2 4fcf 	ldaexb	r4, [r2]
1000646c:	2001      	movs	r0, #1
1000646e:	2c00      	cmp	r4, #0
10006470:	d1fa      	bne.n	10006468 <timer_task+0x10>
10006472:	e8c2 0f44 	strexb	r4, r0, [r2]
10006476:	2c00      	cmp	r4, #0
10006478:	d1f6      	bne.n	10006468 <timer_task+0x10>
1000647a:	f3bf 8f5f 	dmb	sy
1000647e:	2200      	movs	r2, #0
10006480:	4c0f      	ldr	r4, [pc, #60]	; (100064c0 <timer_task+0x68>)
10006482:	6818      	ldr	r0, [r3, #0]
10006484:	6059      	str	r1, [r3, #4]
10006486:	7022      	strb	r2, [r4, #0]
10006488:	e8c0 2f8f 	stlb	r2, [r0]
1000648c:	f381 8810 	msr	PRIMASK, r1
10006490:	2400      	movs	r4, #0
10006492:	2500      	movs	r5, #0
10006494:	4e0b      	ldr	r6, [pc, #44]	; (100064c4 <timer_task+0x6c>)
10006496:	7830      	ldrb	r0, [r6, #0]
10006498:	f7fc fe0c 	bl	100030b4 <irq_is_enabled>
1000649c:	b920      	cbnz	r0, 100064a8 <timer_task+0x50>
1000649e:	2400      	movs	r4, #0
100064a0:	2500      	movs	r5, #0
100064a2:	4620      	mov	r0, r4
100064a4:	4629      	mov	r1, r5
100064a6:	bd70      	pop	{r4, r5, r6, pc}
100064a8:	7830      	ldrb	r0, [r6, #0]
100064aa:	f7fc fe13 	bl	100030d4 <irq_set_pending>
100064ae:	4620      	mov	r0, r4
100064b0:	4629      	mov	r1, r5
100064b2:	bd70      	pop	{r4, r5, r6, pc}
100064b4:	f44f 747a 	mov.w	r4, #1000	; 0x3e8
100064b8:	2500      	movs	r5, #0
100064ba:	e7eb      	b.n	10006494 <timer_task+0x3c>
100064bc:	20002fe0 	.word	0x20002fe0
100064c0:	20003036 	.word	0x20003036
100064c4:	20003035 	.word	0x20003035

100064c8 <usb_irq>:
100064c8:	4b01      	ldr	r3, [pc, #4]	; (100064d0 <usb_irq+0x8>)
100064ca:	7818      	ldrb	r0, [r3, #0]
100064cc:	f7fc be02 	b.w	100030d4 <irq_set_pending>
100064d0:	20003035 	.word	0x20003035

100064d4 <stdio_usb_in_chars>:
100064d4:	b538      	push	{r3, r4, r5, lr}
100064d6:	4604      	mov	r4, r0
100064d8:	2000      	movs	r0, #0
100064da:	460d      	mov	r5, r1
100064dc:	f001 fb3a 	bl	10007b54 <tud_cdc_n_connected>
100064e0:	b390      	cbz	r0, 10006548 <stdio_usb_in_chars+0x74>
100064e2:	2000      	movs	r0, #0
100064e4:	f001 fb4c 	bl	10007b80 <tud_cdc_n_available>
100064e8:	b370      	cbz	r0, 10006548 <stdio_usb_in_chars+0x74>
100064ea:	f7fd fc27 	bl	10003d3c <time_us_64>
100064ee:	4a18      	ldr	r2, [pc, #96]	; (10006550 <stdio_usb_in_chars+0x7c>)
100064f0:	1882      	adds	r2, r0, r2
100064f2:	f141 0300 	adc.w	r3, r1, #0
100064f6:	2b00      	cmp	r3, #0
100064f8:	bfbc      	itt	lt
100064fa:	f04f 32ff 	movlt.w	r2, #4294967295
100064fe:	f06f 4300 	mvnlt.w	r3, #2147483648	; 0x80000000
10006502:	4814      	ldr	r0, [pc, #80]	; (10006554 <stdio_usb_in_chars+0x80>)
10006504:	f002 fd50 	bl	10008fa8 <__mutex_try_enter_block_until_veneer>
10006508:	b1f0      	cbz	r0, 10006548 <stdio_usb_in_chars+0x74>
1000650a:	2000      	movs	r0, #0
1000650c:	f001 fb22 	bl	10007b54 <tud_cdc_n_connected>
10006510:	b958      	cbnz	r0, 1000652a <stdio_usb_in_chars+0x56>
10006512:	2100      	movs	r1, #0
10006514:	f04f 30ff 	mov.w	r0, #4294967295
10006518:	f000 fd1c 	bl	10006f54 <tud_task_ext>
1000651c:	f06f 0402 	mvn.w	r4, #2
10006520:	480c      	ldr	r0, [pc, #48]	; (10006554 <stdio_usb_in_chars+0x80>)
10006522:	f002 fd11 	bl	10008f48 <__mutex_exit_veneer>
10006526:	4620      	mov	r0, r4
10006528:	bd38      	pop	{r3, r4, r5, pc}
1000652a:	2000      	movs	r0, #0
1000652c:	f001 fb28 	bl	10007b80 <tud_cdc_n_available>
10006530:	2800      	cmp	r0, #0
10006532:	d0ee      	beq.n	10006512 <stdio_usb_in_chars+0x3e>
10006534:	4621      	mov	r1, r4
10006536:	462a      	mov	r2, r5
10006538:	2000      	movs	r0, #0
1000653a:	f001 fb2d 	bl	10007b98 <tud_cdc_n_read>
1000653e:	1e04      	subs	r4, r0, #0
10006540:	bf08      	it	eq
10006542:	f06f 0402 	mvneq.w	r4, #2
10006546:	e7eb      	b.n	10006520 <stdio_usb_in_chars+0x4c>
10006548:	f06f 0402 	mvn.w	r4, #2
1000654c:	e7eb      	b.n	10006526 <stdio_usb_in_chars+0x52>
1000654e:	bf00      	nop
10006550:	000f4240 	.word	0x000f4240
10006554:	20003014 	.word	0x20003014

10006558 <stdio_usb_out_flush>:
10006558:	b508      	push	{r3, lr}
1000655a:	f7fd fbef 	bl	10003d3c <time_us_64>
1000655e:	4a0f      	ldr	r2, [pc, #60]	; (1000659c <stdio_usb_out_flush+0x44>)
10006560:	1882      	adds	r2, r0, r2
10006562:	f141 0300 	adc.w	r3, r1, #0
10006566:	2b00      	cmp	r3, #0
10006568:	bfbc      	itt	lt
1000656a:	f04f 32ff 	movlt.w	r2, #4294967295
1000656e:	f06f 4300 	mvnlt.w	r3, #2147483648	; 0x80000000
10006572:	480b      	ldr	r0, [pc, #44]	; (100065a0 <stdio_usb_out_flush+0x48>)
10006574:	f002 fd18 	bl	10008fa8 <__mutex_try_enter_block_until_veneer>
10006578:	b170      	cbz	r0, 10006598 <stdio_usb_out_flush+0x40>
1000657a:	f04f 30ff 	mov.w	r0, #4294967295
1000657e:	2100      	movs	r1, #0
10006580:	f000 fce8 	bl	10006f54 <tud_task_ext>
10006584:	2000      	movs	r0, #0
10006586:	f001 fb4f 	bl	10007c28 <tud_cdc_n_write_flush>
1000658a:	2800      	cmp	r0, #0
1000658c:	d1f5      	bne.n	1000657a <stdio_usb_out_flush+0x22>
1000658e:	e8bd 4008 	ldmia.w	sp!, {r3, lr}
10006592:	4803      	ldr	r0, [pc, #12]	; (100065a0 <stdio_usb_out_flush+0x48>)
10006594:	f002 bcd8 	b.w	10008f48 <__mutex_exit_veneer>
10006598:	bd08      	pop	{r3, pc}
1000659a:	bf00      	nop
1000659c:	000f4240 	.word	0x000f4240
100065a0:	20003014 	.word	0x20003014

100065a4 <stdio_usb_out_chars>:
100065a4:	e92d 43f8 	stmdb	sp!, {r3, r4, r5, r6, r7, r8, r9, lr}
100065a8:	4607      	mov	r7, r0
100065aa:	460e      	mov	r6, r1
100065ac:	f7fd fbc6 	bl	10003d3c <time_us_64>
100065b0:	4a34      	ldr	r2, [pc, #208]	; (10006684 <stdio_usb_out_chars+0xe0>)
100065b2:	1882      	adds	r2, r0, r2
100065b4:	f141 0300 	adc.w	r3, r1, #0
100065b8:	2b00      	cmp	r3, #0
100065ba:	bfbc      	itt	lt
100065bc:	f04f 32ff 	movlt.w	r2, #4294967295
100065c0:	f06f 4300 	mvnlt.w	r3, #2147483648	; 0x80000000
100065c4:	4830      	ldr	r0, [pc, #192]	; (10006688 <stdio_usb_out_chars+0xe4>)
100065c6:	f002 fcef 	bl	10008fa8 <__mutex_try_enter_block_until_veneer>
100065ca:	b908      	cbnz	r0, 100065d0 <stdio_usb_out_chars+0x2c>
100065cc:	e8bd 83f8 	ldmia.w	sp!, {r3, r4, r5, r6, r7, r8, r9, pc}
100065d0:	2000      	movs	r0, #0
100065d2:	f001 fabf 	bl	10007b54 <tud_cdc_n_connected>
100065d6:	2800      	cmp	r0, #0
100065d8:	d049      	beq.n	1000666e <stdio_usb_out_chars+0xca>
100065da:	2e00      	cmp	r6, #0
100065dc:	dd42      	ble.n	10006664 <stdio_usb_out_chars+0xc0>
100065de:	2500      	movs	r5, #0
100065e0:	f8df 80a8 	ldr.w	r8, [pc, #168]	; 1000668c <stdio_usb_out_chars+0xe8>
100065e4:	f8df 90a8 	ldr.w	r9, [pc, #168]	; 10006690 <stdio_usb_out_chars+0xec>
100065e8:	e013      	b.n	10006612 <stdio_usb_out_chars+0x6e>
100065ea:	4622      	mov	r2, r4
100065ec:	2000      	movs	r0, #0
100065ee:	f001 fb5f 	bl	10007cb0 <tud_cdc_n_write>
100065f2:	2100      	movs	r1, #0
100065f4:	4604      	mov	r4, r0
100065f6:	f04f 30ff 	mov.w	r0, #4294967295
100065fa:	f000 fcab 	bl	10006f54 <tud_task_ext>
100065fe:	2000      	movs	r0, #0
10006600:	f001 fb12 	bl	10007c28 <tud_cdc_n_write_flush>
10006604:	f7fd fb9a 	bl	10003d3c <time_us_64>
10006608:	e9c8 0100 	strd	r0, r1, [r8]
1000660c:	4425      	add	r5, r4
1000660e:	42ae      	cmp	r6, r5
10006610:	dd28      	ble.n	10006664 <stdio_usb_out_chars+0xc0>
10006612:	2000      	movs	r0, #0
10006614:	f001 fb70 	bl	10007cf8 <tud_cdc_n_write_available>
10006618:	1b74      	subs	r4, r6, r5
1000661a:	4284      	cmp	r4, r0
1000661c:	bfa8      	it	ge
1000661e:	4604      	movge	r4, r0
10006620:	1979      	adds	r1, r7, r5
10006622:	2c00      	cmp	r4, #0
10006624:	d1e1      	bne.n	100065ea <stdio_usb_out_chars+0x46>
10006626:	4621      	mov	r1, r4
10006628:	f04f 30ff 	mov.w	r0, #4294967295
1000662c:	f000 fc92 	bl	10006f54 <tud_task_ext>
10006630:	4620      	mov	r0, r4
10006632:	f001 faf9 	bl	10007c28 <tud_cdc_n_write_flush>
10006636:	4620      	mov	r0, r4
10006638:	f001 fa8c 	bl	10007b54 <tud_cdc_n_connected>
1000663c:	b190      	cbz	r0, 10006664 <stdio_usb_out_chars+0xc0>
1000663e:	4620      	mov	r0, r4
10006640:	f001 fb5a 	bl	10007cf8 <tud_cdc_n_write_available>
10006644:	2800      	cmp	r0, #0
10006646:	d1e2      	bne.n	1000660e <stdio_usb_out_chars+0x6a>
10006648:	f7fd fb78 	bl	10003d3c <time_us_64>
1000664c:	f8d8 3000 	ldr.w	r3, [r8]
10006650:	f8d8 2004 	ldr.w	r2, [r8, #4]
10006654:	eb13 0309 	adds.w	r3, r3, r9
10006658:	f142 0200 	adc.w	r2, r2, #0
1000665c:	4283      	cmp	r3, r0
1000665e:	eb72 0301 	sbcs.w	r3, r2, r1
10006662:	d2d4      	bcs.n	1000660e <stdio_usb_out_chars+0x6a>
10006664:	4808      	ldr	r0, [pc, #32]	; (10006688 <stdio_usb_out_chars+0xe4>)
10006666:	e8bd 43f8 	ldmia.w	sp!, {r3, r4, r5, r6, r7, r8, r9, lr}
1000666a:	f002 bc6d 	b.w	10008f48 <__mutex_exit_veneer>
1000666e:	2000      	movs	r0, #0
10006670:	2100      	movs	r1, #0
10006672:	4b06      	ldr	r3, [pc, #24]	; (1000668c <stdio_usb_out_chars+0xe8>)
10006674:	e9c3 0100 	strd	r0, r1, [r3]
10006678:	e8bd 43f8 	ldmia.w	sp!, {r3, r4, r5, r6, r7, r8, r9, lr}
1000667c:	4802      	ldr	r0, [pc, #8]	; (10006688 <stdio_usb_out_chars+0xe4>)
1000667e:	f002 bc63 	b.w	10008f48 <__mutex_exit_veneer>
10006682:	bf00      	nop
10006684:	000f4240 	.word	0x000f4240
10006688:	20003014 	.word	0x20003014
1000668c:	200017f0 	.word	0x200017f0
10006690:	0007a120 	.word	0x0007a120

10006694 <low_priority_worker_irq>:
10006694:	b530      	push	{r4, r5, lr}
10006696:	2100      	movs	r1, #0
10006698:	b085      	sub	sp, #20
1000669a:	482a      	ldr	r0, [pc, #168]	; (10006744 <low_priority_worker_irq+0xb0>)
1000669c:	f002 fc64 	bl	10008f68 <__mutex_try_enter_veneer>
100066a0:	b9f0      	cbnz	r0, 100066e0 <low_priority_worker_irq+0x4c>
100066a2:	4b29      	ldr	r3, [pc, #164]	; (10006748 <low_priority_worker_irq+0xb4>)
100066a4:	681a      	ldr	r2, [r3, #0]
100066a6:	b1ca      	cbz	r2, 100066dc <low_priority_worker_irq+0x48>
100066a8:	f3ef 8110 	mrs	r1, PRIMASK
100066ac:	b672      	cpsid	i
100066ae:	e8d2 5fcf 	ldaexb	r5, [r2]
100066b2:	2401      	movs	r4, #1
100066b4:	2d00      	cmp	r5, #0
100066b6:	d1fa      	bne.n	100066ae <low_priority_worker_irq+0x1a>
100066b8:	e8c2 4f45 	strexb	r5, r4, [r2]
100066bc:	2d00      	cmp	r5, #0
100066be:	d1f6      	bne.n	100066ae <low_priority_worker_irq+0x1a>
100066c0:	f3bf 8f5f 	dmb	sy
100066c4:	4c21      	ldr	r4, [pc, #132]	; (1000674c <low_priority_worker_irq+0xb8>)
100066c6:	681d      	ldr	r5, [r3, #0]
100066c8:	7822      	ldrb	r2, [r4, #0]
100066ca:	6059      	str	r1, [r3, #4]
100066cc:	b2d3      	uxtb	r3, r2
100066ce:	2201      	movs	r2, #1
100066d0:	7022      	strb	r2, [r4, #0]
100066d2:	e8c5 0f8f 	stlb	r0, [r5]
100066d6:	f381 8810 	msr	PRIMASK, r1
100066da:	b1cb      	cbz	r3, 10006710 <low_priority_worker_irq+0x7c>
100066dc:	b005      	add	sp, #20
100066de:	bd30      	pop	{r4, r5, pc}
100066e0:	2100      	movs	r1, #0
100066e2:	f04f 30ff 	mov.w	r0, #4294967295
100066e6:	f000 fc35 	bl	10006f54 <tud_task_ext>
100066ea:	2000      	movs	r0, #0
100066ec:	f001 fa48 	bl	10007b80 <tud_cdc_n_available>
100066f0:	4604      	mov	r4, r0
100066f2:	4814      	ldr	r0, [pc, #80]	; (10006744 <low_priority_worker_irq+0xb0>)
100066f4:	f002 fc28 	bl	10008f48 <__mutex_exit_veneer>
100066f8:	2c00      	cmp	r4, #0
100066fa:	d0ef      	beq.n	100066dc <low_priority_worker_irq+0x48>
100066fc:	4b14      	ldr	r3, [pc, #80]	; (10006750 <low_priority_worker_irq+0xbc>)
100066fe:	681b      	ldr	r3, [r3, #0]
10006700:	2b00      	cmp	r3, #0
10006702:	d0eb      	beq.n	100066dc <low_priority_worker_irq+0x48>
10006704:	4a13      	ldr	r2, [pc, #76]	; (10006754 <low_priority_worker_irq+0xc0>)
10006706:	6810      	ldr	r0, [r2, #0]
10006708:	b005      	add	sp, #20
1000670a:	e8bd 4030 	ldmia.w	sp!, {r4, r5, lr}
1000670e:	4718      	bx	r3
10006710:	f7fd f906 	bl	10003920 <alarm_pool_get_default>
10006714:	4604      	mov	r4, r0
10006716:	f7fd fb11 	bl	10003d3c <time_us_64>
1000671a:	f510 727a 	adds.w	r2, r0, #1000	; 0x3e8
1000671e:	f141 0300 	adc.w	r3, r1, #0
10006722:	2501      	movs	r5, #1
10006724:	2100      	movs	r1, #0
10006726:	4620      	mov	r0, r4
10006728:	4c0b      	ldr	r4, [pc, #44]	; (10006758 <low_priority_worker_irq+0xc4>)
1000672a:	2b00      	cmp	r3, #0
1000672c:	bfbc      	itt	lt
1000672e:	f04f 32ff 	movlt.w	r2, #4294967295
10006732:	f06f 4300 	mvnlt.w	r3, #2147483648	; 0x80000000
10006736:	e9cd 1501 	strd	r1, r5, [sp, #4]
1000673a:	9400      	str	r4, [sp, #0]
1000673c:	f7fd f8f4 	bl	10003928 <alarm_pool_add_alarm_at>
10006740:	b005      	add	sp, #20
10006742:	bd30      	pop	{r4, r5, pc}
10006744:	20003014 	.word	0x20003014
10006748:	20002fe0 	.word	0x20002fe0
1000674c:	20003036 	.word	0x20003036
10006750:	20002b68 	.word	0x20002b68
10006754:	20002b6c 	.word	0x20002b6c
10006758:	10006459 	.word	0x10006459

1000675c <stdio_usb_init>:
1000675c:	f04f 4350 	mov.w	r3, #3489660928	; 0xd0000000
10006760:	b530      	push	{r4, r5, lr}
10006762:	b085      	sub	sp, #20
10006764:	681c      	ldr	r4, [r3, #0]
10006766:	f7fd f8db 	bl	10003920 <alarm_pool_get_default>
1000676a:	f7fd f9ed 	bl	10003b48 <alarm_pool_core_num>
1000676e:	42a0      	cmp	r0, r4
10006770:	d002      	beq.n	10006778 <stdio_usb_init+0x1c>
10006772:	2000      	movs	r0, #0
10006774:	b005      	add	sp, #20
10006776:	bd30      	pop	{r4, r5, pc}
10006778:	2100      	movs	r1, #0
1000677a:	4b27      	ldr	r3, [pc, #156]	; (10006818 <stdio_usb_init+0xbc>)
1000677c:	4608      	mov	r0, r1
1000677e:	781b      	ldrb	r3, [r3, #0]
10006780:	f001 fd88 	bl	10008294 <tusb_rhport_init>
10006784:	4825      	ldr	r0, [pc, #148]	; (1000681c <stdio_usb_init+0xc0>)
10006786:	6803      	ldr	r3, [r0, #0]
10006788:	2b00      	cmp	r3, #0
1000678a:	d042      	beq.n	10006812 <stdio_usb_init+0xb6>
1000678c:	2001      	movs	r0, #1
1000678e:	f7fc fe41 	bl	10003414 <user_irq_claim_unused>
10006792:	4603      	mov	r3, r0
10006794:	4c22      	ldr	r4, [pc, #136]	; (10006820 <stdio_usb_init+0xc4>)
10006796:	4923      	ldr	r1, [pc, #140]	; (10006824 <stdio_usb_init+0xc8>)
10006798:	b2c0      	uxtb	r0, r0
1000679a:	7023      	strb	r3, [r4, #0]
1000679c:	f7fc fcb8 	bl	10003110 <irq_set_exclusive_handler>
100067a0:	7820      	ldrb	r0, [r4, #0]
100067a2:	2101      	movs	r1, #1
100067a4:	f7fc fc70 	bl	10003088 <irq_set_enabled>
100067a8:	200e      	movs	r0, #14
100067aa:	f7fc fca1 	bl	100030f0 <irq_has_shared_handler>
100067ae:	bb18      	cbnz	r0, 100067f8 <stdio_usb_init+0x9c>
100067b0:	4b1d      	ldr	r3, [pc, #116]	; (10006828 <stdio_usb_init+0xcc>)
100067b2:	2501      	movs	r5, #1
100067b4:	e9c3 0000 	strd	r0, r0, [r3]
100067b8:	f7fd f8b2 	bl	10003920 <alarm_pool_get_default>
100067bc:	4604      	mov	r4, r0
100067be:	f7fd fabd 	bl	10003d3c <time_us_64>
100067c2:	f510 727a 	adds.w	r2, r0, #1000	; 0x3e8
100067c6:	f141 0300 	adc.w	r3, r1, #0
100067ca:	2100      	movs	r1, #0
100067cc:	4620      	mov	r0, r4
100067ce:	4c17      	ldr	r4, [pc, #92]	; (1000682c <stdio_usb_init+0xd0>)
100067d0:	2b00      	cmp	r3, #0
100067d2:	bfbc      	itt	lt
100067d4:	f04f 32ff 	movlt.w	r2, #4294967295
100067d8:	f06f 4300 	mvnlt.w	r3, #2147483648	; 0x80000000
100067dc:	e9cd 1501 	strd	r1, r5, [sp, #4]
100067e0:	9400      	str	r4, [sp, #0]
100067e2:	f7fd f8a1 	bl	10003928 <alarm_pool_add_alarm_at>
100067e6:	2800      	cmp	r0, #0
100067e8:	dbc3      	blt.n	10006772 <stdio_usb_init+0x16>
100067ea:	2101      	movs	r1, #1
100067ec:	4810      	ldr	r0, [pc, #64]	; (10006830 <stdio_usb_init+0xd4>)
100067ee:	f7ff fcd5 	bl	1000619c <stdio_set_driver_enabled>
100067f2:	2001      	movs	r0, #1
100067f4:	b005      	add	sp, #20
100067f6:	bd30      	pop	{r4, r5, pc}
100067f8:	2001      	movs	r0, #1
100067fa:	f7fc fc01 	bl	10003000 <spin_lock_claim_unused>
100067fe:	4601      	mov	r1, r0
10006800:	4809      	ldr	r0, [pc, #36]	; (10006828 <stdio_usb_init+0xcc>)
10006802:	f7fc fe67 	bl	100034d4 <critical_section_init_with_lock_num>
10006806:	2200      	movs	r2, #0
10006808:	200e      	movs	r0, #14
1000680a:	490a      	ldr	r1, [pc, #40]	; (10006834 <stdio_usb_init+0xd8>)
1000680c:	f7fc fcb0 	bl	10003170 <irq_add_shared_handler>
10006810:	e7eb      	b.n	100067ea <stdio_usb_init+0x8e>
10006812:	f7fc fe43 	bl	1000349c <mutex_init>
10006816:	e7b9      	b.n	1000678c <stdio_usb_init+0x30>
10006818:	1000952c 	.word	0x1000952c
1000681c:	20003014 	.word	0x20003014
10006820:	20003035 	.word	0x20003035
10006824:	10006695 	.word	0x10006695
10006828:	20002fe0 	.word	0x20002fe0
1000682c:	10006459 	.word	0x10006459
10006830:	20001200 	.word	0x20001200
10006834:	100064c9 	.word	0x100064c9

10006838 <tud_descriptor_device_cb>:
10006838:	4800      	ldr	r0, [pc, #0]	; (1000683c <tud_descriptor_device_cb+0x4>)
1000683a:	4770      	bx	lr
1000683c:	10009420 	.word	0x10009420

10006840 <tud_descriptor_configuration_cb>:
10006840:	4800      	ldr	r0, [pc, #0]	; (10006844 <tud_descriptor_configuration_cb+0x4>)
10006842:	4770      	bx	lr
10006844:	100093cc 	.word	0x100093cc

10006848 <tud_descriptor_string_cb>:
10006848:	b538      	push	{r3, r4, r5, lr}
1000684a:	4b1a      	ldr	r3, [pc, #104]	; (100068b4 <tud_descriptor_string_cb+0x6c>)
1000684c:	4604      	mov	r4, r0
1000684e:	781a      	ldrb	r2, [r3, #0]
10006850:	b32a      	cbz	r2, 1000689e <tud_descriptor_string_cb+0x56>
10006852:	b944      	cbnz	r4, 10006866 <tud_descriptor_string_cb+0x1e>
10006854:	f240 4209 	movw	r2, #1033	; 0x409
10006858:	f44f 7341 	mov.w	r3, #772	; 0x304
1000685c:	4d16      	ldr	r5, [pc, #88]	; (100068b8 <tud_descriptor_string_cb+0x70>)
1000685e:	806a      	strh	r2, [r5, #2]
10006860:	4815      	ldr	r0, [pc, #84]	; (100068b8 <tud_descriptor_string_cb+0x70>)
10006862:	802b      	strh	r3, [r5, #0]
10006864:	bd38      	pop	{r3, r4, r5, pc}
10006866:	2c05      	cmp	r4, #5
10006868:	d821      	bhi.n	100068ae <tud_descriptor_string_cb+0x66>
1000686a:	4b14      	ldr	r3, [pc, #80]	; (100068bc <tud_descriptor_string_cb+0x74>)
1000686c:	4d12      	ldr	r5, [pc, #72]	; (100068b8 <tud_descriptor_string_cb+0x70>)
1000686e:	f853 1024 	ldr.w	r1, [r3, r4, lsl #2]
10006872:	4628      	mov	r0, r5
10006874:	2300      	movs	r3, #0
10006876:	3901      	subs	r1, #1
10006878:	e003      	b.n	10006882 <tud_descriptor_string_cb+0x3a>
1000687a:	2b13      	cmp	r3, #19
1000687c:	f820 2f02 	strh.w	r2, [r0, #2]!
10006880:	d012      	beq.n	100068a8 <tud_descriptor_string_cb+0x60>
10006882:	f811 2f01 	ldrb.w	r2, [r1, #1]!
10006886:	fa5f fc83 	uxtb.w	ip, r3
1000688a:	3301      	adds	r3, #1
1000688c:	2a00      	cmp	r2, #0
1000688e:	d1f4      	bne.n	1000687a <tud_descriptor_string_cb+0x32>
10006890:	f10c 0301 	add.w	r3, ip, #1
10006894:	b2db      	uxtb	r3, r3
10006896:	005b      	lsls	r3, r3, #1
10006898:	f443 7340 	orr.w	r3, r3, #768	; 0x300
1000689c:	e7e0      	b.n	10006860 <tud_descriptor_string_cb+0x18>
1000689e:	2111      	movs	r1, #17
100068a0:	4618      	mov	r0, r3
100068a2:	f000 f825 	bl	100068f0 <pico_get_unique_board_id_string>
100068a6:	e7d4      	b.n	10006852 <tud_descriptor_string_cb+0xa>
100068a8:	f44f 734a 	mov.w	r3, #808	; 0x328
100068ac:	e7d8      	b.n	10006860 <tud_descriptor_string_cb+0x18>
100068ae:	2000      	movs	r0, #0
100068b0:	bd38      	pop	{r3, r4, r5, pc}
100068b2:	bf00      	nop
100068b4:	2000301c 	.word	0x2000301c
100068b8:	20002ba0 	.word	0x20002ba0
100068bc:	10009434 	.word	0x10009434

100068c0 <_retrieve_unique_id_on_boot>:
100068c0:	b500      	push	{lr}
100068c2:	f245 3047 	movw	r0, #21319	; 0x5347
100068c6:	b08b      	sub	sp, #44	; 0x2c
100068c8:	f7fd fd3a 	bl	10004340 <rom_func_lookup>
100068cc:	2201      	movs	r2, #1
100068ce:	4603      	mov	r3, r0
100068d0:	2109      	movs	r1, #9
100068d2:	a801      	add	r0, sp, #4
100068d4:	4798      	blx	r3
100068d6:	e9dd 3203 	ldrd	r3, r2, [sp, #12]
100068da:	4904      	ldr	r1, [pc, #16]	; (100068ec <_retrieve_unique_id_on_boot+0x2c>)
100068dc:	ba12      	rev	r2, r2
100068de:	ba1b      	rev	r3, r3
100068e0:	e9c1 2300 	strd	r2, r3, [r1]
100068e4:	b00b      	add	sp, #44	; 0x2c
100068e6:	f85d fb04 	ldr.w	pc, [sp], #4
100068ea:	bf00      	nop
100068ec:	20003008 	.word	0x20003008

100068f0 <pico_get_unique_board_id_string>:
100068f0:	3901      	subs	r1, #1
100068f2:	f000 80b3 	beq.w	10006a5c <pico_get_unique_board_id_string+0x16c>
100068f6:	4a5d      	ldr	r2, [pc, #372]	; (10006a6c <pico_get_unique_board_id_string+0x17c>)
100068f8:	7813      	ldrb	r3, [r2, #0]
100068fa:	ea4f 1c23 	mov.w	ip, r3, asr #4
100068fe:	2b9f      	cmp	r3, #159	; 0x9f
10006900:	bf8c      	ite	hi
10006902:	f10c 0c37 	addhi.w	ip, ip, #55	; 0x37
10006906:	f10c 0c30 	addls.w	ip, ip, #48	; 0x30
1000690a:	2901      	cmp	r1, #1
1000690c:	f880 c000 	strb.w	ip, [r0]
10006910:	f000 80a7 	beq.w	10006a62 <pico_get_unique_board_id_string+0x172>
10006914:	f003 030f 	and.w	r3, r3, #15
10006918:	2b09      	cmp	r3, #9
1000691a:	bfcc      	ite	gt
1000691c:	3337      	addgt	r3, #55	; 0x37
1000691e:	3330      	addle	r3, #48	; 0x30
10006920:	2902      	cmp	r1, #2
10006922:	7043      	strb	r3, [r0, #1]
10006924:	f000 809d 	beq.w	10006a62 <pico_get_unique_board_id_string+0x172>
10006928:	7853      	ldrb	r3, [r2, #1]
1000692a:	ea4f 1c23 	mov.w	ip, r3, asr #4
1000692e:	2b9f      	cmp	r3, #159	; 0x9f
10006930:	bf8c      	ite	hi
10006932:	f10c 0c37 	addhi.w	ip, ip, #55	; 0x37
10006936:	f10c 0c30 	addls.w	ip, ip, #48	; 0x30
1000693a:	2903      	cmp	r1, #3
1000693c:	f880 c002 	strb.w	ip, [r0, #2]
10006940:	f000 808f 	beq.w	10006a62 <pico_get_unique_board_id_string+0x172>
10006944:	f003 030f 	and.w	r3, r3, #15
10006948:	2b09      	cmp	r3, #9
1000694a:	bfcc      	ite	gt
1000694c:	3337      	addgt	r3, #55	; 0x37
1000694e:	3330      	addle	r3, #48	; 0x30
10006950:	2904      	cmp	r1, #4
10006952:	70c3      	strb	r3, [r0, #3]
10006954:	f000 8085 	beq.w	10006a62 <pico_get_unique_board_id_string+0x172>
10006958:	7893      	ldrb	r3, [r2, #2]
1000695a:	ea4f 1c23 	mov.w	ip, r3, asr #4
1000695e:	2b9f      	cmp	r3, #159	; 0x9f
10006960:	bf8c      	ite	hi
10006962:	f10c 0c37 	addhi.w	ip, ip, #55	; 0x37
10006966:	f10c 0c30 	addls.w	ip, ip, #48	; 0x30
1000696a:	2905      	cmp	r1, #5
1000696c:	f880 c004 	strb.w	ip, [r0, #4]
10006970:	d077      	beq.n	10006a62 <pico_get_unique_board_id_string+0x172>
10006972:	f003 030f 	and.w	r3, r3, #15
10006976:	2b09      	cmp	r3, #9
10006978:	bfcc      	ite	gt
1000697a:	3337      	addgt	r3, #55	; 0x37
1000697c:	3330      	addle	r3, #48	; 0x30
1000697e:	2906      	cmp	r1, #6
10006980:	7143      	strb	r3, [r0, #5]
10006982:	d06e      	beq.n	10006a62 <pico_get_unique_board_id_string+0x172>
10006984:	78d3      	ldrb	r3, [r2, #3]
10006986:	ea4f 1c23 	mov.w	ip, r3, asr #4
1000698a:	2b9f      	cmp	r3, #159	; 0x9f
1000698c:	bf8c      	ite	hi
1000698e:	f10c 0c37 	addhi.w	ip, ip, #55	; 0x37
10006992:	f10c 0c30 	addls.w	ip, ip, #48	; 0x30
10006996:	2907      	cmp	r1, #7
10006998:	f880 c006 	strb.w	ip, [r0, #6]
1000699c:	d061      	beq.n	10006a62 <pico_get_unique_board_id_string+0x172>
1000699e:	f003 030f 	and.w	r3, r3, #15
100069a2:	2b09      	cmp	r3, #9
100069a4:	bfcc      	ite	gt
100069a6:	3337      	addgt	r3, #55	; 0x37
100069a8:	3330      	addle	r3, #48	; 0x30
100069aa:	2908      	cmp	r1, #8
100069ac:	71c3      	strb	r3, [r0, #7]
100069ae:	d058      	beq.n	10006a62 <pico_get_unique_board_id_string+0x172>
100069b0:	7913      	ldrb	r3, [r2, #4]
100069b2:	ea4f 1c23 	mov.w	ip, r3, asr #4
100069b6:	2b9f      	cmp	r3, #159	; 0x9f
100069b8:	bf8c      	ite	hi
100069ba:	f10c 0c37 	addhi.w	ip, ip, #55	; 0x37
100069be:	f10c 0c30 	addls.w	ip, ip, #48	; 0x30
100069c2:	2909      	cmp	r1, #9
100069c4:	f880 c008 	strb.w	ip, [r0, #8]
100069c8:	d04b      	beq.n	10006a62 <pico_get_unique_board_id_string+0x172>
100069ca:	f003 030f 	and.w	r3, r3, #15
100069ce:	2b09      	cmp	r3, #9
100069d0:	bfcc      	ite	gt
100069d2:	3337      	addgt	r3, #55	; 0x37
100069d4:	3330      	addle	r3, #48	; 0x30
100069d6:	290a      	cmp	r1, #10
100069d8:	7243      	strb	r3, [r0, #9]
100069da:	d042      	beq.n	10006a62 <pico_get_unique_board_id_string+0x172>
100069dc:	7953      	ldrb	r3, [r2, #5]
100069de:	ea4f 1c23 	mov.w	ip, r3, asr #4
100069e2:	2b9f      	cmp	r3, #159	; 0x9f
100069e4:	bf8c      	ite	hi
100069e6:	f10c 0c37 	addhi.w	ip, ip, #55	; 0x37
100069ea:	f10c 0c30 	addls.w	ip, ip, #48	; 0x30
100069ee:	290b      	cmp	r1, #11
100069f0:	f880 c00a 	strb.w	ip, [r0, #10]
100069f4:	d035      	beq.n	10006a62 <pico_get_unique_board_id_string+0x172>
100069f6:	f003 030f 	and.w	r3, r3, #15
100069fa:	2b09      	cmp	r3, #9
100069fc:	bfcc      	ite	gt
100069fe:	3337      	addgt	r3, #55	; 0x37
10006a00:	3330      	addle	r3, #48	; 0x30
10006a02:	290c      	cmp	r1, #12
10006a04:	72c3      	strb	r3, [r0, #11]
10006a06:	d02c      	beq.n	10006a62 <pico_get_unique_board_id_string+0x172>
10006a08:	7993      	ldrb	r3, [r2, #6]
10006a0a:	ea4f 1c23 	mov.w	ip, r3, asr #4
10006a0e:	2b9f      	cmp	r3, #159	; 0x9f
10006a10:	bf8c      	ite	hi
10006a12:	f10c 0c37 	addhi.w	ip, ip, #55	; 0x37
10006a16:	f10c 0c30 	addls.w	ip, ip, #48	; 0x30
10006a1a:	290d      	cmp	r1, #13
10006a1c:	f880 c00c 	strb.w	ip, [r0, #12]
10006a20:	d01f      	beq.n	10006a62 <pico_get_unique_board_id_string+0x172>
10006a22:	f003 030f 	and.w	r3, r3, #15
10006a26:	2b09      	cmp	r3, #9
10006a28:	bfcc      	ite	gt
10006a2a:	3337      	addgt	r3, #55	; 0x37
10006a2c:	3330      	addle	r3, #48	; 0x30
10006a2e:	290e      	cmp	r1, #14
10006a30:	7343      	strb	r3, [r0, #13]
10006a32:	d016      	beq.n	10006a62 <pico_get_unique_board_id_string+0x172>
10006a34:	79d3      	ldrb	r3, [r2, #7]
10006a36:	111a      	asrs	r2, r3, #4
10006a38:	2b9f      	cmp	r3, #159	; 0x9f
10006a3a:	bf8c      	ite	hi
10006a3c:	3237      	addhi	r2, #55	; 0x37
10006a3e:	3230      	addls	r2, #48	; 0x30
10006a40:	290f      	cmp	r1, #15
10006a42:	7382      	strb	r2, [r0, #14]
10006a44:	d00d      	beq.n	10006a62 <pico_get_unique_board_id_string+0x172>
10006a46:	f003 030f 	and.w	r3, r3, #15
10006a4a:	2b09      	cmp	r3, #9
10006a4c:	bfd4      	ite	le
10006a4e:	3330      	addle	r3, #48	; 0x30
10006a50:	3337      	addgt	r3, #55	; 0x37
10006a52:	2910      	cmp	r1, #16
10006a54:	73c3      	strb	r3, [r0, #15]
10006a56:	bf18      	it	ne
10006a58:	3010      	addne	r0, #16
10006a5a:	d002      	beq.n	10006a62 <pico_get_unique_board_id_string+0x172>
10006a5c:	2300      	movs	r3, #0
10006a5e:	7003      	strb	r3, [r0, #0]
10006a60:	4770      	bx	lr
10006a62:	2300      	movs	r3, #0
10006a64:	4408      	add	r0, r1
10006a66:	7003      	strb	r3, [r0, #0]
10006a68:	4770      	bx	lr
10006a6a:	bf00      	nop
10006a6c:	20003008 	.word	0x20003008

10006a70 <dcd_init>:
10006a70:	b5f8      	push	{r3, r4, r5, r6, r7, lr}
10006a72:	f000 f93b 	bl	10006cec <rp2040_usb_init>
10006a76:	230c      	movs	r3, #12
10006a78:	2740      	movs	r7, #64	; 0x40
10006a7a:	4d1a      	ldr	r5, [pc, #104]	; (10006ae4 <dcd_init+0x74>)
10006a7c:	4c1a      	ldr	r4, [pc, #104]	; (10006ae8 <dcd_init+0x78>)
10006a7e:	67ab      	str	r3, [r5, #120]	; 0x78
10006a80:	22ff      	movs	r2, #255	; 0xff
10006a82:	200e      	movs	r0, #14
10006a84:	4919      	ldr	r1, [pc, #100]	; (10006aec <dcd_init+0x7c>)
10006a86:	f7fc fb73 	bl	10003170 <irq_add_shared_handler>
10006a8a:	463a      	mov	r2, r7
10006a8c:	2100      	movs	r1, #0
10006a8e:	4620      	mov	r0, r4
10006a90:	f002 f9ce 	bl	10008e30 <memset>
10006a94:	4b16      	ldr	r3, [pc, #88]	; (10006af0 <dcd_init+0x80>)
10006a96:	2601      	movs	r6, #1
10006a98:	62a3      	str	r3, [r4, #40]	; 0x28
10006a9a:	2180      	movs	r1, #128	; 0x80
10006a9c:	2300      	movs	r3, #0
10006a9e:	4a15      	ldr	r2, [pc, #84]	; (10006af4 <dcd_init+0x84>)
10006aa0:	7066      	strb	r6, [r4, #1]
10006aa2:	60a2      	str	r2, [r4, #8]
10006aa4:	3a84      	subs	r2, #132	; 0x84
10006aa6:	8327      	strh	r7, [r4, #24]
10006aa8:	8727      	strh	r7, [r4, #56]	; 0x38
10006aaa:	8461      	strh	r1, [r4, #34]	; 0x22
10006aac:	f8c2 3084 	str.w	r3, [r2, #132]	; 0x84
10006ab0:	f8c2 3080 	str.w	r3, [r2, #128]	; 0x80
10006ab4:	6063      	str	r3, [r4, #4]
10006ab6:	f884 3021 	strb.w	r3, [r4, #33]	; 0x21
10006aba:	f884 303b 	strb.w	r3, [r4, #59]	; 0x3b
10006abe:	6263      	str	r3, [r4, #36]	; 0x24
10006ac0:	4b0d      	ldr	r3, [pc, #52]	; (10006af8 <dcd_init+0x88>)
10006ac2:	60e3      	str	r3, [r4, #12]
10006ac4:	62e3      	str	r3, [r4, #44]	; 0x2c
10006ac6:	f002 fa7f 	bl	10008fc8 <__reset_non_control_endpoints_veneer>
10006aca:	f04f 5400 	mov.w	r4, #536870912	; 0x20000000
10006ace:	f44f 3280 	mov.w	r2, #65536	; 0x10000
10006ad2:	490a      	ldr	r1, [pc, #40]	; (10006afc <dcd_init+0x8c>)
10006ad4:	4b0a      	ldr	r3, [pc, #40]	; (10006b00 <dcd_init+0x90>)
10006ad6:	642e      	str	r6, [r5, #64]	; 0x40
10006ad8:	4630      	mov	r0, r6
10006ada:	64ec      	str	r4, [r5, #76]	; 0x4c
10006adc:	f8c5 1090 	str.w	r1, [r5, #144]	; 0x90
10006ae0:	64da      	str	r2, [r3, #76]	; 0x4c
10006ae2:	bdf8      	pop	{r3, r4, r5, r6, r7, pc}
10006ae4:	50110000 	.word	0x50110000
10006ae8:	20002bd4 	.word	0x20002bd4
10006aec:	200003a9 	.word	0x200003a9
10006af0:	50100080 	.word	0x50100080
10006af4:	50100084 	.word	0x50100084
10006af8:	50100100 	.word	0x50100100
10006afc:	0001d010 	.word	0x0001d010
10006b00:	50112000 	.word	0x50112000

10006b04 <dcd_int_enable>:
10006b04:	2101      	movs	r1, #1
10006b06:	200e      	movs	r0, #14
10006b08:	f7fc babe 	b.w	10003088 <irq_set_enabled>

10006b0c <dcd_set_address>:
10006b0c:	2200      	movs	r2, #0
10006b0e:	4802      	ldr	r0, [pc, #8]	; (10006b18 <dcd_set_address+0xc>)
10006b10:	4611      	mov	r1, r2
10006b12:	f000 b90b 	b.w	10006d2c <hw_endpoint_xfer_start>
10006b16:	bf00      	nop
10006b18:	20002bf4 	.word	0x20002bf4

10006b1c <dcd_sof_enable>:
10006b1c:	4b04      	ldr	r3, [pc, #16]	; (10006b30 <dcd_sof_enable+0x14>)
10006b1e:	7019      	strb	r1, [r3, #0]
10006b20:	b121      	cbz	r1, 10006b2c <dcd_sof_enable+0x10>
10006b22:	f44f 3200 	mov.w	r2, #131072	; 0x20000
10006b26:	4b03      	ldr	r3, [pc, #12]	; (10006b34 <dcd_sof_enable+0x18>)
10006b28:	f8c3 2090 	str.w	r2, [r3, #144]	; 0x90
10006b2c:	4770      	bx	lr
10006b2e:	bf00      	nop
10006b30:	20003031 	.word	0x20003031
10006b34:	50112000 	.word	0x50112000

10006b38 <dcd_edpt0_status_complete>:
10006b38:	780b      	ldrb	r3, [r1, #0]
10006b3a:	065b      	lsls	r3, r3, #25
10006b3c:	d102      	bne.n	10006b44 <dcd_edpt0_status_complete+0xc>
10006b3e:	784b      	ldrb	r3, [r1, #1]
10006b40:	2b05      	cmp	r3, #5
10006b42:	d000      	beq.n	10006b46 <dcd_edpt0_status_complete+0xe>
10006b44:	4770      	bx	lr
10006b46:	884b      	ldrh	r3, [r1, #2]
10006b48:	4a01      	ldr	r2, [pc, #4]	; (10006b50 <dcd_edpt0_status_complete+0x18>)
10006b4a:	b2db      	uxtb	r3, r3
10006b4c:	6013      	str	r3, [r2, #0]
10006b4e:	4770      	bx	lr
10006b50:	50110000 	.word	0x50110000

10006b54 <dcd_edpt_open>:
10006b54:	78cb      	ldrb	r3, [r1, #3]
10006b56:	e92d 41f0 	stmdb	sp!, {r4, r5, r6, r7, r8, lr}
10006b5a:	f003 0e03 	and.w	lr, r3, #3
10006b5e:	f1be 0f01 	cmp.w	lr, #1
10006b62:	f3c3 0001 	ubfx	r0, r3, #0, #2
10006b66:	d05f      	beq.n	10006c28 <dcd_edpt_open+0xd4>
10006b68:	2700      	movs	r7, #0
10006b6a:	f891 c002 	ldrb.w	ip, [r1, #2]
10006b6e:	4d37      	ldr	r5, [pc, #220]	; (10006c4c <dcd_edpt_open+0xf8>)
10006b70:	f00c 027f 	and.w	r2, ip, #127	; 0x7f
10006b74:	0056      	lsls	r6, r2, #1
10006b76:	8889      	ldrh	r1, [r1, #4]
10006b78:	eb06 13dc 	add.w	r3, r6, ip, lsr #7
10006b7c:	eb05 1343 	add.w	r3, r5, r3, lsl #5
10006b80:	ea4f 14dc 	mov.w	r4, ip, lsr #7
10006b84:	f3c1 010a 	ubfx	r1, r1, #0, #11
10006b88:	76d8      	strb	r0, [r3, #27]
10006b8a:	f084 0001 	eor.w	r0, r4, #1
10006b8e:	f883 c002 	strb.w	ip, [r3, #2]
10006b92:	8319      	strh	r1, [r3, #24]
10006b94:	7058      	strb	r0, [r3, #1]
10006b96:	70df      	strb	r7, [r3, #3]
10006b98:	bb94      	cbnz	r4, 10006c00 <dcd_edpt_open+0xac>
10006b9a:	2304      	movs	r3, #4
10006b9c:	482c      	ldr	r0, [pc, #176]	; (10006c50 <dcd_edpt_open+0xfc>)
10006b9e:	eb03 03c2 	add.w	r3, r3, r2, lsl #3
10006ba2:	eb05 1c82 	add.w	ip, r5, r2, lsl #6
10006ba6:	eb03 0800 	add.w	r8, r3, r0
10006baa:	f8cc 8008 	str.w	r8, [ip, #8]
10006bae:	501f      	str	r7, [r3, r0]
10006bb0:	b38a      	cbz	r2, 10006c16 <dcd_edpt_open+0xc2>
10006bb2:	4b28      	ldr	r3, [pc, #160]	; (10006c54 <dcd_edpt_open+0x100>)
10006bb4:	00d2      	lsls	r2, r2, #3
10006bb6:	4413      	add	r3, r2
10006bb8:	f8cc 3004 	str.w	r3, [ip, #4]
10006bbc:	313f      	adds	r1, #63	; 0x3f
10006bbe:	f1be 0f02 	cmp.w	lr, #2
10006bc2:	f021 013f 	bic.w	r1, r1, #63	; 0x3f
10006bc6:	d03a      	beq.n	10006c3e <dcd_edpt_open+0xea>
10006bc8:	4a23      	ldr	r2, [pc, #140]	; (10006c58 <dcd_edpt_open+0x104>)
10006bca:	1937      	adds	r7, r6, r4
10006bcc:	6813      	ldr	r3, [r2, #0]
10006bce:	eb05 1747 	add.w	r7, r5, r7, lsl #5
10006bd2:	4419      	add	r1, r3
10006bd4:	6011      	str	r1, [r2, #0]
10006bd6:	4a21      	ldr	r2, [pc, #132]	; (10006c5c <dcd_edpt_open+0x108>)
10006bd8:	60fb      	str	r3, [r7, #12]
10006bda:	4291      	cmp	r1, r2
10006bdc:	d831      	bhi.n	10006c42 <dcd_edpt_open+0xee>
10006bde:	4434      	add	r4, r6
10006be0:	eb05 1544 	add.w	r5, r5, r4, lsl #5
10006be4:	7ee9      	ldrb	r1, [r5, #27]
10006be6:	f083 43a0 	eor.w	r3, r3, #1342177280	; 0x50000000
10006bea:	f483 1380 	eor.w	r3, r3, #1048576	; 0x100000
10006bee:	686a      	ldr	r2, [r5, #4]
10006bf0:	ea43 6381 	orr.w	r3, r3, r1, lsl #26
10006bf4:	f043 4300 	orr.w	r3, r3, #2147483648	; 0x80000000
10006bf8:	2001      	movs	r0, #1
10006bfa:	6013      	str	r3, [r2, #0]
10006bfc:	e8bd 81f0 	ldmia.w	sp!, {r4, r5, r6, r7, r8, pc}
10006c00:	4813      	ldr	r0, [pc, #76]	; (10006c50 <dcd_edpt_open+0xfc>)
10006c02:	b213      	sxth	r3, r2
10006c04:	eb00 08c2 	add.w	r8, r0, r2, lsl #3
10006c08:	eb05 1c82 	add.w	ip, r5, r2, lsl #6
10006c0c:	f8cc 8028 	str.w	r8, [ip, #40]	; 0x28
10006c10:	f840 7033 	str.w	r7, [r0, r3, lsl #3]
10006c14:	b95a      	cbnz	r2, 10006c2e <dcd_edpt_open+0xda>
10006c16:	2300      	movs	r3, #0
10006c18:	4a11      	ldr	r2, [pc, #68]	; (10006c60 <dcd_edpt_open+0x10c>)
10006c1a:	eb05 1444 	add.w	r4, r5, r4, lsl #5
10006c1e:	2001      	movs	r0, #1
10006c20:	60e2      	str	r2, [r4, #12]
10006c22:	6063      	str	r3, [r4, #4]
10006c24:	e8bd 81f0 	ldmia.w	sp!, {r4, r5, r6, r7, r8, pc}
10006c28:	2000      	movs	r0, #0
10006c2a:	e8bd 81f0 	ldmia.w	sp!, {r4, r5, r6, r7, r8, pc}
10006c2e:	00d2      	lsls	r2, r2, #3
10006c30:	f102 42a0 	add.w	r2, r2, #1342177280	; 0x50000000
10006c34:	f502 1280 	add.w	r2, r2, #1048576	; 0x100000
10006c38:	f8cc 2024 	str.w	r2, [ip, #36]	; 0x24
10006c3c:	e7be      	b.n	10006bbc <dcd_edpt_open+0x68>
10006c3e:	0049      	lsls	r1, r1, #1
10006c40:	e7c2      	b.n	10006bc8 <dcd_edpt_open+0x74>
10006c42:	f7fd fbc9 	bl	100043d8 <hard_assertion_failure>
10006c46:	68fb      	ldr	r3, [r7, #12]
10006c48:	e7c9      	b.n	10006bde <dcd_edpt_open+0x8a>
10006c4a:	bf00      	nop
10006c4c:	20002bd4 	.word	0x20002bd4
10006c50:	50100080 	.word	0x50100080
10006c54:	50100004 	.word	0x50100004
10006c58:	20002fdc 	.word	0x20002fdc
10006c5c:	50100fff 	.word	0x50100fff
10006c60:	50100100 	.word	0x50100100

10006c64 <dcd_edpt_close_all>:
10006c64:	f002 b9b0 	b.w	10008fc8 <__reset_non_control_endpoints_veneer>

10006c68 <dcd_edpt_xfer>:
10006c68:	468c      	mov	ip, r1
10006c6a:	b508      	push	{r3, lr}
10006c6c:	4611      	mov	r1, r2
10006c6e:	4807      	ldr	r0, [pc, #28]	; (10006c8c <dcd_edpt_xfer+0x24>)
10006c70:	461a      	mov	r2, r3
10006c72:	f00c 037f 	and.w	r3, ip, #127	; 0x7f
10006c76:	ea4f 1cdc 	mov.w	ip, ip, lsr #7
10006c7a:	eb0c 0c43 	add.w	ip, ip, r3, lsl #1
10006c7e:	eb00 104c 	add.w	r0, r0, ip, lsl #5
10006c82:	f000 f853 	bl	10006d2c <hw_endpoint_xfer_start>
10006c86:	2001      	movs	r0, #1
10006c88:	bd08      	pop	{r3, pc}
10006c8a:	bf00      	nop
10006c8c:	20002bd4 	.word	0x20002bd4

10006c90 <dcd_edpt_stall>:
10006c90:	f011 007f 	ands.w	r0, r1, #127	; 0x7f
10006c94:	d00a      	beq.n	10006cac <dcd_edpt_stall+0x1c>
10006c96:	09c9      	lsrs	r1, r1, #7
10006c98:	4b07      	ldr	r3, [pc, #28]	; (10006cb8 <dcd_edpt_stall+0x28>)
10006c9a:	eb01 0040 	add.w	r0, r1, r0, lsl #1
10006c9e:	f44f 6200 	mov.w	r2, #2048	; 0x800
10006ca2:	2100      	movs	r1, #0
10006ca4:	eb03 1040 	add.w	r0, r3, r0, lsl #5
10006ca8:	f002 b99e 	b.w	10008fe8 <___hw_endpoint_buffer_control_update32_veneer>
10006cac:	4b03      	ldr	r3, [pc, #12]	; (10006cbc <dcd_edpt_stall+0x2c>)
10006cae:	09c9      	lsrs	r1, r1, #7
10006cb0:	f1c1 0202 	rsb	r2, r1, #2
10006cb4:	669a      	str	r2, [r3, #104]	; 0x68
10006cb6:	e7ef      	b.n	10006c98 <dcd_edpt_stall+0x8>
10006cb8:	20002bd4 	.word	0x20002bd4
10006cbc:	50112000 	.word	0x50112000

10006cc0 <dcd_edpt_clear_stall>:
10006cc0:	f011 037f 	ands.w	r3, r1, #127	; 0x7f
10006cc4:	d100      	bne.n	10006cc8 <dcd_edpt_clear_stall+0x8>
10006cc6:	4770      	bx	lr
10006cc8:	2200      	movs	r2, #0
10006cca:	b410      	push	{r4}
10006ccc:	09c8      	lsrs	r0, r1, #7
10006cce:	4c06      	ldr	r4, [pc, #24]	; (10006ce8 <dcd_edpt_clear_stall+0x28>)
10006cd0:	eb00 0043 	add.w	r0, r0, r3, lsl #1
10006cd4:	eb04 1340 	add.w	r3, r4, r0, lsl #5
10006cd8:	f46f 6100 	mvn.w	r1, #2048	; 0x800
10006cdc:	4618      	mov	r0, r3
10006cde:	f85d 4b04 	ldr.w	r4, [sp], #4
10006ce2:	70da      	strb	r2, [r3, #3]
10006ce4:	f002 b980 	b.w	10008fe8 <___hw_endpoint_buffer_control_update32_veneer>
10006ce8:	20002bd4 	.word	0x20002bd4

10006cec <rp2040_usb_init>:
10006cec:	f04f 5280 	mov.w	r2, #268435456	; 0x10000000
10006cf0:	4809      	ldr	r0, [pc, #36]	; (10006d18 <rp2040_usb_init+0x2c>)
10006cf2:	490a      	ldr	r1, [pc, #40]	; (10006d1c <rp2040_usb_init+0x30>)
10006cf4:	b508      	push	{r3, lr}
10006cf6:	4b0a      	ldr	r3, [pc, #40]	; (10006d20 <rp2040_usb_init+0x34>)
10006cf8:	6002      	str	r2, [r0, #0]
10006cfa:	600a      	str	r2, [r1, #0]
10006cfc:	6899      	ldr	r1, [r3, #8]
10006cfe:	43c9      	mvns	r1, r1
10006d00:	f011 5180 	ands.w	r1, r1, #268435456	; 0x10000000
10006d04:	d1fa      	bne.n	10006cfc <rp2040_usb_init+0x10>
10006d06:	f44f 5280 	mov.w	r2, #4096	; 0x1000
10006d0a:	4806      	ldr	r0, [pc, #24]	; (10006d24 <rp2040_usb_init+0x38>)
10006d0c:	f002 f890 	bl	10008e30 <memset>
10006d10:	2209      	movs	r2, #9
10006d12:	4b05      	ldr	r3, [pc, #20]	; (10006d28 <rp2040_usb_init+0x3c>)
10006d14:	675a      	str	r2, [r3, #116]	; 0x74
10006d16:	bd08      	pop	{r3, pc}
10006d18:	40022000 	.word	0x40022000
10006d1c:	40023000 	.word	0x40023000
10006d20:	40020000 	.word	0x40020000
10006d24:	50100000 	.word	0x50100000
10006d28:	50110000 	.word	0x50110000

10006d2c <hw_endpoint_xfer_start>:
10006d2c:	7e83      	ldrb	r3, [r0, #26]
10006d2e:	b510      	push	{r4, lr}
10006d30:	4604      	mov	r4, r0
10006d32:	b9bb      	cbnz	r3, 10006d64 <hw_endpoint_xfer_start+0x38>
10006d34:	f04f 0c00 	mov.w	ip, #0
10006d38:	2301      	movs	r3, #1
10006d3a:	4620      	mov	r0, r4
10006d3c:	82a2      	strh	r2, [r4, #20]
10006d3e:	6121      	str	r1, [r4, #16]
10006d40:	f8a4 c016 	strh.w	ip, [r4, #22]
10006d44:	76a3      	strb	r3, [r4, #26]
10006d46:	f002 f91f 	bl	10008f88 <__e15_is_bulkin_ep_veneer>
10006d4a:	b120      	cbz	r0, 10006d56 <hw_endpoint_xfer_start+0x2a>
10006d4c:	f44f 3200 	mov.w	r2, #131072	; 0x20000
10006d50:	4b08      	ldr	r3, [pc, #32]	; (10006d74 <hw_endpoint_xfer_start+0x48>)
10006d52:	f8c3 2090 	str.w	r2, [r3, #144]	; 0x90
10006d56:	4620      	mov	r0, r4
10006d58:	f002 f91e 	bl	10008f98 <__e15_is_critical_frame_period_veneer>
10006d5c:	b128      	cbz	r0, 10006d6a <hw_endpoint_xfer_start+0x3e>
10006d5e:	2301      	movs	r3, #1
10006d60:	7723      	strb	r3, [r4, #28]
10006d62:	bd10      	pop	{r4, pc}
10006d64:	f002 f938 	bl	10008fd8 <__hw_endpoint_reset_transfer_veneer>
10006d68:	e7e4      	b.n	10006d34 <hw_endpoint_xfer_start+0x8>
10006d6a:	4620      	mov	r0, r4
10006d6c:	e8bd 4010 	ldmia.w	sp!, {r4, lr}
10006d70:	f002 b922 	b.w	10008fb8 <__hw_endpoint_start_next_buffer_veneer>
10006d74:	50112000 	.word	0x50112000

10006d78 <configuration_reset>:
10006d78:	e92d 41f0 	stmdb	sp!, {r4, r5, r6, r7, r8, lr}
10006d7c:	2400      	movs	r4, #0
10006d7e:	4d1d      	ldr	r5, [pc, #116]	; (10006df4 <configuration_reset+0x7c>)
10006d80:	4680      	mov	r8, r0
10006d82:	4623      	mov	r3, r4
10006d84:	782a      	ldrb	r2, [r5, #0]
10006d86:	4f1c      	ldr	r7, [pc, #112]	; (10006df8 <configuration_reset+0x80>)
10006d88:	4e1c      	ldr	r6, [pc, #112]	; (10006dfc <configuration_reset+0x84>)
10006d8a:	e00d      	b.n	10006da8 <configuration_reset+0x30>
10006d8c:	6833      	ldr	r3, [r6, #0]
10006d8e:	eb13 1344 	adds.w	r3, r3, r4, lsl #5
10006d92:	d025      	beq.n	10006de0 <configuration_reset+0x68>
10006d94:	68db      	ldr	r3, [r3, #12]
10006d96:	4640      	mov	r0, r8
10006d98:	4798      	blx	r3
10006d9a:	782a      	ldrb	r2, [r5, #0]
10006d9c:	3401      	adds	r4, #1
10006d9e:	b2e4      	uxtb	r4, r4
10006da0:	1c51      	adds	r1, r2, #1
10006da2:	42a1      	cmp	r1, r4
10006da4:	4623      	mov	r3, r4
10006da6:	db06      	blt.n	10006db6 <configuration_reset+0x3e>
10006da8:	42a2      	cmp	r2, r4
10006daa:	eba3 0302 	sub.w	r3, r3, r2
10006dae:	d8ed      	bhi.n	10006d8c <configuration_reset+0x14>
10006db0:	eb07 1343 	add.w	r3, r7, r3, lsl #5
10006db4:	e7ee      	b.n	10006d94 <configuration_reset+0x1c>
10006db6:	4c12      	ldr	r4, [pc, #72]	; (10006e00 <configuration_reset+0x88>)
10006db8:	2254      	movs	r2, #84	; 0x54
10006dba:	2100      	movs	r1, #0
10006dbc:	4620      	mov	r0, r4
10006dbe:	f002 f837 	bl	10008e30 <memset>
10006dc2:	f04f 33ff 	mov.w	r3, #4294967295
10006dc6:	1d25      	adds	r5, r4, #4
10006dc8:	6063      	str	r3, [r4, #4]
10006dca:	e9c5 3301 	strd	r3, r3, [r5, #4]
10006dce:	60eb      	str	r3, [r5, #12]
10006dd0:	f104 0014 	add.w	r0, r4, #20
10006dd4:	2220      	movs	r2, #32
10006dd6:	e8bd 41f0 	ldmia.w	sp!, {r4, r5, r6, r7, r8, lr}
10006dda:	21ff      	movs	r1, #255	; 0xff
10006ddc:	f002 b828 	b.w	10008e30 <memset>
10006de0:	f04f 23e0 	mov.w	r3, #3758153728	; 0xe000e000
10006de4:	f8d3 3df0 	ldr.w	r3, [r3, #3568]	; 0xdf0
10006de8:	07db      	lsls	r3, r3, #31
10006dea:	d500      	bpl.n	10006dee <configuration_reset+0x76>
10006dec:	be00      	bkpt	0x0000
10006dee:	e8bd 81f0 	ldmia.w	sp!, {r4, r5, r6, r7, r8, pc}
10006df2:	bf00      	nop
10006df4:	20003030 	.word	0x20003030
10006df8:	100094a8 	.word	0x100094a8
10006dfc:	200025a4 	.word	0x200025a4
10006e00:	20002774 	.word	0x20002774

10006e04 <tud_event_hook_cb>:
10006e04:	4770      	bx	lr
10006e06:	bf00      	nop

10006e08 <tud_sof_cb>:
10006e08:	4770      	bx	lr
10006e0a:	bf00      	nop

10006e0c <tud_descriptor_device_qualifier_cb>:
10006e0c:	2000      	movs	r0, #0
10006e0e:	4770      	bx	lr

10006e10 <tud_descriptor_other_speed_configuration_cb>:
10006e10:	2000      	movs	r0, #0
10006e12:	4770      	bx	lr

10006e14 <tud_mount_cb>:
10006e14:	4770      	bx	lr
10006e16:	bf00      	nop

10006e18 <tud_umount_cb>:
10006e18:	4770      	bx	lr
10006e1a:	bf00      	nop

10006e1c <tud_suspend_cb>:
10006e1c:	4770      	bx	lr
10006e1e:	bf00      	nop

10006e20 <tud_resume_cb>:
10006e20:	4770      	bx	lr
10006e22:	bf00      	nop

10006e24 <tud_mounted>:
10006e24:	4b02      	ldr	r3, [pc, #8]	; (10006e30 <tud_mounted+0xc>)
10006e26:	7858      	ldrb	r0, [r3, #1]
10006e28:	3800      	subs	r0, #0
10006e2a:	bf18      	it	ne
10006e2c:	2001      	movne	r0, #1
10006e2e:	4770      	bx	lr
10006e30:	20002774 	.word	0x20002774

10006e34 <tud_suspended>:
10006e34:	4b02      	ldr	r3, [pc, #8]	; (10006e40 <tud_suspended+0xc>)
10006e36:	7818      	ldrb	r0, [r3, #0]
10006e38:	f3c0 0080 	ubfx	r0, r0, #2, #1
10006e3c:	4770      	bx	lr
10006e3e:	bf00      	nop
10006e40:	20002774 	.word	0x20002774

10006e44 <tud_rhport_init>:
10006e44:	e92d 47f0 	stmdb	sp!, {r4, r5, r6, r7, r8, r9, sl, lr}
10006e48:	f8df 8100 	ldr.w	r8, [pc, #256]	; 10006f4c <tud_rhport_init+0x108>
10006e4c:	f898 3000 	ldrb.w	r3, [r8]
10006e50:	2bff      	cmp	r3, #255	; 0xff
10006e52:	d14d      	bne.n	10006ef0 <tud_rhport_init+0xac>
10006e54:	460d      	mov	r5, r1
10006e56:	2900      	cmp	r1, #0
10006e58:	d04e      	beq.n	10006ef8 <tud_rhport_init+0xb4>
10006e5a:	2100      	movs	r1, #0
10006e5c:	2254      	movs	r2, #84	; 0x54
10006e5e:	4607      	mov	r7, r0
10006e60:	4831      	ldr	r0, [pc, #196]	; (10006f28 <tud_rhport_init+0xe4>)
10006e62:	f001 ffe5 	bl	10008e30 <memset>
10006e66:	2200      	movs	r2, #0
10006e68:	4c30      	ldr	r4, [pc, #192]	; (10006f2c <tud_rhport_init+0xe8>)
10006e6a:	4b31      	ldr	r3, [pc, #196]	; (10006f30 <tud_rhport_init+0xec>)
10006e6c:	4620      	mov	r0, r4
10006e6e:	701a      	strb	r2, [r3, #0]
10006e70:	f7fc fb14 	bl	1000349c <mutex_init>
10006e74:	4b2f      	ldr	r3, [pc, #188]	; (10006f34 <tud_rhport_init+0xf0>)
10006e76:	601c      	str	r4, [r3, #0]
10006e78:	4c2f      	ldr	r4, [pc, #188]	; (10006f38 <tud_rhport_init+0xf4>)
10006e7a:	f104 0014 	add.w	r0, r4, #20
10006e7e:	f7fc fb1b 	bl	100034b8 <critical_section_init>
10006e82:	4620      	mov	r0, r4
10006e84:	f001 fdee 	bl	10008a64 <tu_fifo_clear>
10006e88:	4b2c      	ldr	r3, [pc, #176]	; (10006f3c <tud_rhport_init+0xf8>)
10006e8a:	601c      	str	r4, [r3, #0]
10006e8c:	4b2c      	ldr	r3, [pc, #176]	; (10006f40 <tud_rhport_init+0xfc>)
10006e8e:	b123      	cbz	r3, 10006e9a <tud_rhport_init+0x56>
10006e90:	482c      	ldr	r0, [pc, #176]	; (10006f44 <tud_rhport_init+0x100>)
10006e92:	f7ff fac3 	bl	1000641c <usbd_app_driver_get_cb>
10006e96:	4b2c      	ldr	r3, [pc, #176]	; (10006f48 <tud_rhport_init+0x104>)
10006e98:	6018      	str	r0, [r3, #0]
10006e9a:	2400      	movs	r4, #0
10006e9c:	4e29      	ldr	r6, [pc, #164]	; (10006f44 <tud_rhport_init+0x100>)
10006e9e:	4623      	mov	r3, r4
10006ea0:	7832      	ldrb	r2, [r6, #0]
10006ea2:	f8df a0ac 	ldr.w	sl, [pc, #172]	; 10006f50 <tud_rhport_init+0x10c>
10006ea6:	f8df 90a0 	ldr.w	r9, [pc, #160]	; 10006f48 <tud_rhport_init+0x104>
10006eaa:	e00e      	b.n	10006eca <tud_rhport_init+0x86>
10006eac:	f8d9 3000 	ldr.w	r3, [r9]
10006eb0:	eb13 1344 	adds.w	r3, r3, r4, lsl #5
10006eb4:	d011      	beq.n	10006eda <tud_rhport_init+0x96>
10006eb6:	685b      	ldr	r3, [r3, #4]
10006eb8:	b17b      	cbz	r3, 10006eda <tud_rhport_init+0x96>
10006eba:	4798      	blx	r3
10006ebc:	7832      	ldrb	r2, [r6, #0]
10006ebe:	3401      	adds	r4, #1
10006ec0:	b2e4      	uxtb	r4, r4
10006ec2:	1c51      	adds	r1, r2, #1
10006ec4:	42a1      	cmp	r1, r4
10006ec6:	4623      	mov	r3, r4
10006ec8:	db20      	blt.n	10006f0c <tud_rhport_init+0xc8>
10006eca:	42a2      	cmp	r2, r4
10006ecc:	d8ee      	bhi.n	10006eac <tud_rhport_init+0x68>
10006ece:	1a9b      	subs	r3, r3, r2
10006ed0:	eb0a 1343 	add.w	r3, sl, r3, lsl #5
10006ed4:	685b      	ldr	r3, [r3, #4]
10006ed6:	2b00      	cmp	r3, #0
10006ed8:	d1ef      	bne.n	10006eba <tud_rhport_init+0x76>
10006eda:	f04f 23e0 	mov.w	r3, #3758153728	; 0xe000e000
10006ede:	f8d3 3df0 	ldr.w	r3, [r3, #3568]	; 0xdf0
10006ee2:	07da      	lsls	r2, r3, #31
10006ee4:	d500      	bpl.n	10006ee8 <tud_rhport_init+0xa4>
10006ee6:	be00      	bkpt	0x0000
10006ee8:	2500      	movs	r5, #0
10006eea:	4628      	mov	r0, r5
10006eec:	e8bd 87f0 	ldmia.w	sp!, {r4, r5, r6, r7, r8, r9, sl, pc}
10006ef0:	2501      	movs	r5, #1
10006ef2:	4628      	mov	r0, r5
10006ef4:	e8bd 87f0 	ldmia.w	sp!, {r4, r5, r6, r7, r8, r9, sl, pc}
10006ef8:	f04f 23e0 	mov.w	r3, #3758153728	; 0xe000e000
10006efc:	f8d3 3df0 	ldr.w	r3, [r3, #3568]	; 0xdf0
10006f00:	07db      	lsls	r3, r3, #31
10006f02:	d5f1      	bpl.n	10006ee8 <tud_rhport_init+0xa4>
10006f04:	be00      	bkpt	0x0000
10006f06:	4628      	mov	r0, r5
10006f08:	e8bd 87f0 	ldmia.w	sp!, {r4, r5, r6, r7, r8, r9, sl, pc}
10006f0c:	4629      	mov	r1, r5
10006f0e:	4638      	mov	r0, r7
10006f10:	f888 7000 	strb.w	r7, [r8]
10006f14:	f7ff fdac 	bl	10006a70 <dcd_init>
10006f18:	4605      	mov	r5, r0
10006f1a:	2800      	cmp	r0, #0
10006f1c:	d0ec      	beq.n	10006ef8 <tud_rhport_init+0xb4>
10006f1e:	4638      	mov	r0, r7
10006f20:	f7ff fdf0 	bl	10006b04 <dcd_int_enable>
10006f24:	e7e5      	b.n	10006ef2 <tud_rhport_init+0xae>
10006f26:	bf00      	nop
10006f28:	20002774 	.word	0x20002774
10006f2c:	2000276c 	.word	0x2000276c
10006f30:	20003032 	.word	0x20003032
10006f34:	200027c8 	.word	0x200027c8
10006f38:	20001218 	.word	0x20001218
10006f3c:	200027cc 	.word	0x200027cc
10006f40:	1000641d 	.word	0x1000641d
10006f44:	20003030 	.word	0x20003030
10006f48:	200025a4 	.word	0x200025a4
10006f4c:	20001234 	.word	0x20001234
10006f50:	100094a8 	.word	0x100094a8

10006f54 <tud_task_ext>:
10006f54:	e92d 4ff0 	stmdb	sp!, {r4, r5, r6, r7, r8, r9, sl, fp, lr}
10006f58:	f8df 92cc 	ldr.w	r9, [pc, #716]	; 10007228 <tud_task_ext+0x2d4>
10006f5c:	b08b      	sub	sp, #44	; 0x2c
10006f5e:	f899 3000 	ldrb.w	r3, [r9]
10006f62:	2bff      	cmp	r3, #255	; 0xff
10006f64:	f000 80ef 	beq.w	10007146 <tud_task_ext+0x1f2>
10006f68:	4caa      	ldr	r4, [pc, #680]	; (10007214 <tud_task_ext+0x2c0>)
10006f6a:	f8df a2c0 	ldr.w	sl, [pc, #704]	; 1000722c <tud_task_ext+0x2d8>
10006f6e:	f8df b2c0 	ldr.w	fp, [pc, #704]	; 10007230 <tud_task_ext+0x2dc>
10006f72:	6825      	ldr	r5, [r4, #0]
10006f74:	696b      	ldr	r3, [r5, #20]
10006f76:	f3ef 8210 	mrs	r2, PRIMASK
10006f7a:	b672      	cpsid	i
10006f7c:	e8d3 0fcf 	ldaexb	r0, [r3]
10006f80:	2101      	movs	r1, #1
10006f82:	2800      	cmp	r0, #0
10006f84:	d1fa      	bne.n	10006f7c <tud_task_ext+0x28>
10006f86:	e8c3 1f40 	strexb	r0, r1, [r3]
10006f8a:	2800      	cmp	r0, #0
10006f8c:	d1f6      	bne.n	10006f7c <tud_task_ext+0x28>
10006f8e:	f3bf 8f5f 	dmb	sy
10006f92:	61aa      	str	r2, [r5, #24]
10006f94:	4628      	mov	r0, r5
10006f96:	a907      	add	r1, sp, #28
10006f98:	f001 fbc0 	bl	1000871c <tu_fifo_read>
10006f9c:	2300      	movs	r3, #0
10006f9e:	696a      	ldr	r2, [r5, #20]
10006fa0:	e8c2 3f8f 	stlb	r3, [r2]
10006fa4:	69ab      	ldr	r3, [r5, #24]
10006fa6:	f383 8810 	msr	PRIMASK, r3
10006faa:	2800      	cmp	r0, #0
10006fac:	f000 80cb 	beq.w	10007146 <tud_task_ext+0x1f2>
10006fb0:	f89d 301d 	ldrb.w	r3, [sp, #29]
10006fb4:	3b01      	subs	r3, #1
10006fb6:	2b07      	cmp	r3, #7
10006fb8:	f200 838e 	bhi.w	100076d8 <tud_task_ext+0x784>
10006fbc:	e8df f003 	tbb	[pc, r3]
10006fc0:	9a91b0a5 	.word	0x9a91b0a5
10006fc4:	040a3689 	.word	0x040a3689
10006fc8:	9b08      	ldr	r3, [sp, #32]
10006fca:	2b00      	cmp	r3, #0
10006fcc:	d0d1      	beq.n	10006f72 <tud_task_ext+0x1e>
10006fce:	9809      	ldr	r0, [sp, #36]	; 0x24
10006fd0:	4798      	blx	r3
10006fd2:	e7ce      	b.n	10006f72 <tud_task_ext+0x1e>
10006fd4:	f89d 1020 	ldrb.w	r1, [sp, #32]
10006fd8:	4b8f      	ldr	r3, [pc, #572]	; (10007218 <tud_task_ext+0x2c4>)
10006fda:	f001 057f 	and.w	r5, r1, #127	; 0x7f
10006fde:	eb03 0345 	add.w	r3, r3, r5, lsl #1
10006fe2:	eb03 13d1 	add.w	r3, r3, r1, lsr #7
10006fe6:	f893 2034 	ldrb.w	r2, [r3, #52]	; 0x34
10006fea:	f36f 0200 	bfc	r2, #0, #1
10006fee:	f883 2034 	strb.w	r2, [r3, #52]	; 0x34
10006ff2:	f893 2034 	ldrb.w	r2, [r3, #52]	; 0x34
10006ff6:	f36f 0282 	bfc	r2, #2, #1
10006ffa:	f883 2034 	strb.w	r2, [r3, #52]	; 0x34
10006ffe:	2d00      	cmp	r5, #0
10007000:	f000 80a4 	beq.w	1000714c <tud_task_ext+0x1f8>
10007004:	4a85      	ldr	r2, [pc, #532]	; (1000721c <tud_task_ext+0x2c8>)
10007006:	7d1b      	ldrb	r3, [r3, #20]
10007008:	7812      	ldrb	r2, [r2, #0]
1000700a:	4293      	cmp	r3, r2
1000700c:	f080 8091 	bcs.w	10007132 <tud_task_ext+0x1de>
10007010:	f8db 2000 	ldr.w	r2, [fp]
10007014:	eb12 1343 	adds.w	r3, r2, r3, lsl #5
10007018:	f000 808e 	beq.w	10007138 <tud_task_ext+0x1e4>
1000701c:	699d      	ldr	r5, [r3, #24]
1000701e:	f89d 2021 	ldrb.w	r2, [sp, #33]	; 0x21
10007022:	9b09      	ldr	r3, [sp, #36]	; 0x24
10007024:	f89d 001c 	ldrb.w	r0, [sp, #28]
10007028:	47a8      	blx	r5
1000702a:	e7a2      	b.n	10006f72 <tud_task_ext+0x1e>
1000702c:	4a7c      	ldr	r2, [pc, #496]	; (10007220 <tud_task_ext+0x2cc>)
1000702e:	7813      	ldrb	r3, [r2, #0]
10007030:	2b00      	cmp	r3, #0
10007032:	f000 8081 	beq.w	10007138 <tud_task_ext+0x1e4>
10007036:	7813      	ldrb	r3, [r2, #0]
10007038:	3b01      	subs	r3, #1
1000703a:	b2db      	uxtb	r3, r3
1000703c:	7013      	strb	r3, [r2, #0]
1000703e:	7813      	ldrb	r3, [r2, #0]
10007040:	f003 00ff 	and.w	r0, r3, #255	; 0xff
10007044:	2b00      	cmp	r3, #0
10007046:	d194      	bne.n	10006f72 <tud_task_ext+0x1e>
10007048:	4d73      	ldr	r5, [pc, #460]	; (10007218 <tud_task_ext+0x2c4>)
1000704a:	f89d 801c 	ldrb.w	r8, [sp, #28]
1000704e:	782b      	ldrb	r3, [r5, #0]
10007050:	f043 0301 	orr.w	r3, r3, #1
10007054:	702b      	strb	r3, [r5, #0]
10007056:	f895 3034 	ldrb.w	r3, [r5, #52]	; 0x34
1000705a:	f360 0300 	bfi	r3, r0, #0, #1
1000705e:	f885 3034 	strb.w	r3, [r5, #52]	; 0x34
10007062:	f895 3034 	ldrb.w	r3, [r5, #52]	; 0x34
10007066:	f360 0382 	bfi	r3, r0, #2, #1
1000706a:	f885 3034 	strb.w	r3, [r5, #52]	; 0x34
1000706e:	f895 3035 	ldrb.w	r3, [r5, #53]	; 0x35
10007072:	f360 0300 	bfi	r3, r0, #0, #1
10007076:	f885 3035 	strb.w	r3, [r5, #53]	; 0x35
1000707a:	f895 3035 	ldrb.w	r3, [r5, #53]	; 0x35
1000707e:	f360 0382 	bfi	r3, r0, #2, #1
10007082:	f885 3035 	strb.w	r3, [r5, #53]	; 0x35
10007086:	f000 fc8d 	bl	100079a4 <usbd_control_set_complete_callback>
1000708a:	f89d 3020 	ldrb.w	r3, [sp, #32]
1000708e:	f003 0260 	and.w	r2, r3, #96	; 0x60
10007092:	2a60      	cmp	r2, #96	; 0x60
10007094:	d00b      	beq.n	100070ae <tud_task_ext+0x15a>
10007096:	2a40      	cmp	r2, #64	; 0x40
10007098:	d064      	beq.n	10007164 <tud_task_ext+0x210>
1000709a:	f003 031f 	and.w	r3, r3, #31
1000709e:	2b01      	cmp	r3, #1
100070a0:	f000 80c8 	beq.w	10007234 <tud_task_ext+0x2e0>
100070a4:	2b02      	cmp	r3, #2
100070a6:	f000 8089 	beq.w	100071bc <tud_task_ext+0x268>
100070aa:	2b00      	cmp	r3, #0
100070ac:	d066      	beq.n	1000717c <tud_task_ext+0x228>
100070ae:	f04f 23e0 	mov.w	r3, #3758153728	; 0xe000e000
100070b2:	f8d3 3df0 	ldr.w	r3, [r3, #3568]	; 0xdf0
100070b6:	07dd      	lsls	r5, r3, #31
100070b8:	d500      	bpl.n	100070bc <tud_task_ext+0x168>
100070ba:	be00      	bkpt	0x0000
100070bc:	f89d 001c 	ldrb.w	r0, [sp, #28]
100070c0:	2100      	movs	r1, #0
100070c2:	f7ff fde5 	bl	10006c90 <dcd_edpt_stall>
100070c6:	2180      	movs	r1, #128	; 0x80
100070c8:	f89d 001c 	ldrb.w	r0, [sp, #28]
100070cc:	f7ff fde0 	bl	10006c90 <dcd_edpt_stall>
100070d0:	e74f      	b.n	10006f72 <tud_task_ext+0x1e>
100070d2:	4b51      	ldr	r3, [pc, #324]	; (10007218 <tud_task_ext+0x2c4>)
100070d4:	781b      	ldrb	r3, [r3, #0]
100070d6:	07d9      	lsls	r1, r3, #31
100070d8:	f57f af4b 	bpl.w	10006f72 <tud_task_ext+0x1e>
100070dc:	f7ff fea0 	bl	10006e20 <tud_resume_cb>
100070e0:	e747      	b.n	10006f72 <tud_task_ext+0x1e>
100070e2:	4b4d      	ldr	r3, [pc, #308]	; (10007218 <tud_task_ext+0x2c4>)
100070e4:	78db      	ldrb	r3, [r3, #3]
100070e6:	07da      	lsls	r2, r3, #31
100070e8:	f57f af43 	bpl.w	10006f72 <tud_task_ext+0x1e>
100070ec:	9808      	ldr	r0, [sp, #32]
100070ee:	f7ff fe8b 	bl	10006e08 <tud_sof_cb>
100070f2:	e73e      	b.n	10006f72 <tud_task_ext+0x1e>
100070f4:	4b48      	ldr	r3, [pc, #288]	; (10007218 <tud_task_ext+0x2c4>)
100070f6:	781a      	ldrb	r2, [r3, #0]
100070f8:	07d0      	lsls	r0, r2, #31
100070fa:	f57f af3a 	bpl.w	10006f72 <tud_task_ext+0x1e>
100070fe:	7818      	ldrb	r0, [r3, #0]
10007100:	f3c0 00c0 	ubfx	r0, r0, #3, #1
10007104:	f7ff fe8a 	bl	10006e1c <tud_suspend_cb>
10007108:	e733      	b.n	10006f72 <tud_task_ext+0x1e>
1000710a:	f89d 001c 	ldrb.w	r0, [sp, #28]
1000710e:	f7ff fe33 	bl	10006d78 <configuration_reset>
10007112:	f000 fc3d 	bl	10007990 <usbd_control_reset>
10007116:	4b40      	ldr	r3, [pc, #256]	; (10007218 <tud_task_ext+0x2c4>)
10007118:	f89d 2020 	ldrb.w	r2, [sp, #32]
1000711c:	709a      	strb	r2, [r3, #2]
1000711e:	e728      	b.n	10006f72 <tud_task_ext+0x1e>
10007120:	f89d 001c 	ldrb.w	r0, [sp, #28]
10007124:	f7ff fe28 	bl	10006d78 <configuration_reset>
10007128:	f000 fc32 	bl	10007990 <usbd_control_reset>
1000712c:	f7ff fe74 	bl	10006e18 <tud_umount_cb>
10007130:	e71f      	b.n	10006f72 <tud_task_ext+0x1e>
10007132:	1c50      	adds	r0, r2, #1
10007134:	4298      	cmp	r0, r3
10007136:	da11      	bge.n	1000715c <tud_task_ext+0x208>
10007138:	f04f 23e0 	mov.w	r3, #3758153728	; 0xe000e000
1000713c:	f8d3 3df0 	ldr.w	r3, [r3, #3568]	; 0xdf0
10007140:	07dc      	lsls	r4, r3, #31
10007142:	d500      	bpl.n	10007146 <tud_task_ext+0x1f2>
10007144:	be00      	bkpt	0x0000
10007146:	b00b      	add	sp, #44	; 0x2c
10007148:	e8bd 8ff0 	ldmia.w	sp!, {r4, r5, r6, r7, r8, r9, sl, fp, pc}
1000714c:	9b09      	ldr	r3, [sp, #36]	; 0x24
1000714e:	f89d 2021 	ldrb.w	r2, [sp, #33]	; 0x21
10007152:	f89d 001c 	ldrb.w	r0, [sp, #28]
10007156:	f000 fc39 	bl	100079cc <usbd_control_xfer_cb>
1000715a:	e70a      	b.n	10006f72 <tud_task_ext+0x1e>
1000715c:	1a9b      	subs	r3, r3, r2
1000715e:	eb0a 1343 	add.w	r3, sl, r3, lsl #5
10007162:	e75b      	b.n	1000701c <tud_task_ext+0xc8>
10007164:	482f      	ldr	r0, [pc, #188]	; (10007224 <tud_task_ext+0x2d0>)
10007166:	f000 fc1d 	bl	100079a4 <usbd_control_set_complete_callback>
1000716a:	4640      	mov	r0, r8
1000716c:	2101      	movs	r1, #1
1000716e:	aa08      	add	r2, sp, #32
10007170:	f7ff f940 	bl	100063f4 <tud_vendor_control_xfer_cb>
10007174:	2800      	cmp	r0, #0
10007176:	f47f aefc 	bne.w	10006f72 <tud_task_ext+0x1e>
1000717a:	e79f      	b.n	100070bc <tud_task_ext+0x168>
1000717c:	2a20      	cmp	r2, #32
1000717e:	f000 818d 	beq.w	1000749c <tud_task_ext+0x548>
10007182:	2a00      	cmp	r2, #0
10007184:	d193      	bne.n	100070ae <tud_task_ext+0x15a>
10007186:	f89d 3021 	ldrb.w	r3, [sp, #33]	; 0x21
1000718a:	2b09      	cmp	r3, #9
1000718c:	d88f      	bhi.n	100070ae <tud_task_ext+0x15a>
1000718e:	a201      	add	r2, pc, #4	; (adr r2, 10007194 <tud_task_ext+0x240>)
10007190:	f852 f023 	ldr.w	pc, [r2, r3, lsl #2]
10007194:	1000743b 	.word	0x1000743b
10007198:	1000741f 	.word	0x1000741f
1000719c:	100070af 	.word	0x100070af
100071a0:	1000745d 	.word	0x1000745d
100071a4:	100070af 	.word	0x100070af
100071a8:	10007405 	.word	0x10007405
100071ac:	100073b3 	.word	0x100073b3
100071b0:	100070af 	.word	0x100070af
100071b4:	1000739d 	.word	0x1000739d
100071b8:	100072c3 	.word	0x100072c3
100071bc:	f89d 1024 	ldrb.w	r1, [sp, #36]	; 0x24
100071c0:	f011 0f70 	tst.w	r1, #112	; 0x70
100071c4:	f47f af73 	bne.w	100070ae <tud_task_ext+0x15a>
100071c8:	4b14      	ldr	r3, [pc, #80]	; (1000721c <tud_task_ext+0x2c8>)
100071ca:	f001 067f 	and.w	r6, r1, #127	; 0x7f
100071ce:	7818      	ldrb	r0, [r3, #0]
100071d0:	eb05 0346 	add.w	r3, r5, r6, lsl #1
100071d4:	eb03 13d1 	add.w	r3, r3, r1, lsr #7
100071d8:	7d1f      	ldrb	r7, [r3, #20]
100071da:	09cb      	lsrs	r3, r1, #7
100071dc:	4287      	cmp	r7, r0
100071de:	ea4f 0646 	mov.w	r6, r6, lsl #1
100071e2:	9301      	str	r3, [sp, #4]
100071e4:	d35b      	bcc.n	1000729e <tud_task_ext+0x34a>
100071e6:	1c43      	adds	r3, r0, #1
100071e8:	42bb      	cmp	r3, r7
100071ea:	f2c0 8174 	blt.w	100074d6 <tud_task_ext+0x582>
100071ee:	1a3f      	subs	r7, r7, r0
100071f0:	eb0a 1747 	add.w	r7, sl, r7, lsl #5
100071f4:	2a00      	cmp	r2, #0
100071f6:	f000 8172 	beq.w	100074de <tud_task_ext+0x58a>
100071fa:	6978      	ldr	r0, [r7, #20]
100071fc:	f000 fbd2 	bl	100079a4 <usbd_control_set_complete_callback>
10007200:	4640      	mov	r0, r8
10007202:	2101      	movs	r1, #1
10007204:	697b      	ldr	r3, [r7, #20]
10007206:	aa08      	add	r2, sp, #32
10007208:	4798      	blx	r3
1000720a:	2800      	cmp	r0, #0
1000720c:	f47f aeb1 	bne.w	10006f72 <tud_task_ext+0x1e>
10007210:	e754      	b.n	100070bc <tud_task_ext+0x168>
10007212:	bf00      	nop
10007214:	200027cc 	.word	0x200027cc
10007218:	20002774 	.word	0x20002774
1000721c:	20003030 	.word	0x20003030
10007220:	20003032 	.word	0x20003032
10007224:	100063f5 	.word	0x100063f5
10007228:	20001234 	.word	0x20001234
1000722c:	100094a8 	.word	0x100094a8
10007230:	200025a4 	.word	0x200025a4
10007234:	f89d 3024 	ldrb.w	r3, [sp, #36]	; 0x24
10007238:	2b0f      	cmp	r3, #15
1000723a:	f63f af3f 	bhi.w	100070bc <tud_task_ext+0x168>
1000723e:	4ab5      	ldr	r2, [pc, #724]	; (10007514 <tud_task_ext+0x5c0>)
10007240:	442b      	add	r3, r5
10007242:	791b      	ldrb	r3, [r3, #4]
10007244:	7815      	ldrb	r5, [r2, #0]
10007246:	42ab      	cmp	r3, r5
10007248:	d334      	bcc.n	100072b4 <tud_task_ext+0x360>
1000724a:	1c6a      	adds	r2, r5, #1
1000724c:	429a      	cmp	r2, r3
1000724e:	f6ff af35 	blt.w	100070bc <tud_task_ext+0x168>
10007252:	1b5b      	subs	r3, r3, r5
10007254:	eb0a 1543 	add.w	r5, sl, r3, lsl #5
10007258:	6968      	ldr	r0, [r5, #20]
1000725a:	f000 fba3 	bl	100079a4 <usbd_control_set_complete_callback>
1000725e:	2101      	movs	r1, #1
10007260:	4640      	mov	r0, r8
10007262:	696b      	ldr	r3, [r5, #20]
10007264:	aa08      	add	r2, sp, #32
10007266:	4798      	blx	r3
10007268:	2800      	cmp	r0, #0
1000726a:	f47f ae82 	bne.w	10006f72 <tud_task_ext+0x1e>
1000726e:	f89d 3020 	ldrb.w	r3, [sp, #32]
10007272:	f013 0560 	ands.w	r5, r3, #96	; 0x60
10007276:	f47f af21 	bne.w	100070bc <tud_task_ext+0x168>
1000727a:	f89d 3021 	ldrb.w	r3, [sp, #33]	; 0x21
1000727e:	3b0a      	subs	r3, #10
10007280:	2b01      	cmp	r3, #1
10007282:	f63f af1b 	bhi.w	100070bc <tud_task_ext+0x168>
10007286:	f000 fb8d 	bl	100079a4 <usbd_control_set_complete_callback>
1000728a:	f89d 3021 	ldrb.w	r3, [sp, #33]	; 0x21
1000728e:	2b0a      	cmp	r3, #10
10007290:	f000 81f7 	beq.w	10007682 <tud_task_ext+0x72e>
10007294:	4640      	mov	r0, r8
10007296:	a908      	add	r1, sp, #32
10007298:	f000 fafa 	bl	10007890 <tud_control_status>
1000729c:	e669      	b.n	10006f72 <tud_task_ext+0x1e>
1000729e:	f8db 3000 	ldr.w	r3, [fp]
100072a2:	eb03 1747 	add.w	r7, r3, r7, lsl #5
100072a6:	2a00      	cmp	r2, #0
100072a8:	f000 8119 	beq.w	100074de <tud_task_ext+0x58a>
100072ac:	2f00      	cmp	r7, #0
100072ae:	f43f af05 	beq.w	100070bc <tud_task_ext+0x168>
100072b2:	e7a2      	b.n	100071fa <tud_task_ext+0x2a6>
100072b4:	f8db 5000 	ldr.w	r5, [fp]
100072b8:	eb15 1543 	adds.w	r5, r5, r3, lsl #5
100072bc:	f43f aefe 	beq.w	100070bc <tud_task_ext+0x168>
100072c0:	e7ca      	b.n	10007258 <tud_task_ext+0x304>
100072c2:	786b      	ldrb	r3, [r5, #1]
100072c4:	f89d 6022 	ldrb.w	r6, [sp, #34]	; 0x22
100072c8:	429e      	cmp	r6, r3
100072ca:	f000 8154 	beq.w	10007576 <tud_task_ext+0x622>
100072ce:	786b      	ldrb	r3, [r5, #1]
100072d0:	2b00      	cmp	r3, #0
100072d2:	f040 81c4 	bne.w	1000765e <tud_task_ext+0x70a>
100072d6:	706e      	strb	r6, [r5, #1]
100072d8:	2e00      	cmp	r6, #0
100072da:	f000 814a 	beq.w	10007572 <tud_task_ext+0x61e>
100072de:	1e70      	subs	r0, r6, #1
100072e0:	b2c0      	uxtb	r0, r0
100072e2:	f7ff faad 	bl	10006840 <tud_descriptor_configuration_cb>
100072e6:	2800      	cmp	r0, #0
100072e8:	f000 8165 	beq.w	100075b6 <tud_task_ext+0x662>
100072ec:	7843      	ldrb	r3, [r0, #1]
100072ee:	2b02      	cmp	r3, #2
100072f0:	f040 8161 	bne.w	100075b6 <tud_task_ext+0x662>
100072f4:	782b      	ldrb	r3, [r5, #0]
100072f6:	79c2      	ldrb	r2, [r0, #7]
100072f8:	f023 0130 	bic.w	r1, r3, #48	; 0x30
100072fc:	f3c2 1340 	ubfx	r3, r2, #5, #1
10007300:	011b      	lsls	r3, r3, #4
10007302:	f3c2 1280 	ubfx	r2, r2, #6, #1
10007306:	ea43 1342 	orr.w	r3, r3, r2, lsl #5
1000730a:	430b      	orrs	r3, r1
1000730c:	702b      	strb	r3, [r5, #0]
1000730e:	8843      	ldrh	r3, [r0, #2]
10007310:	f100 0609 	add.w	r6, r0, #9
10007314:	18c3      	adds	r3, r0, r3
10007316:	9302      	str	r3, [sp, #8]
10007318:	f8cd 800c 	str.w	r8, [sp, #12]
1000731c:	9b02      	ldr	r3, [sp, #8]
1000731e:	42b3      	cmp	r3, r6
10007320:	f240 81aa 	bls.w	10007678 <tud_task_ext+0x724>
10007324:	7872      	ldrb	r2, [r6, #1]
10007326:	2a0b      	cmp	r2, #11
10007328:	f000 81b5 	beq.w	10007696 <tud_task_ext+0x742>
1000732c:	2301      	movs	r3, #1
1000732e:	2a04      	cmp	r2, #4
10007330:	f040 8141 	bne.w	100075b6 <tud_task_ext+0x662>
10007334:	4618      	mov	r0, r3
10007336:	f04f 0800 	mov.w	r8, #0
1000733a:	9a02      	ldr	r2, [sp, #8]
1000733c:	4975      	ldr	r1, [pc, #468]	; (10007514 <tud_task_ext+0x5c0>)
1000733e:	1b92      	subs	r2, r2, r6
10007340:	4633      	mov	r3, r6
10007342:	7809      	ldrb	r1, [r1, #0]
10007344:	4606      	mov	r6, r0
10007346:	b292      	uxth	r2, r2
10007348:	f8cd 8004 	str.w	r8, [sp, #4]
1000734c:	e01e      	b.n	1000738c <tud_task_ext+0x438>
1000734e:	f8db 7000 	ldr.w	r7, [fp]
10007352:	eb17 1748 	adds.w	r7, r7, r8, lsl #5
10007356:	f000 812e 	beq.w	100075b6 <tud_task_ext+0x662>
1000735a:	4619      	mov	r1, r3
1000735c:	9304      	str	r3, [sp, #16]
1000735e:	9803      	ldr	r0, [sp, #12]
10007360:	693b      	ldr	r3, [r7, #16]
10007362:	9205      	str	r2, [sp, #20]
10007364:	4798      	blx	r3
10007366:	e9dd 3204 	ldrd	r3, r2, [sp, #16]
1000736a:	2808      	cmp	r0, #8
1000736c:	f108 0101 	add.w	r1, r8, #1
10007370:	d902      	bls.n	10007378 <tud_task_ext+0x424>
10007372:	4282      	cmp	r2, r0
10007374:	f080 8104 	bcs.w	10007580 <tud_task_ext+0x62c>
10007378:	fa5f f881 	uxtb.w	r8, r1
1000737c:	4965      	ldr	r1, [pc, #404]	; (10007514 <tud_task_ext+0x5c0>)
1000737e:	f8cd 8004 	str.w	r8, [sp, #4]
10007382:	7809      	ldrb	r1, [r1, #0]
10007384:	1c48      	adds	r0, r1, #1
10007386:	4580      	cmp	r8, r0
10007388:	f300 8115 	bgt.w	100075b6 <tud_task_ext+0x662>
1000738c:	9801      	ldr	r0, [sp, #4]
1000738e:	4588      	cmp	r8, r1
10007390:	eba0 0101 	sub.w	r1, r0, r1
10007394:	d3db      	bcc.n	1000734e <tud_task_ext+0x3fa>
10007396:	eb0a 1741 	add.w	r7, sl, r1, lsl #5
1000739a:	e7de      	b.n	1000735a <tud_task_ext+0x406>
1000739c:	786b      	ldrb	r3, [r5, #1]
1000739e:	4640      	mov	r0, r8
100073a0:	f88d 301a 	strb.w	r3, [sp, #26]
100073a4:	f10d 021a 	add.w	r2, sp, #26
100073a8:	2301      	movs	r3, #1
100073aa:	a908      	add	r1, sp, #32
100073ac:	f000 fa8a 	bl	100078c4 <tud_control_xfer>
100073b0:	e5df      	b.n	10006f72 <tud_task_ext+0x1e>
100073b2:	f8bd 0022 	ldrh.w	r0, [sp, #34]	; 0x22
100073b6:	0a03      	lsrs	r3, r0, #8
100073b8:	1e5a      	subs	r2, r3, #1
100073ba:	b2c0      	uxtb	r0, r0
100073bc:	2a0e      	cmp	r2, #14
100073be:	f63f ae7d 	bhi.w	100070bc <tud_task_ext+0x168>
100073c2:	a101      	add	r1, pc, #4	; (adr r1, 100073c8 <tud_task_ext+0x474>)
100073c4:	f851 f022 	ldr.w	pc, [r1, r2, lsl #2]
100073c8:	100075e7 	.word	0x100075e7
100073cc:	10007479 	.word	0x10007479
100073d0:	10007623 	.word	0x10007623
100073d4:	100070bd 	.word	0x100070bd
100073d8:	100070bd 	.word	0x100070bd
100073dc:	10007605 	.word	0x10007605
100073e0:	10007479 	.word	0x10007479
100073e4:	100070bd 	.word	0x100070bd
100073e8:	100070bd 	.word	0x100070bd
100073ec:	100070bd 	.word	0x100070bd
100073f0:	100070bd 	.word	0x100070bd
100073f4:	100070bd 	.word	0x100070bd
100073f8:	100070bd 	.word	0x100070bd
100073fc:	100070bd 	.word	0x100070bd
10007400:	100075d9 	.word	0x100075d9
10007404:	a808      	add	r0, sp, #32
10007406:	f000 fad3 	bl	100079b0 <usbd_control_set_request>
1000740a:	4640      	mov	r0, r8
1000740c:	f89d 1022 	ldrb.w	r1, [sp, #34]	; 0x22
10007410:	f7ff fb7c 	bl	10006b0c <dcd_set_address>
10007414:	782b      	ldrb	r3, [r5, #0]
10007416:	f043 0302 	orr.w	r3, r3, #2
1000741a:	702b      	strb	r3, [r5, #0]
1000741c:	e5a9      	b.n	10006f72 <tud_task_ext+0x1e>
1000741e:	f8bd 3022 	ldrh.w	r3, [sp, #34]	; 0x22
10007422:	2b01      	cmp	r3, #1
10007424:	f47f ae4a 	bne.w	100070bc <tud_task_ext+0x168>
10007428:	782b      	ldrb	r3, [r5, #0]
1000742a:	4640      	mov	r0, r8
1000742c:	f36f 03c3 	bfc	r3, #3, #1
10007430:	a908      	add	r1, sp, #32
10007432:	702b      	strb	r3, [r5, #0]
10007434:	f000 fa2c 	bl	10007890 <tud_control_status>
10007438:	e59b      	b.n	10006f72 <tud_task_ext+0x1e>
1000743a:	4640      	mov	r0, r8
1000743c:	782b      	ldrb	r3, [r5, #0]
1000743e:	089a      	lsrs	r2, r3, #2
10007440:	f002 0202 	and.w	r2, r2, #2
10007444:	f3c3 1340 	ubfx	r3, r3, #5, #1
10007448:	4313      	orrs	r3, r2
1000744a:	f8ad 301a 	strh.w	r3, [sp, #26]
1000744e:	f10d 021a 	add.w	r2, sp, #26
10007452:	2302      	movs	r3, #2
10007454:	a908      	add	r1, sp, #32
10007456:	f000 fa35 	bl	100078c4 <tud_control_xfer>
1000745a:	e58a      	b.n	10006f72 <tud_task_ext+0x1e>
1000745c:	f8bd 3022 	ldrh.w	r3, [sp, #34]	; 0x22
10007460:	2b01      	cmp	r3, #1
10007462:	f47f ae2b 	bne.w	100070bc <tud_task_ext+0x168>
10007466:	782b      	ldrb	r3, [r5, #0]
10007468:	4640      	mov	r0, r8
1000746a:	f043 0308 	orr.w	r3, r3, #8
1000746e:	a908      	add	r1, sp, #32
10007470:	702b      	strb	r3, [r5, #0]
10007472:	f000 fa0d 	bl	10007890 <tud_control_status>
10007476:	e57c      	b.n	10006f72 <tud_task_ext+0x1e>
10007478:	2b02      	cmp	r3, #2
1000747a:	f000 8111 	beq.w	100076a0 <tud_task_ext+0x74c>
1000747e:	f7ff fcc7 	bl	10006e10 <tud_descriptor_other_speed_configuration_cb>
10007482:	4602      	mov	r2, r0
10007484:	2800      	cmp	r0, #0
10007486:	f43f ae19 	beq.w	100070bc <tud_task_ext+0x168>
1000748a:	4640      	mov	r0, r8
1000748c:	8853      	ldrh	r3, [r2, #2]
1000748e:	a908      	add	r1, sp, #32
10007490:	f000 fa18 	bl	100078c4 <tud_control_xfer>
10007494:	2800      	cmp	r0, #0
10007496:	f47f ad6c 	bne.w	10006f72 <tud_task_ext+0x1e>
1000749a:	e60f      	b.n	100070bc <tud_task_ext+0x168>
1000749c:	f89d 3024 	ldrb.w	r3, [sp, #36]	; 0x24
100074a0:	2b0f      	cmp	r3, #15
100074a2:	f63f ae0b 	bhi.w	100070bc <tud_task_ext+0x168>
100074a6:	4a1b      	ldr	r2, [pc, #108]	; (10007514 <tud_task_ext+0x5c0>)
100074a8:	442b      	add	r3, r5
100074aa:	791b      	ldrb	r3, [r3, #4]
100074ac:	7815      	ldrb	r5, [r2, #0]
100074ae:	42ab      	cmp	r3, r5
100074b0:	d227      	bcs.n	10007502 <tud_task_ext+0x5ae>
100074b2:	f8db 5000 	ldr.w	r5, [fp]
100074b6:	eb15 1543 	adds.w	r5, r5, r3, lsl #5
100074ba:	f43f adff 	beq.w	100070bc <tud_task_ext+0x168>
100074be:	6968      	ldr	r0, [r5, #20]
100074c0:	f000 fa70 	bl	100079a4 <usbd_control_set_complete_callback>
100074c4:	4640      	mov	r0, r8
100074c6:	2101      	movs	r1, #1
100074c8:	696b      	ldr	r3, [r5, #20]
100074ca:	aa08      	add	r2, sp, #32
100074cc:	4798      	blx	r3
100074ce:	2800      	cmp	r0, #0
100074d0:	f47f ad4f 	bne.w	10006f72 <tud_task_ext+0x1e>
100074d4:	e5f2      	b.n	100070bc <tud_task_ext+0x168>
100074d6:	2a00      	cmp	r2, #0
100074d8:	f47f adf0 	bne.w	100070bc <tud_task_ext+0x168>
100074dc:	2700      	movs	r7, #0
100074de:	f89d 2021 	ldrb.w	r2, [sp, #33]	; 0x21
100074e2:	f002 03fd 	and.w	r3, r2, #253	; 0xfd
100074e6:	2b01      	cmp	r3, #1
100074e8:	d016      	beq.n	10007518 <tud_task_ext+0x5c4>
100074ea:	2a00      	cmp	r2, #0
100074ec:	f47f addf 	bne.w	100070ae <tud_task_ext+0x15a>
100074f0:	9b01      	ldr	r3, [sp, #4]
100074f2:	4435      	add	r5, r6
100074f4:	442b      	add	r3, r5
100074f6:	f893 3034 	ldrb.w	r3, [r3, #52]	; 0x34
100074fa:	4640      	mov	r0, r8
100074fc:	f3c3 0340 	ubfx	r3, r3, #1, #1
10007500:	e7a3      	b.n	1000744a <tud_task_ext+0x4f6>
10007502:	1c6a      	adds	r2, r5, #1
10007504:	429a      	cmp	r2, r3
10007506:	f6ff add9 	blt.w	100070bc <tud_task_ext+0x168>
1000750a:	1b5b      	subs	r3, r3, r5
1000750c:	eb0a 1543 	add.w	r5, sl, r3, lsl #5
10007510:	e7d5      	b.n	100074be <tud_task_ext+0x56a>
10007512:	bf00      	nop
10007514:	20003030 	.word	0x20003030
10007518:	f8bd 3022 	ldrh.w	r3, [sp, #34]	; 0x22
1000751c:	b9ab      	cbnz	r3, 1000754a <tud_task_ext+0x5f6>
1000751e:	2a01      	cmp	r2, #1
10007520:	f000 8087 	beq.w	10007632 <tud_task_ext+0x6de>
10007524:	f899 0000 	ldrb.w	r0, [r9]
10007528:	f7ff fbb2 	bl	10006c90 <dcd_edpt_stall>
1000752c:	9a01      	ldr	r2, [sp, #4]
1000752e:	19ab      	adds	r3, r5, r6
10007530:	4413      	add	r3, r2
10007532:	f893 2034 	ldrb.w	r2, [r3, #52]	; 0x34
10007536:	f042 0202 	orr.w	r2, r2, #2
1000753a:	f883 2034 	strb.w	r2, [r3, #52]	; 0x34
1000753e:	f893 2034 	ldrb.w	r2, [r3, #52]	; 0x34
10007542:	f042 0201 	orr.w	r2, r2, #1
10007546:	f883 2034 	strb.w	r2, [r3, #52]	; 0x34
1000754a:	2f00      	cmp	r7, #0
1000754c:	f43f ad11 	beq.w	10006f72 <tud_task_ext+0x1e>
10007550:	6978      	ldr	r0, [r7, #20]
10007552:	f000 fa27 	bl	100079a4 <usbd_control_set_complete_callback>
10007556:	697b      	ldr	r3, [r7, #20]
10007558:	2101      	movs	r1, #1
1000755a:	aa08      	add	r2, sp, #32
1000755c:	4640      	mov	r0, r8
1000755e:	4798      	blx	r3
10007560:	2000      	movs	r0, #0
10007562:	f000 fa1f 	bl	100079a4 <usbd_control_set_complete_callback>
10007566:	f895 3035 	ldrb.w	r3, [r5, #53]	; 0x35
1000756a:	07de      	lsls	r6, r3, #31
1000756c:	f53f ad01 	bmi.w	10006f72 <tud_task_ext+0x1e>
10007570:	e690      	b.n	10007294 <tud_task_ext+0x340>
10007572:	f7ff fc51 	bl	10006e18 <tud_umount_cb>
10007576:	4640      	mov	r0, r8
10007578:	a908      	add	r1, sp, #32
1000757a:	f000 f989 	bl	10007890 <tud_control_status>
1000757e:	e4f8      	b.n	10006f72 <tud_task_ext+0x1e>
10007580:	4632      	mov	r2, r6
10007582:	2a01      	cmp	r2, #1
10007584:	461e      	mov	r6, r3
10007586:	4613      	mov	r3, r2
10007588:	f000 80a0 	beq.w	100076cc <tud_task_ext+0x778>
1000758c:	2a00      	cmp	r2, #0
1000758e:	f000 808e 	beq.w	100076ae <tud_task_ext+0x75a>
10007592:	2200      	movs	r2, #0
10007594:	78b7      	ldrb	r7, [r6, #2]
10007596:	e005      	b.n	100075a4 <tud_task_ext+0x650>
10007598:	f881 8004 	strb.w	r8, [r1, #4]
1000759c:	b2d1      	uxtb	r1, r2
1000759e:	428b      	cmp	r3, r1
100075a0:	f240 8085 	bls.w	100076ae <tud_task_ext+0x75a>
100075a4:	18b9      	adds	r1, r7, r2
100075a6:	fa55 f181 	uxtab	r1, r5, r1
100075aa:	f891 c004 	ldrb.w	ip, [r1, #4]
100075ae:	3201      	adds	r2, #1
100075b0:	f1bc 0fff 	cmp.w	ip, #255	; 0xff
100075b4:	d0f0      	beq.n	10007598 <tud_task_ext+0x644>
100075b6:	f04f 23e0 	mov.w	r3, #3758153728	; 0xe000e000
100075ba:	f8d3 3df0 	ldr.w	r3, [r3, #3568]	; 0xdf0
100075be:	07db      	lsls	r3, r3, #31
100075c0:	d500      	bpl.n	100075c4 <tud_task_ext+0x670>
100075c2:	be00      	bkpt	0x0000
100075c4:	f04f 23e0 	mov.w	r3, #3758153728	; 0xe000e000
100075c8:	f8d3 3df0 	ldr.w	r3, [r3, #3568]	; 0xdf0
100075cc:	07df      	lsls	r7, r3, #31
100075ce:	d500      	bpl.n	100075d2 <tud_task_ext+0x67e>
100075d0:	be00      	bkpt	0x0000
100075d2:	2300      	movs	r3, #0
100075d4:	706b      	strb	r3, [r5, #1]
100075d6:	e571      	b.n	100070bc <tud_task_ext+0x168>
100075d8:	f7fe ff08 	bl	100063ec <tud_descriptor_bos_cb>
100075dc:	4602      	mov	r2, r0
100075de:	2800      	cmp	r0, #0
100075e0:	f47f af53 	bne.w	1000748a <tud_task_ext+0x536>
100075e4:	e56a      	b.n	100070bc <tud_task_ext+0x168>
100075e6:	f7ff f927 	bl	10006838 <tud_descriptor_device_cb>
100075ea:	4602      	mov	r2, r0
100075ec:	2800      	cmp	r0, #0
100075ee:	f43f ad5e 	beq.w	100070ae <tud_task_ext+0x15a>
100075f2:	4640      	mov	r0, r8
100075f4:	2312      	movs	r3, #18
100075f6:	a908      	add	r1, sp, #32
100075f8:	f000 f964 	bl	100078c4 <tud_control_xfer>
100075fc:	2800      	cmp	r0, #0
100075fe:	f47f acb8 	bne.w	10006f72 <tud_task_ext+0x1e>
10007602:	e55b      	b.n	100070bc <tud_task_ext+0x168>
10007604:	f7ff fc02 	bl	10006e0c <tud_descriptor_device_qualifier_cb>
10007608:	4602      	mov	r2, r0
1000760a:	2800      	cmp	r0, #0
1000760c:	f43f ad56 	beq.w	100070bc <tud_task_ext+0x168>
10007610:	4640      	mov	r0, r8
10007612:	7813      	ldrb	r3, [r2, #0]
10007614:	a908      	add	r1, sp, #32
10007616:	f000 f955 	bl	100078c4 <tud_control_xfer>
1000761a:	2800      	cmp	r0, #0
1000761c:	f47f aca9 	bne.w	10006f72 <tud_task_ext+0x1e>
10007620:	e54c      	b.n	100070bc <tud_task_ext+0x168>
10007622:	f8bd 1024 	ldrh.w	r1, [sp, #36]	; 0x24
10007626:	f7ff f90f 	bl	10006848 <tud_descriptor_string_cb>
1000762a:	4602      	mov	r2, r0
1000762c:	2800      	cmp	r0, #0
1000762e:	d1ef      	bne.n	10007610 <tud_task_ext+0x6bc>
10007630:	e544      	b.n	100070bc <tud_task_ext+0x168>
10007632:	f899 0000 	ldrb.w	r0, [r9]
10007636:	9302      	str	r3, [sp, #8]
10007638:	f7ff fb42 	bl	10006cc0 <dcd_edpt_clear_stall>
1000763c:	9b01      	ldr	r3, [sp, #4]
1000763e:	19aa      	adds	r2, r5, r6
10007640:	441a      	add	r2, r3
10007642:	f892 1034 	ldrb.w	r1, [r2, #52]	; 0x34
10007646:	9b02      	ldr	r3, [sp, #8]
10007648:	f363 0141 	bfi	r1, r3, #1, #1
1000764c:	f882 1034 	strb.w	r1, [r2, #52]	; 0x34
10007650:	f892 1034 	ldrb.w	r1, [r2, #52]	; 0x34
10007654:	f363 0100 	bfi	r1, r3, #0, #1
10007658:	f882 1034 	strb.w	r1, [r2, #52]	; 0x34
1000765c:	e775      	b.n	1000754a <tud_task_ext+0x5f6>
1000765e:	2100      	movs	r1, #0
10007660:	4640      	mov	r0, r8
10007662:	f7ff fa5b 	bl	10006b1c <dcd_sof_enable>
10007666:	4640      	mov	r0, r8
10007668:	f7ff fafc 	bl	10006c64 <dcd_edpt_close_all>
1000766c:	78af      	ldrb	r7, [r5, #2]
1000766e:	4640      	mov	r0, r8
10007670:	f7ff fb82 	bl	10006d78 <configuration_reset>
10007674:	70af      	strb	r7, [r5, #2]
10007676:	e62e      	b.n	100072d6 <tud_task_ext+0x382>
10007678:	f8dd 800c 	ldr.w	r8, [sp, #12]
1000767c:	f7ff fbca 	bl	10006e14 <tud_mount_cb>
10007680:	e779      	b.n	10007576 <tud_task_ext+0x622>
10007682:	4640      	mov	r0, r8
10007684:	2301      	movs	r3, #1
10007686:	a908      	add	r1, sp, #32
10007688:	f10d 021a 	add.w	r2, sp, #26
1000768c:	f88d 501a 	strb.w	r5, [sp, #26]
10007690:	f000 f918 	bl	100078c4 <tud_control_xfer>
10007694:	e46d      	b.n	10006f72 <tud_task_ext+0x1e>
10007696:	7832      	ldrb	r2, [r6, #0]
10007698:	78f3      	ldrb	r3, [r6, #3]
1000769a:	4416      	add	r6, r2
1000769c:	7872      	ldrb	r2, [r6, #1]
1000769e:	e646      	b.n	1000732e <tud_task_ext+0x3da>
100076a0:	f7ff f8ce 	bl	10006840 <tud_descriptor_configuration_cb>
100076a4:	4602      	mov	r2, r0
100076a6:	2800      	cmp	r0, #0
100076a8:	f47f aeef 	bne.w	1000748a <tud_task_ext+0x536>
100076ac:	e4ff      	b.n	100070ae <tud_task_ext+0x15a>
100076ae:	4602      	mov	r2, r0
100076b0:	4643      	mov	r3, r8
100076b2:	4631      	mov	r1, r6
100076b4:	4406      	add	r6, r0
100076b6:	480d      	ldr	r0, [pc, #52]	; (100076ec <tud_task_ext+0x798>)
100076b8:	f000 fea0 	bl	100083fc <tu_edpt_bind_driver>
100076bc:	4b0c      	ldr	r3, [pc, #48]	; (100076f0 <tud_task_ext+0x79c>)
100076be:	9a01      	ldr	r2, [sp, #4]
100076c0:	781b      	ldrb	r3, [r3, #0]
100076c2:	3301      	adds	r3, #1
100076c4:	4293      	cmp	r3, r2
100076c6:	f6bf ae29 	bge.w	1000731c <tud_task_ext+0x3c8>
100076ca:	e774      	b.n	100075b6 <tud_task_ext+0x662>
100076cc:	693a      	ldr	r2, [r7, #16]
100076ce:	4909      	ldr	r1, [pc, #36]	; (100076f4 <tud_task_ext+0x7a0>)
100076d0:	428a      	cmp	r2, r1
100076d2:	bf08      	it	eq
100076d4:	2302      	moveq	r3, #2
100076d6:	e75c      	b.n	10007592 <tud_task_ext+0x63e>
100076d8:	f04f 23e0 	mov.w	r3, #3758153728	; 0xe000e000
100076dc:	f8d3 3df0 	ldr.w	r3, [r3, #3568]	; 0xdf0
100076e0:	07db      	lsls	r3, r3, #31
100076e2:	f57f ac46 	bpl.w	10006f72 <tud_task_ext+0x1e>
100076e6:	be00      	bkpt	0x0000
100076e8:	e443      	b.n	10006f72 <tud_task_ext+0x1e>
100076ea:	bf00      	nop
100076ec:	20002788 	.word	0x20002788
100076f0:	20003030 	.word	0x20003030
100076f4:	10007ded 	.word	0x10007ded

100076f8 <usbd_open_edpt_pair>:
100076f8:	e92d 4ff8 	stmdb	sp!, {r3, r4, r5, r6, r7, r8, r9, sl, fp, lr}
100076fc:	9f0a      	ldr	r7, [sp, #40]	; 0x28
100076fe:	2a00      	cmp	r2, #0
10007700:	d040      	beq.n	10007784 <usbd_open_edpt_pair+0x8c>
10007702:	460c      	mov	r4, r1
10007704:	461e      	mov	r6, r3
10007706:	4615      	mov	r5, r2
10007708:	f04f 0a00 	mov.w	sl, #0
1000770c:	f8df 907c 	ldr.w	r9, [pc, #124]	; 1000778c <usbd_open_edpt_pair+0x94>
10007710:	f8df 807c 	ldr.w	r8, [pc, #124]	; 10007790 <usbd_open_edpt_pair+0x98>
10007714:	e018      	b.n	10007748 <usbd_open_edpt_pair+0x50>
10007716:	4620      	mov	r0, r4
10007718:	f898 1002 	ldrb.w	r1, [r8, #2]
1000771c:	f899 b000 	ldrb.w	fp, [r9]
10007720:	f000 fe38 	bl	10008394 <tu_edpt_validate>
10007724:	b1e0      	cbz	r0, 10007760 <usbd_open_edpt_pair+0x68>
10007726:	4621      	mov	r1, r4
10007728:	4658      	mov	r0, fp
1000772a:	f7ff fa13 	bl	10006b54 <dcd_edpt_open>
1000772e:	b1f0      	cbz	r0, 1000776e <usbd_open_edpt_pair+0x76>
10007730:	78a2      	ldrb	r2, [r4, #2]
10007732:	f10a 0a01 	add.w	sl, sl, #1
10007736:	09d3      	lsrs	r3, r2, #7
10007738:	bf16      	itet	ne
1000773a:	9b0b      	ldrne	r3, [sp, #44]	; 0x2c
1000773c:	703a      	strbeq	r2, [r7, #0]
1000773e:	701a      	strbne	r2, [r3, #0]
10007740:	7822      	ldrb	r2, [r4, #0]
10007742:	45aa      	cmp	sl, r5
10007744:	4414      	add	r4, r2
10007746:	d01d      	beq.n	10007784 <usbd_open_edpt_pair+0x8c>
10007748:	7862      	ldrb	r2, [r4, #1]
1000774a:	2a05      	cmp	r2, #5
1000774c:	d10f      	bne.n	1000776e <usbd_open_edpt_pair+0x76>
1000774e:	78e1      	ldrb	r1, [r4, #3]
10007750:	f001 0103 	and.w	r1, r1, #3
10007754:	42b1      	cmp	r1, r6
10007756:	d10a      	bne.n	1000776e <usbd_open_edpt_pair+0x76>
10007758:	78a2      	ldrb	r2, [r4, #2]
1000775a:	f012 0f70 	tst.w	r2, #112	; 0x70
1000775e:	d0da      	beq.n	10007716 <usbd_open_edpt_pair+0x1e>
10007760:	f04f 23e0 	mov.w	r3, #3758153728	; 0xe000e000
10007764:	f8d3 3df0 	ldr.w	r3, [r3, #3568]	; 0xdf0
10007768:	07da      	lsls	r2, r3, #31
1000776a:	d500      	bpl.n	1000776e <usbd_open_edpt_pair+0x76>
1000776c:	be00      	bkpt	0x0000
1000776e:	f04f 23e0 	mov.w	r3, #3758153728	; 0xe000e000
10007772:	f8d3 3df0 	ldr.w	r3, [r3, #3568]	; 0xdf0
10007776:	07db      	lsls	r3, r3, #31
10007778:	d402      	bmi.n	10007780 <usbd_open_edpt_pair+0x88>
1000777a:	2000      	movs	r0, #0
1000777c:	e8bd 8ff8 	ldmia.w	sp!, {r3, r4, r5, r6, r7, r8, r9, sl, fp, pc}
10007780:	be00      	bkpt	0x0000
10007782:	e7fa      	b.n	1000777a <usbd_open_edpt_pair+0x82>
10007784:	2001      	movs	r0, #1
10007786:	e8bd 8ff8 	ldmia.w	sp!, {r3, r4, r5, r6, r7, r8, r9, sl, fp, pc}
1000778a:	bf00      	nop
1000778c:	20001234 	.word	0x20001234
10007790:	20002774 	.word	0x20002774

10007794 <usbd_edpt_open>:
10007794:	b538      	push	{r3, r4, r5, lr}
10007796:	788b      	ldrb	r3, [r1, #2]
10007798:	f013 0f70 	tst.w	r3, #112	; 0x70
1000779c:	d008      	beq.n	100077b0 <usbd_edpt_open+0x1c>
1000779e:	f04f 23e0 	mov.w	r3, #3758153728	; 0xe000e000
100077a2:	f8d3 3df0 	ldr.w	r3, [r3, #3568]	; 0xdf0
100077a6:	07db      	lsls	r3, r3, #31
100077a8:	d500      	bpl.n	100077ac <usbd_edpt_open+0x18>
100077aa:	be00      	bkpt	0x0000
100077ac:	2000      	movs	r0, #0
100077ae:	bd38      	pop	{r3, r4, r5, pc}
100077b0:	4a07      	ldr	r2, [pc, #28]	; (100077d0 <usbd_edpt_open+0x3c>)
100077b2:	4b08      	ldr	r3, [pc, #32]	; (100077d4 <usbd_edpt_open+0x40>)
100077b4:	460c      	mov	r4, r1
100077b6:	4608      	mov	r0, r1
100077b8:	7891      	ldrb	r1, [r2, #2]
100077ba:	781d      	ldrb	r5, [r3, #0]
100077bc:	f000 fdea 	bl	10008394 <tu_edpt_validate>
100077c0:	2800      	cmp	r0, #0
100077c2:	d0ec      	beq.n	1000779e <usbd_edpt_open+0xa>
100077c4:	4621      	mov	r1, r4
100077c6:	4628      	mov	r0, r5
100077c8:	e8bd 4038 	ldmia.w	sp!, {r3, r4, r5, lr}
100077cc:	f7ff b9c2 	b.w	10006b54 <dcd_edpt_open>
100077d0:	20002774 	.word	0x20002774
100077d4:	20001234 	.word	0x20001234

100077d8 <usbd_edpt_claim>:
100077d8:	460b      	mov	r3, r1
100077da:	4a06      	ldr	r2, [pc, #24]	; (100077f4 <usbd_edpt_claim+0x1c>)
100077dc:	4806      	ldr	r0, [pc, #24]	; (100077f8 <usbd_edpt_claim+0x20>)
100077de:	6811      	ldr	r1, [r2, #0]
100077e0:	09da      	lsrs	r2, r3, #7
100077e2:	3234      	adds	r2, #52	; 0x34
100077e4:	f003 037f 	and.w	r3, r3, #127	; 0x7f
100077e8:	eb02 0343 	add.w	r3, r2, r3, lsl #1
100077ec:	4418      	add	r0, r3
100077ee:	f000 bd8b 	b.w	10008308 <tu_edpt_claim>
100077f2:	bf00      	nop
100077f4:	200027c8 	.word	0x200027c8
100077f8:	20002774 	.word	0x20002774

100077fc <usbd_edpt_release>:
100077fc:	460b      	mov	r3, r1
100077fe:	4a06      	ldr	r2, [pc, #24]	; (10007818 <usbd_edpt_release+0x1c>)
10007800:	4806      	ldr	r0, [pc, #24]	; (1000781c <usbd_edpt_release+0x20>)
10007802:	6811      	ldr	r1, [r2, #0]
10007804:	09da      	lsrs	r2, r3, #7
10007806:	3234      	adds	r2, #52	; 0x34
10007808:	f003 037f 	and.w	r3, r3, #127	; 0x7f
1000780c:	eb02 0343 	add.w	r3, r2, r3, lsl #1
10007810:	4418      	add	r0, r3
10007812:	f000 bda3 	b.w	1000835c <tu_edpt_release>
10007816:	bf00      	nop
10007818:	200027c8 	.word	0x200027c8
1000781c:	20002774 	.word	0x20002774

10007820 <usbd_edpt_xfer>:
10007820:	b510      	push	{r4, lr}
10007822:	4c19      	ldr	r4, [pc, #100]	; (10007888 <usbd_edpt_xfer+0x68>)
10007824:	f001 0c7f 	and.w	ip, r1, #127	; 0x7f
10007828:	eb04 044c 	add.w	r4, r4, ip, lsl #1
1000782c:	eb04 10d1 	add.w	r0, r4, r1, lsr #7
10007830:	f890 c034 	ldrb.w	ip, [r0, #52]	; 0x34
10007834:	f01c 0f01 	tst.w	ip, #1
10007838:	d008      	beq.n	1000784c <usbd_edpt_xfer+0x2c>
1000783a:	f04f 23e0 	mov.w	r3, #3758153728	; 0xe000e000
1000783e:	f8d3 3df0 	ldr.w	r3, [r3, #3568]	; 0xdf0
10007842:	07da      	lsls	r2, r3, #31
10007844:	d500      	bpl.n	10007848 <usbd_edpt_xfer+0x28>
10007846:	be00      	bkpt	0x0000
10007848:	2000      	movs	r0, #0
1000784a:	bd10      	pop	{r4, pc}
1000784c:	f890 c034 	ldrb.w	ip, [r0, #52]	; 0x34
10007850:	f100 0430 	add.w	r4, r0, #48	; 0x30
10007854:	480d      	ldr	r0, [pc, #52]	; (1000788c <usbd_edpt_xfer+0x6c>)
10007856:	f04c 0c01 	orr.w	ip, ip, #1
1000785a:	7800      	ldrb	r0, [r0, #0]
1000785c:	f884 c004 	strb.w	ip, [r4, #4]
10007860:	f7ff fa02 	bl	10006c68 <dcd_edpt_xfer>
10007864:	2800      	cmp	r0, #0
10007866:	d1f0      	bne.n	1000784a <usbd_edpt_xfer+0x2a>
10007868:	f04f 22e0 	mov.w	r2, #3758153728	; 0xe000e000
1000786c:	7923      	ldrb	r3, [r4, #4]
1000786e:	f360 0300 	bfi	r3, r0, #0, #1
10007872:	7123      	strb	r3, [r4, #4]
10007874:	7923      	ldrb	r3, [r4, #4]
10007876:	f360 0382 	bfi	r3, r0, #2, #1
1000787a:	7123      	strb	r3, [r4, #4]
1000787c:	f8d2 3df0 	ldr.w	r3, [r2, #3568]	; 0xdf0
10007880:	07db      	lsls	r3, r3, #31
10007882:	d5e1      	bpl.n	10007848 <usbd_edpt_xfer+0x28>
10007884:	be00      	bkpt	0x0000
10007886:	bd10      	pop	{r4, pc}
10007888:	20002774 	.word	0x20002774
1000788c:	20001234 	.word	0x20001234

10007890 <tud_control_status>:
10007890:	b530      	push	{r4, r5, lr}
10007892:	4c0b      	ldr	r4, [pc, #44]	; (100078c0 <tud_control_status+0x30>)
10007894:	468c      	mov	ip, r1
10007896:	46a6      	mov	lr, r4
10007898:	2300      	movs	r3, #0
1000789a:	4605      	mov	r5, r0
1000789c:	6808      	ldr	r0, [r1, #0]
1000789e:	6849      	ldr	r1, [r1, #4]
100078a0:	461a      	mov	r2, r3
100078a2:	e8ae 0003 	stmia.w	lr!, {r0, r1}
100078a6:	f99c 1000 	ldrsb.w	r1, [ip]
100078aa:	4628      	mov	r0, r5
100078ac:	4299      	cmp	r1, r3
100078ae:	e9c4 3302 	strd	r3, r3, [r4, #8]
100078b2:	e8bd 4030 	ldmia.w	sp!, {r4, r5, lr}
100078b6:	bfac      	ite	ge
100078b8:	2180      	movge	r1, #128	; 0x80
100078ba:	4619      	movlt	r1, r3
100078bc:	f7ff bfb0 	b.w	10007820 <usbd_edpt_xfer>
100078c0:	20002734 	.word	0x20002734

100078c4 <tud_control_xfer>:
100078c4:	e92d 41f0 	stmdb	sp!, {r4, r5, r6, r7, r8, lr}
100078c8:	4f2f      	ldr	r7, [pc, #188]	; (10007988 <tud_control_xfer+0xc4>)
100078ca:	f04f 0800 	mov.w	r8, #0
100078ce:	46be      	mov	lr, r7
100078d0:	468c      	mov	ip, r1
100078d2:	4606      	mov	r6, r0
100078d4:	6808      	ldr	r0, [r1, #0]
100078d6:	6849      	ldr	r1, [r1, #4]
100078d8:	60ba      	str	r2, [r7, #8]
100078da:	e8ae 0003 	stmia.w	lr!, {r0, r1}
100078de:	f8a7 800e 	strh.w	r8, [r7, #14]
100078e2:	f8bc 5006 	ldrh.w	r5, [ip, #6]
100078e6:	b082      	sub	sp, #8
100078e8:	42ab      	cmp	r3, r5
100078ea:	bf28      	it	cs
100078ec:	462b      	movcs	r3, r5
100078ee:	81bb      	strh	r3, [r7, #12]
100078f0:	b19d      	cbz	r5, 1000791a <tud_control_xfer+0x56>
100078f2:	b34b      	cbz	r3, 10007948 <tud_control_xfer+0x84>
100078f4:	4614      	mov	r4, r2
100078f6:	b37a      	cbz	r2, 10007958 <tud_control_xfer+0x94>
100078f8:	f997 2000 	ldrsb.w	r2, [r7]
100078fc:	2b40      	cmp	r3, #64	; 0x40
100078fe:	bf28      	it	cs
10007900:	2340      	movcs	r3, #64	; 0x40
10007902:	2a00      	cmp	r2, #0
10007904:	db32      	blt.n	1000796c <tud_control_xfer+0xa8>
10007906:	4641      	mov	r1, r8
10007908:	4a20      	ldr	r2, [pc, #128]	; (1000798c <tud_control_xfer+0xc8>)
1000790a:	4630      	mov	r0, r6
1000790c:	f7ff ff88 	bl	10007820 <usbd_edpt_xfer>
10007910:	b180      	cbz	r0, 10007934 <tud_control_xfer+0x70>
10007912:	2001      	movs	r0, #1
10007914:	b002      	add	sp, #8
10007916:	e8bd 81f0 	ldmia.w	sp!, {r4, r5, r6, r7, r8, pc}
1000791a:	f99c 2000 	ldrsb.w	r2, [ip]
1000791e:	462b      	mov	r3, r5
10007920:	2a00      	cmp	r2, #0
10007922:	bfac      	ite	ge
10007924:	2180      	movge	r1, #128	; 0x80
10007926:	2100      	movlt	r1, #0
10007928:	462a      	mov	r2, r5
1000792a:	4630      	mov	r0, r6
1000792c:	f7ff ff78 	bl	10007820 <usbd_edpt_xfer>
10007930:	2800      	cmp	r0, #0
10007932:	d1ee      	bne.n	10007912 <tud_control_xfer+0x4e>
10007934:	f04f 23e0 	mov.w	r3, #3758153728	; 0xe000e000
10007938:	f8d3 3df0 	ldr.w	r3, [r3, #3568]	; 0xdf0
1000793c:	07db      	lsls	r3, r3, #31
1000793e:	d511      	bpl.n	10007964 <tud_control_xfer+0xa0>
10007940:	be00      	bkpt	0x0000
10007942:	b002      	add	sp, #8
10007944:	e8bd 81f0 	ldmia.w	sp!, {r4, r5, r6, r7, r8, pc}
10007948:	f997 1000 	ldrsb.w	r1, [r7]
1000794c:	461a      	mov	r2, r3
1000794e:	2900      	cmp	r1, #0
10007950:	bfac      	ite	ge
10007952:	4619      	movge	r1, r3
10007954:	2180      	movlt	r1, #128	; 0x80
10007956:	e7d8      	b.n	1000790a <tud_control_xfer+0x46>
10007958:	f04f 23e0 	mov.w	r3, #3758153728	; 0xe000e000
1000795c:	f8d3 3df0 	ldr.w	r3, [r3, #3568]	; 0xdf0
10007960:	07da      	lsls	r2, r3, #31
10007962:	d40d      	bmi.n	10007980 <tud_control_xfer+0xbc>
10007964:	2000      	movs	r0, #0
10007966:	b002      	add	sp, #8
10007968:	e8bd 81f0 	ldmia.w	sp!, {r4, r5, r6, r7, r8, pc}
1000796c:	461a      	mov	r2, r3
1000796e:	4621      	mov	r1, r4
10007970:	4806      	ldr	r0, [pc, #24]	; (1000798c <tud_control_xfer+0xc8>)
10007972:	9301      	str	r3, [sp, #4]
10007974:	f001 f9e6 	bl	10008d44 <memcpy>
10007978:	2180      	movs	r1, #128	; 0x80
1000797a:	4a04      	ldr	r2, [pc, #16]	; (1000798c <tud_control_xfer+0xc8>)
1000797c:	9b01      	ldr	r3, [sp, #4]
1000797e:	e7c4      	b.n	1000790a <tud_control_xfer+0x46>
10007980:	be00      	bkpt	0x0000
10007982:	4620      	mov	r0, r4
10007984:	e7c6      	b.n	10007914 <tud_control_xfer+0x50>
10007986:	bf00      	nop
10007988:	20002734 	.word	0x20002734
1000798c:	200026f4 	.word	0x200026f4

10007990 <usbd_control_reset>:
10007990:	2200      	movs	r2, #0
10007992:	4b03      	ldr	r3, [pc, #12]	; (100079a0 <usbd_control_reset+0x10>)
10007994:	e9c3 2200 	strd	r2, r2, [r3]
10007998:	e9c3 2202 	strd	r2, r2, [r3, #8]
1000799c:	611a      	str	r2, [r3, #16]
1000799e:	4770      	bx	lr
100079a0:	20002734 	.word	0x20002734

100079a4 <usbd_control_set_complete_callback>:
100079a4:	4b01      	ldr	r3, [pc, #4]	; (100079ac <usbd_control_set_complete_callback+0x8>)
100079a6:	6118      	str	r0, [r3, #16]
100079a8:	4770      	bx	lr
100079aa:	bf00      	nop
100079ac:	20002734 	.word	0x20002734

100079b0 <usbd_control_set_request>:
100079b0:	b430      	push	{r4, r5}
100079b2:	4602      	mov	r2, r0
100079b4:	4c04      	ldr	r4, [pc, #16]	; (100079c8 <usbd_control_set_request+0x18>)
100079b6:	2500      	movs	r5, #0
100079b8:	4623      	mov	r3, r4
100079ba:	6800      	ldr	r0, [r0, #0]
100079bc:	6851      	ldr	r1, [r2, #4]
100079be:	e9c4 5502 	strd	r5, r5, [r4, #8]
100079c2:	bc30      	pop	{r4, r5}
100079c4:	c303      	stmia	r3!, {r0, r1}
100079c6:	4770      	bx	lr
100079c8:	20002734 	.word	0x20002734

100079cc <usbd_control_xfer_cb>:
100079cc:	b570      	push	{r4, r5, r6, lr}
100079ce:	4c41      	ldr	r4, [pc, #260]	; (10007ad4 <usbd_control_xfer_cb+0x108>)
100079d0:	09c9      	lsrs	r1, r1, #7
100079d2:	7822      	ldrb	r2, [r4, #0]
100079d4:	4605      	mov	r5, r0
100079d6:	ebb1 1fd2 	cmp.w	r1, r2, lsr #7
100079da:	461e      	mov	r6, r3
100079dc:	b082      	sub	sp, #8
100079de:	d021      	beq.n	10007a24 <usbd_control_xfer_cb+0x58>
100079e0:	b14b      	cbz	r3, 100079f6 <usbd_control_xfer_cb+0x2a>
100079e2:	f04f 23e0 	mov.w	r3, #3758153728	; 0xe000e000
100079e6:	f8d3 3df0 	ldr.w	r3, [r3, #3568]	; 0xdf0
100079ea:	07da      	lsls	r2, r3, #31
100079ec:	d500      	bpl.n	100079f0 <usbd_control_xfer_cb+0x24>
100079ee:	be00      	bkpt	0x0000
100079f0:	2000      	movs	r0, #0
100079f2:	b002      	add	sp, #8
100079f4:	bd70      	pop	{r4, r5, r6, pc}
100079f6:	4621      	mov	r1, r4
100079f8:	f7ff f89e 	bl	10006b38 <dcd_edpt0_status_complete>
100079fc:	6923      	ldr	r3, [r4, #16]
100079fe:	b173      	cbz	r3, 10007a1e <usbd_control_xfer_cb+0x52>
10007a00:	4622      	mov	r2, r4
10007a02:	2103      	movs	r1, #3
10007a04:	4628      	mov	r0, r5
10007a06:	4798      	blx	r3
10007a08:	2001      	movs	r0, #1
10007a0a:	b002      	add	sp, #8
10007a0c:	bd70      	pop	{r4, r5, r6, pc}
10007a0e:	4601      	mov	r1, r0
10007a10:	4628      	mov	r0, r5
10007a12:	f7ff f93d 	bl	10006c90 <dcd_edpt_stall>
10007a16:	2180      	movs	r1, #128	; 0x80
10007a18:	4628      	mov	r0, r5
10007a1a:	f7ff f939 	bl	10006c90 <dcd_edpt_stall>
10007a1e:	2001      	movs	r0, #1
10007a20:	b002      	add	sp, #8
10007a22:	bd70      	pop	{r4, r5, r6, pc}
10007a24:	f994 2000 	ldrsb.w	r2, [r4]
10007a28:	2a00      	cmp	r2, #0
10007a2a:	db06      	blt.n	10007a3a <usbd_control_xfer_cb+0x6e>
10007a2c:	68a0      	ldr	r0, [r4, #8]
10007a2e:	2800      	cmp	r0, #0
10007a30:	d0de      	beq.n	100079f0 <usbd_control_xfer_cb+0x24>
10007a32:	461a      	mov	r2, r3
10007a34:	4928      	ldr	r1, [pc, #160]	; (10007ad8 <usbd_control_xfer_cb+0x10c>)
10007a36:	f001 f985 	bl	10008d44 <memcpy>
10007a3a:	89e0      	ldrh	r0, [r4, #14]
10007a3c:	68a1      	ldr	r1, [r4, #8]
10007a3e:	88e2      	ldrh	r2, [r4, #6]
10007a40:	4430      	add	r0, r6
10007a42:	b280      	uxth	r0, r0
10007a44:	4431      	add	r1, r6
10007a46:	4282      	cmp	r2, r0
10007a48:	81e0      	strh	r0, [r4, #14]
10007a4a:	60a1      	str	r1, [r4, #8]
10007a4c:	d016      	beq.n	10007a7c <usbd_control_xfer_cb+0xb0>
10007a4e:	2e3f      	cmp	r6, #63	; 0x3f
10007a50:	d914      	bls.n	10007a7c <usbd_control_xfer_cb+0xb0>
10007a52:	89a2      	ldrh	r2, [r4, #12]
10007a54:	f994 4000 	ldrsb.w	r4, [r4]
10007a58:	1a13      	subs	r3, r2, r0
10007a5a:	b29b      	uxth	r3, r3
10007a5c:	2b40      	cmp	r3, #64	; 0x40
10007a5e:	bf28      	it	cs
10007a60:	2340      	movcs	r3, #64	; 0x40
10007a62:	2c00      	cmp	r4, #0
10007a64:	db27      	blt.n	10007ab6 <usbd_control_xfer_cb+0xea>
10007a66:	4290      	cmp	r0, r2
10007a68:	f04f 0100 	mov.w	r1, #0
10007a6c:	d02f      	beq.n	10007ace <usbd_control_xfer_cb+0x102>
10007a6e:	4a1a      	ldr	r2, [pc, #104]	; (10007ad8 <usbd_control_xfer_cb+0x10c>)
10007a70:	4628      	mov	r0, r5
10007a72:	f7ff fed5 	bl	10007820 <usbd_edpt_xfer>
10007a76:	2800      	cmp	r0, #0
10007a78:	d1d1      	bne.n	10007a1e <usbd_control_xfer_cb+0x52>
10007a7a:	e014      	b.n	10007aa6 <usbd_control_xfer_cb+0xda>
10007a7c:	6923      	ldr	r3, [r4, #16]
10007a7e:	b12b      	cbz	r3, 10007a8c <usbd_control_xfer_cb+0xc0>
10007a80:	2102      	movs	r1, #2
10007a82:	4628      	mov	r0, r5
10007a84:	4a13      	ldr	r2, [pc, #76]	; (10007ad4 <usbd_control_xfer_cb+0x108>)
10007a86:	4798      	blx	r3
10007a88:	2800      	cmp	r0, #0
10007a8a:	d0c0      	beq.n	10007a0e <usbd_control_xfer_cb+0x42>
10007a8c:	2300      	movs	r3, #0
10007a8e:	f994 2000 	ldrsb.w	r2, [r4]
10007a92:	4628      	mov	r0, r5
10007a94:	429a      	cmp	r2, r3
10007a96:	bfac      	ite	ge
10007a98:	2180      	movge	r1, #128	; 0x80
10007a9a:	4619      	movlt	r1, r3
10007a9c:	461a      	mov	r2, r3
10007a9e:	f7ff febf 	bl	10007820 <usbd_edpt_xfer>
10007aa2:	2800      	cmp	r0, #0
10007aa4:	d1bb      	bne.n	10007a1e <usbd_control_xfer_cb+0x52>
10007aa6:	f04f 23e0 	mov.w	r3, #3758153728	; 0xe000e000
10007aaa:	f8d3 3df0 	ldr.w	r3, [r3, #3568]	; 0xdf0
10007aae:	07db      	lsls	r3, r3, #31
10007ab0:	d59e      	bpl.n	100079f0 <usbd_control_xfer_cb+0x24>
10007ab2:	be00      	bkpt	0x0000
10007ab4:	e79d      	b.n	100079f2 <usbd_control_xfer_cb+0x26>
10007ab6:	4290      	cmp	r0, r2
10007ab8:	d008      	beq.n	10007acc <usbd_control_xfer_cb+0x100>
10007aba:	461a      	mov	r2, r3
10007abc:	4806      	ldr	r0, [pc, #24]	; (10007ad8 <usbd_control_xfer_cb+0x10c>)
10007abe:	9301      	str	r3, [sp, #4]
10007ac0:	f001 f940 	bl	10008d44 <memcpy>
10007ac4:	2180      	movs	r1, #128	; 0x80
10007ac6:	4a04      	ldr	r2, [pc, #16]	; (10007ad8 <usbd_control_xfer_cb+0x10c>)
10007ac8:	9b01      	ldr	r3, [sp, #4]
10007aca:	e7d1      	b.n	10007a70 <usbd_control_xfer_cb+0xa4>
10007acc:	2180      	movs	r1, #128	; 0x80
10007ace:	2200      	movs	r2, #0
10007ad0:	e7ce      	b.n	10007a70 <usbd_control_xfer_cb+0xa4>
10007ad2:	bf00      	nop
10007ad4:	20002734 	.word	0x20002734
10007ad8:	200026f4 	.word	0x200026f4

10007adc <_prep_out_transaction.isra.0>:
10007adc:	e92d 41f0 	stmdb	sp!, {r4, r5, r6, r7, r8, lr}
10007ae0:	4604      	mov	r4, r0
10007ae2:	f7ff f99f 	bl	10006e24 <tud_mounted>
10007ae6:	b908      	cbnz	r0, 10007aec <_prep_out_transaction.isra.0+0x10>
10007ae8:	e8bd 81f0 	ldmia.w	sp!, {r4, r5, r6, r7, r8, pc}
10007aec:	f7ff f9a2 	bl	10006e34 <tud_suspended>
10007af0:	4607      	mov	r7, r0
10007af2:	2800      	cmp	r0, #0
10007af4:	d1f8      	bne.n	10007ae8 <_prep_out_transaction.isra.0+0xc>
10007af6:	25c8      	movs	r5, #200	; 0xc8
10007af8:	4b14      	ldr	r3, [pc, #80]	; (10007b4c <_prep_out_transaction.isra.0+0x70>)
10007afa:	fb05 3604 	mla	r6, r5, r4, r3
10007afe:	78f2      	ldrb	r2, [r6, #3]
10007b00:	2a00      	cmp	r2, #0
10007b02:	d0f1      	beq.n	10007ae8 <_prep_out_transaction.isra.0+0xc>
10007b04:	fb05 3304 	mla	r3, r5, r4, r3
10007b08:	f103 0510 	add.w	r5, r3, #16
10007b0c:	4628      	mov	r0, r5
10007b0e:	f000 fdf3 	bl	100086f8 <tu_fifo_remaining>
10007b12:	283f      	cmp	r0, #63	; 0x3f
10007b14:	d9e8      	bls.n	10007ae8 <_prep_out_transaction.isra.0+0xc>
10007b16:	4638      	mov	r0, r7
10007b18:	78f1      	ldrb	r1, [r6, #3]
10007b1a:	f7ff fe5d 	bl	100077d8 <usbd_edpt_claim>
10007b1e:	2800      	cmp	r0, #0
10007b20:	d0e2      	beq.n	10007ae8 <_prep_out_transaction.isra.0+0xc>
10007b22:	4628      	mov	r0, r5
10007b24:	f000 fde8 	bl	100086f8 <tu_fifo_remaining>
10007b28:	283f      	cmp	r0, #63	; 0x3f
10007b2a:	d909      	bls.n	10007b40 <_prep_out_transaction.isra.0+0x64>
10007b2c:	4a08      	ldr	r2, [pc, #32]	; (10007b50 <_prep_out_transaction.isra.0+0x74>)
10007b2e:	4638      	mov	r0, r7
10007b30:	78f1      	ldrb	r1, [r6, #3]
10007b32:	eb02 12c4 	add.w	r2, r2, r4, lsl #7
10007b36:	2340      	movs	r3, #64	; 0x40
10007b38:	e8bd 41f0 	ldmia.w	sp!, {r4, r5, r6, r7, r8, lr}
10007b3c:	f7ff be70 	b.w	10007820 <usbd_edpt_xfer>
10007b40:	4638      	mov	r0, r7
10007b42:	78f1      	ldrb	r1, [r6, #3]
10007b44:	e8bd 41f0 	ldmia.w	sp!, {r4, r5, r6, r7, r8, lr}
10007b48:	f7ff be58 	b.w	100077fc <usbd_edpt_release>
10007b4c:	2000262c 	.word	0x2000262c
10007b50:	200025a8 	.word	0x200025a8

10007b54 <tud_cdc_n_connected>:
10007b54:	b510      	push	{r4, lr}
10007b56:	4604      	mov	r4, r0
10007b58:	f7ff f964 	bl	10006e24 <tud_mounted>
10007b5c:	b908      	cbnz	r0, 10007b62 <tud_cdc_n_connected+0xe>
10007b5e:	2000      	movs	r0, #0
10007b60:	bd10      	pop	{r4, pc}
10007b62:	f7ff f967 	bl	10006e34 <tud_suspended>
10007b66:	2800      	cmp	r0, #0
10007b68:	d1f9      	bne.n	10007b5e <tud_cdc_n_connected+0xa>
10007b6a:	23c8      	movs	r3, #200	; 0xc8
10007b6c:	4803      	ldr	r0, [pc, #12]	; (10007b7c <tud_cdc_n_connected+0x28>)
10007b6e:	fb03 0004 	mla	r0, r3, r4, r0
10007b72:	7900      	ldrb	r0, [r0, #4]
10007b74:	f000 0001 	and.w	r0, r0, #1
10007b78:	bd10      	pop	{r4, pc}
10007b7a:	bf00      	nop
10007b7c:	2000262c 	.word	0x2000262c

10007b80 <tud_cdc_n_available>:
10007b80:	22c8      	movs	r2, #200	; 0xc8
10007b82:	b508      	push	{r3, lr}
10007b84:	4b03      	ldr	r3, [pc, #12]	; (10007b94 <tud_cdc_n_available+0x14>)
10007b86:	fb02 3000 	mla	r0, r2, r0, r3
10007b8a:	3010      	adds	r0, #16
10007b8c:	f000 fd9a 	bl	100086c4 <tu_fifo_count>
10007b90:	bd08      	pop	{r3, pc}
10007b92:	bf00      	nop
10007b94:	2000262c 	.word	0x2000262c

10007b98 <tud_cdc_n_read>:
10007b98:	e92d 43f8 	stmdb	sp!, {r3, r4, r5, r6, r7, r8, r9, lr}
10007b9c:	f64f 74fe 	movw	r4, #65534	; 0xfffe
10007ba0:	f64f 73ff 	movw	r3, #65535	; 0xffff
10007ba4:	f04f 08c8 	mov.w	r8, #200	; 0xc8
10007ba8:	42a2      	cmp	r2, r4
10007baa:	bf98      	it	ls
10007bac:	4613      	movls	r3, r2
10007bae:	4e1c      	ldr	r6, [pc, #112]	; (10007c20 <tud_cdc_n_read+0x88>)
10007bb0:	4604      	mov	r4, r0
10007bb2:	fb08 6500 	mla	r5, r8, r0, r6
10007bb6:	3510      	adds	r5, #16
10007bb8:	4628      	mov	r0, r5
10007bba:	b29a      	uxth	r2, r3
10007bbc:	f000 fdf8 	bl	100087b0 <tu_fifo_read_n>
10007bc0:	4607      	mov	r7, r0
10007bc2:	f7ff f92f 	bl	10006e24 <tud_mounted>
10007bc6:	b910      	cbnz	r0, 10007bce <tud_cdc_n_read+0x36>
10007bc8:	4638      	mov	r0, r7
10007bca:	e8bd 83f8 	ldmia.w	sp!, {r3, r4, r5, r6, r7, r8, r9, pc}
10007bce:	f7ff f931 	bl	10006e34 <tud_suspended>
10007bd2:	4681      	mov	r9, r0
10007bd4:	2800      	cmp	r0, #0
10007bd6:	d1f7      	bne.n	10007bc8 <tud_cdc_n_read+0x30>
10007bd8:	fb08 6604 	mla	r6, r8, r4, r6
10007bdc:	78f3      	ldrb	r3, [r6, #3]
10007bde:	2b00      	cmp	r3, #0
10007be0:	d0f2      	beq.n	10007bc8 <tud_cdc_n_read+0x30>
10007be2:	4628      	mov	r0, r5
10007be4:	f000 fd88 	bl	100086f8 <tu_fifo_remaining>
10007be8:	283f      	cmp	r0, #63	; 0x3f
10007bea:	d9ed      	bls.n	10007bc8 <tud_cdc_n_read+0x30>
10007bec:	4648      	mov	r0, r9
10007bee:	78f1      	ldrb	r1, [r6, #3]
10007bf0:	f7ff fdf2 	bl	100077d8 <usbd_edpt_claim>
10007bf4:	2800      	cmp	r0, #0
10007bf6:	d0e7      	beq.n	10007bc8 <tud_cdc_n_read+0x30>
10007bf8:	4628      	mov	r0, r5
10007bfa:	f000 fd7d 	bl	100086f8 <tu_fifo_remaining>
10007bfe:	283f      	cmp	r0, #63	; 0x3f
10007c00:	d908      	bls.n	10007c14 <tud_cdc_n_read+0x7c>
10007c02:	4a08      	ldr	r2, [pc, #32]	; (10007c24 <tud_cdc_n_read+0x8c>)
10007c04:	4648      	mov	r0, r9
10007c06:	2340      	movs	r3, #64	; 0x40
10007c08:	78f1      	ldrb	r1, [r6, #3]
10007c0a:	eb02 12c4 	add.w	r2, r2, r4, lsl #7
10007c0e:	f7ff fe07 	bl	10007820 <usbd_edpt_xfer>
10007c12:	e7d9      	b.n	10007bc8 <tud_cdc_n_read+0x30>
10007c14:	4648      	mov	r0, r9
10007c16:	78f1      	ldrb	r1, [r6, #3]
10007c18:	f7ff fdf0 	bl	100077fc <usbd_edpt_release>
10007c1c:	e7d4      	b.n	10007bc8 <tud_cdc_n_read+0x30>
10007c1e:	bf00      	nop
10007c20:	2000262c 	.word	0x2000262c
10007c24:	200025a8 	.word	0x200025a8

10007c28 <tud_cdc_n_write_flush>:
10007c28:	e92d 41f0 	stmdb	sp!, {r4, r5, r6, r7, r8, lr}
10007c2c:	4605      	mov	r5, r0
10007c2e:	f7ff f8f9 	bl	10006e24 <tud_mounted>
10007c32:	b910      	cbnz	r0, 10007c3a <tud_cdc_n_write_flush+0x12>
10007c34:	2000      	movs	r0, #0
10007c36:	e8bd 81f0 	ldmia.w	sp!, {r4, r5, r6, r7, r8, pc}
10007c3a:	f7ff f8fb 	bl	10006e34 <tud_suspended>
10007c3e:	4607      	mov	r7, r0
10007c40:	2800      	cmp	r0, #0
10007c42:	d1f7      	bne.n	10007c34 <tud_cdc_n_write_flush+0xc>
10007c44:	f04f 08c8 	mov.w	r8, #200	; 0xc8
10007c48:	4e17      	ldr	r6, [pc, #92]	; (10007ca8 <tud_cdc_n_write_flush+0x80>)
10007c4a:	fb08 6405 	mla	r4, r8, r5, r6
10007c4e:	3424      	adds	r4, #36	; 0x24
10007c50:	4620      	mov	r0, r4
10007c52:	f000 fd37 	bl	100086c4 <tu_fifo_count>
10007c56:	2800      	cmp	r0, #0
10007c58:	d0ec      	beq.n	10007c34 <tud_cdc_n_write_flush+0xc>
10007c5a:	fb08 6605 	mla	r6, r8, r5, r6
10007c5e:	4638      	mov	r0, r7
10007c60:	78b1      	ldrb	r1, [r6, #2]
10007c62:	f7ff fdb9 	bl	100077d8 <usbd_edpt_claim>
10007c66:	2800      	cmp	r0, #0
10007c68:	d0e4      	beq.n	10007c34 <tud_cdc_n_write_flush+0xc>
10007c6a:	2240      	movs	r2, #64	; 0x40
10007c6c:	490f      	ldr	r1, [pc, #60]	; (10007cac <tud_cdc_n_write_flush+0x84>)
10007c6e:	eb02 15c5 	add.w	r5, r2, r5, lsl #7
10007c72:	440d      	add	r5, r1
10007c74:	4620      	mov	r0, r4
10007c76:	4629      	mov	r1, r5
10007c78:	f000 fd9a 	bl	100087b0 <tu_fifo_read_n>
10007c7c:	4604      	mov	r4, r0
10007c7e:	b170      	cbz	r0, 10007c9e <tud_cdc_n_write_flush+0x76>
10007c80:	4603      	mov	r3, r0
10007c82:	462a      	mov	r2, r5
10007c84:	4638      	mov	r0, r7
10007c86:	78b1      	ldrb	r1, [r6, #2]
10007c88:	f7ff fdca 	bl	10007820 <usbd_edpt_xfer>
10007c8c:	b950      	cbnz	r0, 10007ca4 <tud_cdc_n_write_flush+0x7c>
10007c8e:	f04f 23e0 	mov.w	r3, #3758153728	; 0xe000e000
10007c92:	f8d3 3df0 	ldr.w	r3, [r3, #3568]	; 0xdf0
10007c96:	07db      	lsls	r3, r3, #31
10007c98:	d5cc      	bpl.n	10007c34 <tud_cdc_n_write_flush+0xc>
10007c9a:	be00      	bkpt	0x0000
10007c9c:	e7cb      	b.n	10007c36 <tud_cdc_n_write_flush+0xe>
10007c9e:	78b1      	ldrb	r1, [r6, #2]
10007ca0:	f7ff fdac 	bl	100077fc <usbd_edpt_release>
10007ca4:	4620      	mov	r0, r4
10007ca6:	e7c6      	b.n	10007c36 <tud_cdc_n_write_flush+0xe>
10007ca8:	2000262c 	.word	0x2000262c
10007cac:	200025a8 	.word	0x200025a8

10007cb0 <tud_cdc_n_write>:
10007cb0:	b538      	push	{r3, r4, r5, lr}
10007cb2:	f64f 75fe 	movw	r5, #65534	; 0xfffe
10007cb6:	f64f 73ff 	movw	r3, #65535	; 0xffff
10007cba:	f04f 0cc8 	mov.w	ip, #200	; 0xc8
10007cbe:	42aa      	cmp	r2, r5
10007cc0:	bf98      	it	ls
10007cc2:	4613      	movls	r3, r2
10007cc4:	4c0b      	ldr	r4, [pc, #44]	; (10007cf4 <tud_cdc_n_write+0x44>)
10007cc6:	b29a      	uxth	r2, r3
10007cc8:	fb0c 4400 	mla	r4, ip, r0, r4
10007ccc:	3424      	adds	r4, #36	; 0x24
10007cce:	4605      	mov	r5, r0
10007cd0:	4620      	mov	r0, r4
10007cd2:	f000 fe19 	bl	10008908 <tu_fifo_write_n>
10007cd6:	4603      	mov	r3, r0
10007cd8:	4620      	mov	r0, r4
10007cda:	461c      	mov	r4, r3
10007cdc:	f000 fcf2 	bl	100086c4 <tu_fifo_count>
10007ce0:	283f      	cmp	r0, #63	; 0x3f
10007ce2:	d801      	bhi.n	10007ce8 <tud_cdc_n_write+0x38>
10007ce4:	4620      	mov	r0, r4
10007ce6:	bd38      	pop	{r3, r4, r5, pc}
10007ce8:	4628      	mov	r0, r5
10007cea:	f7ff ff9d 	bl	10007c28 <tud_cdc_n_write_flush>
10007cee:	4620      	mov	r0, r4
10007cf0:	bd38      	pop	{r3, r4, r5, pc}
10007cf2:	bf00      	nop
10007cf4:	2000262c 	.word	0x2000262c

10007cf8 <tud_cdc_n_write_available>:
10007cf8:	22c8      	movs	r2, #200	; 0xc8
10007cfa:	b508      	push	{r3, lr}
10007cfc:	4b03      	ldr	r3, [pc, #12]	; (10007d0c <tud_cdc_n_write_available+0x14>)
10007cfe:	fb02 3000 	mla	r0, r2, r0, r3
10007d02:	3024      	adds	r0, #36	; 0x24
10007d04:	f000 fcf8 	bl	100086f8 <tu_fifo_remaining>
10007d08:	bd08      	pop	{r3, pc}
10007d0a:	bf00      	nop
10007d0c:	2000262c 	.word	0x2000262c

10007d10 <cdcd_init>:
10007d10:	b5f0      	push	{r4, r5, r6, r7, lr}
10007d12:	2500      	movs	r5, #0
10007d14:	4c18      	ldr	r4, [pc, #96]	; (10007d78 <cdcd_init+0x68>)
10007d16:	b083      	sub	sp, #12
10007d18:	4629      	mov	r1, r5
10007d1a:	22c8      	movs	r2, #200	; 0xc8
10007d1c:	4620      	mov	r0, r4
10007d1e:	f001 f887 	bl	10008e30 <memset>
10007d22:	23ff      	movs	r3, #255	; 0xff
10007d24:	f44f 31e1 	mov.w	r1, #115200	; 0x1c200
10007d28:	2208      	movs	r2, #8
10007d2a:	4814      	ldr	r0, [pc, #80]	; (10007d7c <cdcd_init+0x6c>)
10007d2c:	7163      	strb	r3, [r4, #5]
10007d2e:	7005      	strb	r5, [r0, #0]
10007d30:	60a1      	str	r1, [r4, #8]
10007d32:	73a2      	strb	r2, [r4, #14]
10007d34:	f104 0138 	add.w	r1, r4, #56	; 0x38
10007d38:	2301      	movs	r3, #1
10007d3a:	2240      	movs	r2, #64	; 0x40
10007d3c:	9500      	str	r5, [sp, #0]
10007d3e:	f104 0010 	add.w	r0, r4, #16
10007d42:	f000 fc8d 	bl	10008660 <tu_fifo_config>
10007d46:	2301      	movs	r3, #1
10007d48:	2240      	movs	r2, #64	; 0x40
10007d4a:	f104 0178 	add.w	r1, r4, #120	; 0x78
10007d4e:	9300      	str	r3, [sp, #0]
10007d50:	f104 07b8 	add.w	r7, r4, #184	; 0xb8
10007d54:	f104 0024 	add.w	r0, r4, #36	; 0x24
10007d58:	f000 fc82 	bl	10008660 <tu_fifo_config>
10007d5c:	f104 06c0 	add.w	r6, r4, #192	; 0xc0
10007d60:	4638      	mov	r0, r7
10007d62:	f7fb fb9b 	bl	1000349c <mutex_init>
10007d66:	4630      	mov	r0, r6
10007d68:	f7fb fb98 	bl	1000349c <mutex_init>
10007d6c:	e9c4 5707 	strd	r5, r7, [r4, #28]
10007d70:	e9c4 650c 	strd	r6, r5, [r4, #48]	; 0x30
10007d74:	b003      	add	sp, #12
10007d76:	bdf0      	pop	{r4, r5, r6, r7, pc}
10007d78:	2000262c 	.word	0x2000262c
10007d7c:	20002628 	.word	0x20002628

10007d80 <cdcd_deinit>:
10007d80:	4b06      	ldr	r3, [pc, #24]	; (10007d9c <cdcd_deinit+0x1c>)
10007d82:	6a1a      	ldr	r2, [r3, #32]
10007d84:	6b19      	ldr	r1, [r3, #48]	; 0x30
10007d86:	b112      	cbz	r2, 10007d8e <cdcd_deinit+0xe>
10007d88:	2200      	movs	r2, #0
10007d8a:	e9c3 2207 	strd	r2, r2, [r3, #28]
10007d8e:	b111      	cbz	r1, 10007d96 <cdcd_deinit+0x16>
10007d90:	2200      	movs	r2, #0
10007d92:	e9c3 220c 	strd	r2, r2, [r3, #48]	; 0x30
10007d96:	2001      	movs	r0, #1
10007d98:	4770      	bx	lr
10007d9a:	bf00      	nop
10007d9c:	2000262c 	.word	0x2000262c

10007da0 <cdcd_reset>:
10007da0:	2200      	movs	r2, #0
10007da2:	b510      	push	{r4, lr}
10007da4:	4c0e      	ldr	r4, [pc, #56]	; (10007de0 <cdcd_reset+0x40>)
10007da6:	480f      	ldr	r0, [pc, #60]	; (10007de4 <cdcd_reset+0x44>)
10007da8:	7823      	ldrb	r3, [r4, #0]
10007daa:	6002      	str	r2, [r0, #0]
10007dac:	7102      	strb	r2, [r0, #4]
10007dae:	07da      	lsls	r2, r3, #31
10007db0:	d507      	bpl.n	10007dc2 <cdcd_reset+0x22>
10007db2:	079b      	lsls	r3, r3, #30
10007db4:	d50b      	bpl.n	10007dce <cdcd_reset+0x2e>
10007db6:	e8bd 4010 	ldmia.w	sp!, {r4, lr}
10007dba:	2101      	movs	r1, #1
10007dbc:	480a      	ldr	r0, [pc, #40]	; (10007de8 <cdcd_reset+0x48>)
10007dbe:	f000 be6d 	b.w	10008a9c <tu_fifo_set_overwritable>
10007dc2:	3010      	adds	r0, #16
10007dc4:	f000 fe4e 	bl	10008a64 <tu_fifo_clear>
10007dc8:	7823      	ldrb	r3, [r4, #0]
10007dca:	079b      	lsls	r3, r3, #30
10007dcc:	d4f3      	bmi.n	10007db6 <cdcd_reset+0x16>
10007dce:	4806      	ldr	r0, [pc, #24]	; (10007de8 <cdcd_reset+0x48>)
10007dd0:	f000 fe48 	bl	10008a64 <tu_fifo_clear>
10007dd4:	e8bd 4010 	ldmia.w	sp!, {r4, lr}
10007dd8:	2101      	movs	r1, #1
10007dda:	4803      	ldr	r0, [pc, #12]	; (10007de8 <cdcd_reset+0x48>)
10007ddc:	f000 be5e 	b.w	10008a9c <tu_fifo_set_overwritable>
10007de0:	20002628 	.word	0x20002628
10007de4:	2000262c 	.word	0x2000262c
10007de8:	20002650 	.word	0x20002650

10007dec <cdcd_open>:
10007dec:	b5f0      	push	{r4, r5, r6, r7, lr}
10007dee:	794b      	ldrb	r3, [r1, #5]
10007df0:	b083      	sub	sp, #12
10007df2:	2b02      	cmp	r3, #2
10007df4:	d102      	bne.n	10007dfc <cdcd_open+0x10>
10007df6:	798b      	ldrb	r3, [r1, #6]
10007df8:	2b02      	cmp	r3, #2
10007dfa:	d003      	beq.n	10007e04 <cdcd_open+0x18>
10007dfc:	2500      	movs	r5, #0
10007dfe:	4628      	mov	r0, r5
10007e00:	b003      	add	sp, #12
10007e02:	bdf0      	pop	{r4, r5, r6, r7, pc}
10007e04:	4f26      	ldr	r7, [pc, #152]	; (10007ea0 <cdcd_open+0xb4>)
10007e06:	78bb      	ldrb	r3, [r7, #2]
10007e08:	b13b      	cbz	r3, 10007e1a <cdcd_open+0x2e>
10007e0a:	f04f 23e0 	mov.w	r3, #3758153728	; 0xe000e000
10007e0e:	f8d3 3df0 	ldr.w	r3, [r3, #3568]	; 0xdf0
10007e12:	07db      	lsls	r3, r3, #31
10007e14:	d5f2      	bpl.n	10007dfc <cdcd_open+0x10>
10007e16:	be00      	bkpt	0x0000
10007e18:	e7f0      	b.n	10007dfc <cdcd_open+0x10>
10007e1a:	788b      	ldrb	r3, [r1, #2]
10007e1c:	4606      	mov	r6, r0
10007e1e:	703b      	strb	r3, [r7, #0]
10007e20:	780c      	ldrb	r4, [r1, #0]
10007e22:	2509      	movs	r5, #9
10007e24:	440c      	add	r4, r1
10007e26:	7861      	ldrb	r1, [r4, #1]
10007e28:	2924      	cmp	r1, #36	; 0x24
10007e2a:	d10b      	bne.n	10007e44 <cdcd_open+0x58>
10007e2c:	2a08      	cmp	r2, #8
10007e2e:	d802      	bhi.n	10007e36 <cdcd_open+0x4a>
10007e30:	e00f      	b.n	10007e52 <cdcd_open+0x66>
10007e32:	42aa      	cmp	r2, r5
10007e34:	d30d      	bcc.n	10007e52 <cdcd_open+0x66>
10007e36:	7823      	ldrb	r3, [r4, #0]
10007e38:	441c      	add	r4, r3
10007e3a:	7861      	ldrb	r1, [r4, #1]
10007e3c:	442b      	add	r3, r5
10007e3e:	2924      	cmp	r1, #36	; 0x24
10007e40:	b29d      	uxth	r5, r3
10007e42:	d0f6      	beq.n	10007e32 <cdcd_open+0x46>
10007e44:	2905      	cmp	r1, #5
10007e46:	d00a      	beq.n	10007e5e <cdcd_open+0x72>
10007e48:	2904      	cmp	r1, #4
10007e4a:	d102      	bne.n	10007e52 <cdcd_open+0x66>
10007e4c:	7963      	ldrb	r3, [r4, #5]
10007e4e:	2b0a      	cmp	r3, #10
10007e50:	d013      	beq.n	10007e7a <cdcd_open+0x8e>
10007e52:	2000      	movs	r0, #0
10007e54:	f7ff fe42 	bl	10007adc <_prep_out_transaction.isra.0>
10007e58:	4628      	mov	r0, r5
10007e5a:	b003      	add	sp, #12
10007e5c:	bdf0      	pop	{r4, r5, r6, r7, pc}
10007e5e:	4621      	mov	r1, r4
10007e60:	4630      	mov	r0, r6
10007e62:	f7ff fc97 	bl	10007794 <usbd_edpt_open>
10007e66:	2800      	cmp	r0, #0
10007e68:	d0cf      	beq.n	10007e0a <cdcd_open+0x1e>
10007e6a:	78a3      	ldrb	r3, [r4, #2]
10007e6c:	707b      	strb	r3, [r7, #1]
10007e6e:	7823      	ldrb	r3, [r4, #0]
10007e70:	441c      	add	r4, r3
10007e72:	442b      	add	r3, r5
10007e74:	7861      	ldrb	r1, [r4, #1]
10007e76:	b29d      	uxth	r5, r3
10007e78:	e7e6      	b.n	10007e48 <cdcd_open+0x5c>
10007e7a:	4b0a      	ldr	r3, [pc, #40]	; (10007ea4 <cdcd_open+0xb8>)
10007e7c:	7827      	ldrb	r7, [r4, #0]
10007e7e:	9301      	str	r3, [sp, #4]
10007e80:	3301      	adds	r3, #1
10007e82:	9300      	str	r3, [sp, #0]
10007e84:	2302      	movs	r3, #2
10007e86:	4630      	mov	r0, r6
10007e88:	461a      	mov	r2, r3
10007e8a:	19e1      	adds	r1, r4, r7
10007e8c:	f7ff fc34 	bl	100076f8 <usbd_open_edpt_pair>
10007e90:	2800      	cmp	r0, #0
10007e92:	d0ba      	beq.n	10007e0a <cdcd_open+0x1e>
10007e94:	f105 030e 	add.w	r3, r5, #14
10007e98:	fa17 f383 	uxtah	r3, r7, r3
10007e9c:	b29d      	uxth	r5, r3
10007e9e:	e7d8      	b.n	10007e52 <cdcd_open+0x66>
10007ea0:	2000262c 	.word	0x2000262c
10007ea4:	2000262e 	.word	0x2000262e

10007ea8 <cdcd_control_xfer_cb>:
10007ea8:	7813      	ldrb	r3, [r2, #0]
10007eaa:	f003 0360 	and.w	r3, r3, #96	; 0x60
10007eae:	2b20      	cmp	r3, #32
10007eb0:	d108      	bne.n	10007ec4 <cdcd_control_xfer_cb+0x1c>
10007eb2:	b570      	push	{r4, r5, r6, lr}
10007eb4:	4c28      	ldr	r4, [pc, #160]	; (10007f58 <cdcd_control_xfer_cb+0xb0>)
10007eb6:	8893      	ldrh	r3, [r2, #4]
10007eb8:	f894 c000 	ldrb.w	ip, [r4]
10007ebc:	459c      	cmp	ip, r3
10007ebe:	d003      	beq.n	10007ec8 <cdcd_control_xfer_cb+0x20>
10007ec0:	2000      	movs	r0, #0
10007ec2:	bd70      	pop	{r4, r5, r6, pc}
10007ec4:	2000      	movs	r0, #0
10007ec6:	4770      	bx	lr
10007ec8:	7853      	ldrb	r3, [r2, #1]
10007eca:	3b20      	subs	r3, #32
10007ecc:	2b03      	cmp	r3, #3
10007ece:	d8f7      	bhi.n	10007ec0 <cdcd_control_xfer_cb+0x18>
10007ed0:	e8df f003 	tbb	[pc, r3]
10007ed4:	020d2428 	.word	0x020d2428
10007ed8:	2901      	cmp	r1, #1
10007eda:	d030      	beq.n	10007f3e <cdcd_control_xfer_cb+0x96>
10007edc:	2903      	cmp	r1, #3
10007ede:	d11f      	bne.n	10007f20 <cdcd_control_xfer_cb+0x78>
10007ee0:	4b1e      	ldr	r3, [pc, #120]	; (10007f5c <cdcd_control_xfer_cb+0xb4>)
10007ee2:	b1eb      	cbz	r3, 10007f20 <cdcd_control_xfer_cb+0x78>
10007ee4:	2000      	movs	r0, #0
10007ee6:	8851      	ldrh	r1, [r2, #2]
10007ee8:	e000      	b.n	10007eec <cdcd_control_xfer_cb+0x44>
10007eea:	bf00      	nop
10007eec:	e018      	b.n	10007f20 <cdcd_control_xfer_cb+0x78>
10007eee:	2901      	cmp	r1, #1
10007ef0:	d025      	beq.n	10007f3e <cdcd_control_xfer_cb+0x96>
10007ef2:	2903      	cmp	r1, #3
10007ef4:	d114      	bne.n	10007f20 <cdcd_control_xfer_cb+0x78>
10007ef6:	8855      	ldrh	r5, [r2, #2]
10007ef8:	4819      	ldr	r0, [pc, #100]	; (10007f60 <cdcd_control_xfer_cb+0xb8>)
10007efa:	f005 0601 	and.w	r6, r5, #1
10007efe:	f086 0101 	eor.w	r1, r6, #1
10007f02:	7125      	strb	r5, [r4, #4]
10007f04:	f000 fdca 	bl	10008a9c <tu_fifo_set_overwritable>
10007f08:	4b16      	ldr	r3, [pc, #88]	; (10007f64 <cdcd_control_xfer_cb+0xbc>)
10007f0a:	b14b      	cbz	r3, 10007f20 <cdcd_control_xfer_cb+0x78>
10007f0c:	4631      	mov	r1, r6
10007f0e:	2000      	movs	r0, #0
10007f10:	f3c5 0240 	ubfx	r2, r5, #1, #1
10007f14:	e000      	b.n	10007f18 <cdcd_control_xfer_cb+0x70>
10007f16:	bf00      	nop
10007f18:	2001      	movs	r0, #1
10007f1a:	bd70      	pop	{r4, r5, r6, pc}
10007f1c:	2901      	cmp	r1, #1
10007f1e:	d013      	beq.n	10007f48 <cdcd_control_xfer_cb+0xa0>
10007f20:	2001      	movs	r0, #1
10007f22:	bd70      	pop	{r4, r5, r6, pc}
10007f24:	2901      	cmp	r1, #1
10007f26:	d00f      	beq.n	10007f48 <cdcd_control_xfer_cb+0xa0>
10007f28:	2903      	cmp	r1, #3
10007f2a:	d1f9      	bne.n	10007f20 <cdcd_control_xfer_cb+0x78>
10007f2c:	4b0e      	ldr	r3, [pc, #56]	; (10007f68 <cdcd_control_xfer_cb+0xc0>)
10007f2e:	2b00      	cmp	r3, #0
10007f30:	d0f6      	beq.n	10007f20 <cdcd_control_xfer_cb+0x78>
10007f32:	2000      	movs	r0, #0
10007f34:	490d      	ldr	r1, [pc, #52]	; (10007f6c <cdcd_control_xfer_cb+0xc4>)
10007f36:	f7fe fa79 	bl	1000642c <tud_cdc_line_coding_cb>
10007f3a:	2001      	movs	r0, #1
10007f3c:	bd70      	pop	{r4, r5, r6, pc}
10007f3e:	4611      	mov	r1, r2
10007f40:	f7ff fca6 	bl	10007890 <tud_control_status>
10007f44:	2001      	movs	r0, #1
10007f46:	bd70      	pop	{r4, r5, r6, pc}
10007f48:	4611      	mov	r1, r2
10007f4a:	2307      	movs	r3, #7
10007f4c:	4a07      	ldr	r2, [pc, #28]	; (10007f6c <cdcd_control_xfer_cb+0xc4>)
10007f4e:	f7ff fcb9 	bl	100078c4 <tud_control_xfer>
10007f52:	2001      	movs	r0, #1
10007f54:	bd70      	pop	{r4, r5, r6, pc}
10007f56:	bf00      	nop
10007f58:	2000262c 	.word	0x2000262c
10007f5c:	00000000 	.word	0x00000000
10007f60:	20002650 	.word	0x20002650
10007f64:	00000000 	.word	0x00000000
10007f68:	1000642d 	.word	0x1000642d
10007f6c:	20002634 	.word	0x20002634

10007f70 <cdcd_xfer_cb>:
10007f70:	e92d 47f0 	stmdb	sp!, {r4, r5, r6, r7, r8, r9, sl, lr}
10007f74:	4d37      	ldr	r5, [pc, #220]	; (10008054 <cdcd_xfer_cb+0xe4>)
10007f76:	460c      	mov	r4, r1
10007f78:	78ea      	ldrb	r2, [r5, #3]
10007f7a:	4607      	mov	r7, r0
10007f7c:	428a      	cmp	r2, r1
10007f7e:	461e      	mov	r6, r3
10007f80:	d155      	bne.n	1000802e <cdcd_xfer_cb+0xbe>
10007f82:	f8df 80e8 	ldr.w	r8, [pc, #232]	; 1000806c <cdcd_xfer_cb+0xfc>
10007f86:	b29a      	uxth	r2, r3
10007f88:	4641      	mov	r1, r8
10007f8a:	f105 0010 	add.w	r0, r5, #16
10007f8e:	f000 fcbb 	bl	10008908 <tu_fifo_write_n>
10007f92:	4b31      	ldr	r3, [pc, #196]	; (10008058 <cdcd_xfer_cb+0xe8>)
10007f94:	b1c3      	cbz	r3, 10007fc8 <cdcd_xfer_cb+0x58>
10007f96:	796b      	ldrb	r3, [r5, #5]
10007f98:	2bff      	cmp	r3, #255	; 0xff
10007f9a:	d015      	beq.n	10007fc8 <cdcd_xfer_cb+0x58>
10007f9c:	b1a6      	cbz	r6, 10007fc8 <cdcd_xfer_cb+0x58>
10007f9e:	f105 0910 	add.w	r9, r5, #16
10007fa2:	eb08 0a06 	add.w	sl, r8, r6
10007fa6:	e002      	b.n	10007fae <cdcd_xfer_cb+0x3e>
10007fa8:	45d0      	cmp	r8, sl
10007faa:	d00d      	beq.n	10007fc8 <cdcd_xfer_cb+0x58>
10007fac:	796b      	ldrb	r3, [r5, #5]
10007fae:	f818 2b01 	ldrb.w	r2, [r8], #1
10007fb2:	429a      	cmp	r2, r3
10007fb4:	d1f8      	bne.n	10007fa8 <cdcd_xfer_cb+0x38>
10007fb6:	4648      	mov	r0, r9
10007fb8:	f000 fb94 	bl	100086e4 <tu_fifo_empty>
10007fbc:	2800      	cmp	r0, #0
10007fbe:	d1f3      	bne.n	10007fa8 <cdcd_xfer_cb+0x38>
10007fc0:	7969      	ldrb	r1, [r5, #5]
10007fc2:	e000      	b.n	10007fc6 <cdcd_xfer_cb+0x56>
10007fc4:	bf00      	nop
10007fc6:	e7ef      	b.n	10007fa8 <cdcd_xfer_cb+0x38>
10007fc8:	4b24      	ldr	r3, [pc, #144]	; (1000805c <cdcd_xfer_cb+0xec>)
10007fca:	b123      	cbz	r3, 10007fd6 <cdcd_xfer_cb+0x66>
10007fcc:	4824      	ldr	r0, [pc, #144]	; (10008060 <cdcd_xfer_cb+0xf0>)
10007fce:	f000 fb89 	bl	100086e4 <tu_fifo_empty>
10007fd2:	2800      	cmp	r0, #0
10007fd4:	d03a      	beq.n	1000804c <cdcd_xfer_cb+0xdc>
10007fd6:	2000      	movs	r0, #0
10007fd8:	f7ff fd80 	bl	10007adc <_prep_out_transaction.isra.0>
10007fdc:	78ab      	ldrb	r3, [r5, #2]
10007fde:	42a3      	cmp	r3, r4
10007fe0:	d003      	beq.n	10007fea <cdcd_xfer_cb+0x7a>
10007fe2:	2401      	movs	r4, #1
10007fe4:	4620      	mov	r0, r4
10007fe6:	e8bd 87f0 	ldmia.w	sp!, {r4, r5, r6, r7, r8, r9, sl, pc}
10007fea:	4b1e      	ldr	r3, [pc, #120]	; (10008064 <cdcd_xfer_cb+0xf4>)
10007fec:	b113      	cbz	r3, 10007ff4 <cdcd_xfer_cb+0x84>
10007fee:	2000      	movs	r0, #0
10007ff0:	e000      	b.n	10007ff4 <cdcd_xfer_cb+0x84>
10007ff2:	bf00      	nop
10007ff4:	2000      	movs	r0, #0
10007ff6:	f7ff fe17 	bl	10007c28 <tud_cdc_n_write_flush>
10007ffa:	2800      	cmp	r0, #0
10007ffc:	d1f1      	bne.n	10007fe2 <cdcd_xfer_cb+0x72>
10007ffe:	481a      	ldr	r0, [pc, #104]	; (10008068 <cdcd_xfer_cb+0xf8>)
10008000:	f000 fb60 	bl	100086c4 <tu_fifo_count>
10008004:	2800      	cmp	r0, #0
10008006:	d1ec      	bne.n	10007fe2 <cdcd_xfer_cb+0x72>
10008008:	2e00      	cmp	r6, #0
1000800a:	d0ea      	beq.n	10007fe2 <cdcd_xfer_cb+0x72>
1000800c:	f016 063f 	ands.w	r6, r6, #63	; 0x3f
10008010:	d1e7      	bne.n	10007fe2 <cdcd_xfer_cb+0x72>
10008012:	4638      	mov	r0, r7
10008014:	78a9      	ldrb	r1, [r5, #2]
10008016:	f7ff fbdf 	bl	100077d8 <usbd_edpt_claim>
1000801a:	4604      	mov	r4, r0
1000801c:	2800      	cmp	r0, #0
1000801e:	d0e0      	beq.n	10007fe2 <cdcd_xfer_cb+0x72>
10008020:	4633      	mov	r3, r6
10008022:	4632      	mov	r2, r6
10008024:	4638      	mov	r0, r7
10008026:	78a9      	ldrb	r1, [r5, #2]
10008028:	f7ff fbfa 	bl	10007820 <usbd_edpt_xfer>
1000802c:	e7da      	b.n	10007fe4 <cdcd_xfer_cb+0x74>
1000802e:	78ab      	ldrb	r3, [r5, #2]
10008030:	428b      	cmp	r3, r1
10008032:	d0da      	beq.n	10007fea <cdcd_xfer_cb+0x7a>
10008034:	f04f 23e0 	mov.w	r3, #3758153728	; 0xe000e000
10008038:	f8d3 4df0 	ldr.w	r4, [r3, #3568]	; 0xdf0
1000803c:	f014 0401 	ands.w	r4, r4, #1
10008040:	d0d0      	beq.n	10007fe4 <cdcd_xfer_cb+0x74>
10008042:	be00      	bkpt	0x0000
10008044:	2400      	movs	r4, #0
10008046:	4620      	mov	r0, r4
10008048:	e8bd 87f0 	ldmia.w	sp!, {r4, r5, r6, r7, r8, r9, sl, pc}
1000804c:	e000      	b.n	10008050 <cdcd_xfer_cb+0xe0>
1000804e:	bf00      	nop
10008050:	e7c1      	b.n	10007fd6 <cdcd_xfer_cb+0x66>
10008052:	bf00      	nop
10008054:	2000262c 	.word	0x2000262c
	...
10008060:	2000263c 	.word	0x2000263c
10008064:	00000000 	.word	0x00000000
10008068:	20002650 	.word	0x20002650
1000806c:	200025a8 	.word	0x200025a8

10008070 <vendord_init>:
10008070:	b5f0      	push	{r4, r5, r6, r7, lr}
10008072:	4c14      	ldr	r4, [pc, #80]	; (100080c4 <vendord_init+0x54>)
10008074:	b085      	sub	sp, #20
10008076:	f44f 7213 	mov.w	r2, #588	; 0x24c
1000807a:	2100      	movs	r1, #0
1000807c:	4620      	mov	r0, r4
1000807e:	f000 fed7 	bl	10008e30 <memset>
10008082:	2740      	movs	r7, #64	; 0x40
10008084:	2300      	movs	r3, #0
10008086:	f44f 7680 	mov.w	r6, #256	; 0x100
1000808a:	4d0f      	ldr	r5, [pc, #60]	; (100080c8 <vendord_init+0x58>)
1000808c:	f504 72a6 	add.w	r2, r4, #332	; 0x14c
10008090:	4619      	mov	r1, r3
10008092:	9502      	str	r5, [sp, #8]
10008094:	9200      	str	r2, [sp, #0]
10008096:	f504 7094 	add.w	r0, r4, #296	; 0x128
1000809a:	461a      	mov	r2, r3
1000809c:	9703      	str	r7, [sp, #12]
1000809e:	9601      	str	r6, [sp, #4]
100080a0:	f000 f9d8 	bl	10008454 <tu_edpt_stream_init>
100080a4:	2300      	movs	r3, #0
100080a6:	f104 0228 	add.w	r2, r4, #40	; 0x28
100080aa:	443d      	add	r5, r7
100080ac:	9200      	str	r2, [sp, #0]
100080ae:	4619      	mov	r1, r3
100080b0:	2201      	movs	r2, #1
100080b2:	e9cd 5702 	strd	r5, r7, [sp, #8]
100080b6:	9601      	str	r6, [sp, #4]
100080b8:	1d20      	adds	r0, r4, #4
100080ba:	f000 f9cb 	bl	10008454 <tu_edpt_stream_init>
100080be:	b005      	add	sp, #20
100080c0:	bdf0      	pop	{r4, r5, r6, r7, pc}
100080c2:	bf00      	nop
100080c4:	2000291c 	.word	0x2000291c
100080c8:	2000289c 	.word	0x2000289c

100080cc <vendord_deinit>:
100080cc:	b510      	push	{r4, lr}
100080ce:	4c05      	ldr	r4, [pc, #20]	; (100080e4 <vendord_deinit+0x18>)
100080d0:	f504 7094 	add.w	r0, r4, #296	; 0x128
100080d4:	f000 f9ea 	bl	100084ac <tu_edpt_stream_deinit>
100080d8:	1d20      	adds	r0, r4, #4
100080da:	f000 f9e7 	bl	100084ac <tu_edpt_stream_deinit>
100080de:	2001      	movs	r0, #1
100080e0:	bd10      	pop	{r4, pc}
100080e2:	bf00      	nop
100080e4:	2000291c 	.word	0x2000291c

100080e8 <vendord_reset>:
100080e8:	b538      	push	{r3, r4, r5, lr}
100080ea:	2500      	movs	r5, #0
100080ec:	4c06      	ldr	r4, [pc, #24]	; (10008108 <vendord_reset+0x20>)
100080ee:	f504 7098 	add.w	r0, r4, #304	; 0x130
100080f2:	7025      	strb	r5, [r4, #0]
100080f4:	f000 fcb6 	bl	10008a64 <tu_fifo_clear>
100080f8:	f104 000c 	add.w	r0, r4, #12
100080fc:	f000 fcb2 	bl	10008a64 <tu_fifo_clear>
10008100:	f884 5129 	strb.w	r5, [r4, #297]	; 0x129
10008104:	7165      	strb	r5, [r4, #5]
10008106:	bd38      	pop	{r3, r4, r5, pc}
10008108:	2000291c 	.word	0x2000291c

1000810c <vendord_open>:
1000810c:	e92d 4ff8 	stmdb	sp!, {r3, r4, r5, r6, r7, r8, r9, sl, fp, lr}
10008110:	794b      	ldrb	r3, [r1, #5]
10008112:	2bff      	cmp	r3, #255	; 0xff
10008114:	d150      	bne.n	100081b8 <vendord_open+0xac>
10008116:	4d39      	ldr	r5, [pc, #228]	; (100081fc <vendord_open+0xf0>)
10008118:	780c      	ldrb	r4, [r1, #0]
1000811a:	f895 3129 	ldrb.w	r3, [r5, #297]	; 0x129
1000811e:	796e      	ldrb	r6, [r5, #5]
10008120:	440c      	add	r4, r1
10008122:	431e      	orrs	r6, r3
10008124:	460f      	mov	r7, r1
10008126:	eb04 0b02 	add.w	fp, r4, r2
1000812a:	d145      	bne.n	100081b8 <vendord_open+0xac>
1000812c:	788b      	ldrb	r3, [r1, #2]
1000812e:	702b      	strb	r3, [r5, #0]
10008130:	790b      	ldrb	r3, [r1, #4]
10008132:	2b00      	cmp	r3, #0
10008134:	d03c      	beq.n	100081b0 <vendord_open+0xa4>
10008136:	4680      	mov	r8, r0
10008138:	f505 7998 	add.w	r9, r5, #304	; 0x130
1000813c:	f105 0a0c 	add.w	sl, r5, #12
10008140:	7863      	ldrb	r3, [r4, #1]
10008142:	2b05      	cmp	r3, #5
10008144:	d009      	beq.n	1000815a <vendord_open+0x4e>
10008146:	45a3      	cmp	fp, r4
10008148:	d802      	bhi.n	10008150 <vendord_open+0x44>
1000814a:	e031      	b.n	100081b0 <vendord_open+0xa4>
1000814c:	455c      	cmp	r4, fp
1000814e:	d22f      	bcs.n	100081b0 <vendord_open+0xa4>
10008150:	7823      	ldrb	r3, [r4, #0]
10008152:	441c      	add	r4, r3
10008154:	7863      	ldrb	r3, [r4, #1]
10008156:	2b05      	cmp	r3, #5
10008158:	d1f8      	bne.n	1000814c <vendord_open+0x40>
1000815a:	45a3      	cmp	fp, r4
1000815c:	d928      	bls.n	100081b0 <vendord_open+0xa4>
1000815e:	4621      	mov	r1, r4
10008160:	4640      	mov	r0, r8
10008162:	f7ff fb17 	bl	10007794 <usbd_edpt_open>
10008166:	2800      	cmp	r0, #0
10008168:	d03f      	beq.n	100081ea <vendord_open+0xde>
1000816a:	78a3      	ldrb	r3, [r4, #2]
1000816c:	09db      	lsrs	r3, r3, #7
1000816e:	d126      	bne.n	100081be <vendord_open+0xb2>
10008170:	4648      	mov	r0, r9
10008172:	f000 fc77 	bl	10008a64 <tu_fifo_clear>
10008176:	78a3      	ldrb	r3, [r4, #2]
10008178:	f895 2128 	ldrb.w	r2, [r5, #296]	; 0x128
1000817c:	f885 3129 	strb.w	r3, [r5, #297]	; 0x129
10008180:	88a3      	ldrh	r3, [r4, #4]
10008182:	4640      	mov	r0, r8
10008184:	f3c3 030a 	ubfx	r3, r3, #0, #11
10008188:	f5a3 7300 	sub.w	r3, r3, #512	; 0x200
1000818c:	fab3 f383 	clz	r3, r3
10008190:	095b      	lsrs	r3, r3, #5
10008192:	f363 0241 	bfi	r2, r3, #1, #1
10008196:	491a      	ldr	r1, [pc, #104]	; (10008200 <vendord_open+0xf4>)
10008198:	f885 2128 	strb.w	r2, [r5, #296]	; 0x128
1000819c:	f000 f9f6 	bl	1000858c <tu_edpt_stream_read_xfer>
100081a0:	b318      	cbz	r0, 100081ea <vendord_open+0xde>
100081a2:	793a      	ldrb	r2, [r7, #4]
100081a4:	3601      	adds	r6, #1
100081a6:	7821      	ldrb	r1, [r4, #0]
100081a8:	b2f3      	uxtb	r3, r6
100081aa:	429a      	cmp	r2, r3
100081ac:	440c      	add	r4, r1
100081ae:	d8c7      	bhi.n	10008140 <vendord_open+0x34>
100081b0:	1be0      	subs	r0, r4, r7
100081b2:	b280      	uxth	r0, r0
100081b4:	e8bd 8ff8 	ldmia.w	sp!, {r3, r4, r5, r6, r7, r8, r9, sl, fp, pc}
100081b8:	2000      	movs	r0, #0
100081ba:	e8bd 8ff8 	ldmia.w	sp!, {r3, r4, r5, r6, r7, r8, r9, sl, fp, pc}
100081be:	4650      	mov	r0, sl
100081c0:	f000 fc50 	bl	10008a64 <tu_fifo_clear>
100081c4:	78a3      	ldrb	r3, [r4, #2]
100081c6:	792a      	ldrb	r2, [r5, #4]
100081c8:	716b      	strb	r3, [r5, #5]
100081ca:	88a3      	ldrh	r3, [r4, #4]
100081cc:	490d      	ldr	r1, [pc, #52]	; (10008204 <vendord_open+0xf8>)
100081ce:	f3c3 030a 	ubfx	r3, r3, #0, #11
100081d2:	f5a3 7300 	sub.w	r3, r3, #512	; 0x200
100081d6:	fab3 f383 	clz	r3, r3
100081da:	095b      	lsrs	r3, r3, #5
100081dc:	f363 0241 	bfi	r2, r3, #1, #1
100081e0:	2000      	movs	r0, #0
100081e2:	712a      	strb	r2, [r5, #4]
100081e4:	f000 f998 	bl	10008518 <tu_edpt_stream_write_xfer>
100081e8:	e7db      	b.n	100081a2 <vendord_open+0x96>
100081ea:	f04f 23e0 	mov.w	r3, #3758153728	; 0xe000e000
100081ee:	f8d3 3df0 	ldr.w	r3, [r3, #3568]	; 0xdf0
100081f2:	07db      	lsls	r3, r3, #31
100081f4:	d5e0      	bpl.n	100081b8 <vendord_open+0xac>
100081f6:	be00      	bkpt	0x0000
100081f8:	e7df      	b.n	100081ba <vendord_open+0xae>
100081fa:	bf00      	nop
100081fc:	2000291c 	.word	0x2000291c
10008200:	20002a44 	.word	0x20002a44
10008204:	20002920 	.word	0x20002920

10008208 <vendord_xfer_cb>:
10008208:	b570      	push	{r4, r5, r6, lr}
1000820a:	4c1c      	ldr	r4, [pc, #112]	; (1000827c <vendord_xfer_cb+0x74>)
1000820c:	4606      	mov	r6, r0
1000820e:	f894 c129 	ldrb.w	ip, [r4, #297]	; 0x129
10008212:	461d      	mov	r5, r3
10008214:	458c      	cmp	ip, r1
10008216:	d117      	bne.n	10008248 <vendord_xfer_cb+0x40>
10008218:	f8b4 3134 	ldrh.w	r3, [r4, #308]	; 0x134
1000821c:	b963      	cbnz	r3, 10008238 <vendord_xfer_cb+0x30>
1000821e:	4b18      	ldr	r3, [pc, #96]	; (10008280 <vendord_xfer_cb+0x78>)
10008220:	b123      	cbz	r3, 1000822c <vendord_xfer_cb+0x24>
10008222:	2000      	movs	r0, #0
10008224:	4917      	ldr	r1, [pc, #92]	; (10008284 <vendord_xfer_cb+0x7c>)
10008226:	b2aa      	uxth	r2, r5
10008228:	e000      	b.n	1000822c <vendord_xfer_cb+0x24>
1000822a:	bf00      	nop
1000822c:	4630      	mov	r0, r6
1000822e:	4916      	ldr	r1, [pc, #88]	; (10008288 <vendord_xfer_cb+0x80>)
10008230:	f000 f9ac 	bl	1000858c <tu_edpt_stream_read_xfer>
10008234:	2001      	movs	r0, #1
10008236:	bd70      	pop	{r4, r5, r6, pc}
10008238:	f8d4 112c 	ldr.w	r1, [r4, #300]	; 0x12c
1000823c:	b2aa      	uxth	r2, r5
1000823e:	f504 7098 	add.w	r0, r4, #304	; 0x130
10008242:	f000 fb61 	bl	10008908 <tu_fifo_write_n>
10008246:	e7ea      	b.n	1000821e <vendord_xfer_cb+0x16>
10008248:	7963      	ldrb	r3, [r4, #5]
1000824a:	428b      	cmp	r3, r1
1000824c:	d001      	beq.n	10008252 <vendord_xfer_cb+0x4a>
1000824e:	2000      	movs	r0, #0
10008250:	bd70      	pop	{r4, r5, r6, pc}
10008252:	4b0e      	ldr	r3, [pc, #56]	; (1000828c <vendord_xfer_cb+0x84>)
10008254:	b11b      	cbz	r3, 1000825e <vendord_xfer_cb+0x56>
10008256:	2000      	movs	r0, #0
10008258:	b2a9      	uxth	r1, r5
1000825a:	e000      	b.n	1000825e <vendord_xfer_cb+0x56>
1000825c:	bf00      	nop
1000825e:	4630      	mov	r0, r6
10008260:	490b      	ldr	r1, [pc, #44]	; (10008290 <vendord_xfer_cb+0x88>)
10008262:	f000 f959 	bl	10008518 <tu_edpt_stream_write_xfer>
10008266:	b108      	cbz	r0, 1000826c <vendord_xfer_cb+0x64>
10008268:	2001      	movs	r0, #1
1000826a:	bd70      	pop	{r4, r5, r6, pc}
1000826c:	462a      	mov	r2, r5
1000826e:	4630      	mov	r0, r6
10008270:	4907      	ldr	r1, [pc, #28]	; (10008290 <vendord_xfer_cb+0x88>)
10008272:	f000 f91d 	bl	100084b0 <tu_edpt_stream_write_zlp_if_needed>
10008276:	2001      	movs	r0, #1
10008278:	bd70      	pop	{r4, r5, r6, pc}
1000827a:	bf00      	nop
1000827c:	2000291c 	.word	0x2000291c
10008280:	00000000 	.word	0x00000000
10008284:	2000289c 	.word	0x2000289c
10008288:	20002a44 	.word	0x20002a44
1000828c:	00000000 	.word	0x00000000
10008290:	20002920 	.word	0x20002920

10008294 <tusb_rhport_init>:
10008294:	b510      	push	{r4, lr}
10008296:	b082      	sub	sp, #8
10008298:	b1a9      	cbz	r1, 100082c6 <tusb_rhport_init+0x32>
1000829a:	2801      	cmp	r0, #1
1000829c:	d808      	bhi.n	100082b0 <tusb_rhport_init+0x1c>
1000829e:	780b      	ldrb	r3, [r1, #0]
100082a0:	b133      	cbz	r3, 100082b0 <tusb_rhport_init+0x1c>
100082a2:	4c18      	ldr	r4, [pc, #96]	; (10008304 <tusb_rhport_init+0x70>)
100082a4:	2b01      	cmp	r3, #1
100082a6:	5423      	strb	r3, [r4, r0]
100082a8:	d020      	beq.n	100082ec <tusb_rhport_init+0x58>
100082aa:	2001      	movs	r0, #1
100082ac:	b002      	add	sp, #8
100082ae:	bd10      	pop	{r4, pc}
100082b0:	f04f 23e0 	mov.w	r3, #3758153728	; 0xe000e000
100082b4:	f8d3 3df0 	ldr.w	r3, [r3, #3568]	; 0xdf0
100082b8:	07da      	lsls	r2, r3, #31
100082ba:	d402      	bmi.n	100082c2 <tusb_rhport_init+0x2e>
100082bc:	2000      	movs	r0, #0
100082be:	b002      	add	sp, #8
100082c0:	bd10      	pop	{r4, pc}
100082c2:	be00      	bkpt	0x0000
100082c4:	e7fa      	b.n	100082bc <tusb_rhport_init+0x28>
100082c6:	2401      	movs	r4, #1
100082c8:	4608      	mov	r0, r1
100082ca:	a901      	add	r1, sp, #4
100082cc:	f8ad 4004 	strh.w	r4, [sp, #4]
100082d0:	f7fe fdb8 	bl	10006e44 <tud_rhport_init>
100082d4:	b938      	cbnz	r0, 100082e6 <tusb_rhport_init+0x52>
100082d6:	f04f 23e0 	mov.w	r3, #3758153728	; 0xe000e000
100082da:	f8d3 3df0 	ldr.w	r3, [r3, #3568]	; 0xdf0
100082de:	07d9      	lsls	r1, r3, #31
100082e0:	d5ed      	bpl.n	100082be <tusb_rhport_init+0x2a>
100082e2:	be00      	bkpt	0x0000
100082e4:	e7eb      	b.n	100082be <tusb_rhport_init+0x2a>
100082e6:	4b07      	ldr	r3, [pc, #28]	; (10008304 <tusb_rhport_init+0x70>)
100082e8:	701c      	strb	r4, [r3, #0]
100082ea:	e7e8      	b.n	100082be <tusb_rhport_init+0x2a>
100082ec:	f7fe fdaa 	bl	10006e44 <tud_rhport_init>
100082f0:	2800      	cmp	r0, #0
100082f2:	d1da      	bne.n	100082aa <tusb_rhport_init+0x16>
100082f4:	f04f 23e0 	mov.w	r3, #3758153728	; 0xe000e000
100082f8:	f8d3 3df0 	ldr.w	r3, [r3, #3568]	; 0xdf0
100082fc:	07db      	lsls	r3, r3, #31
100082fe:	d5dd      	bpl.n	100082bc <tusb_rhport_init+0x28>
10008300:	e7ef      	b.n	100082e2 <tusb_rhport_init+0x4e>
10008302:	bf00      	nop
10008304:	20002768 	.word	0x20002768

10008308 <tu_edpt_claim>:
10008308:	b5f8      	push	{r3, r4, r5, r6, r7, lr}
1000830a:	7803      	ldrb	r3, [r0, #0]
1000830c:	f013 0401 	ands.w	r4, r3, #1
10008310:	d11a      	bne.n	10008348 <tu_edpt_claim+0x40>
10008312:	7803      	ldrb	r3, [r0, #0]
10008314:	4605      	mov	r5, r0
10008316:	075a      	lsls	r2, r3, #29
10008318:	f3c3 0780 	ubfx	r7, r3, #2, #1
1000831c:	d501      	bpl.n	10008322 <tu_edpt_claim+0x1a>
1000831e:	4620      	mov	r0, r4
10008320:	bdf8      	pop	{r3, r4, r5, r6, r7, pc}
10008322:	460e      	mov	r6, r1
10008324:	f04f 31ff 	mov.w	r1, #4294967295
10008328:	4630      	mov	r0, r6
1000832a:	f000 fe25 	bl	10008f78 <__mutex_enter_timeout_ms_veneer>
1000832e:	782b      	ldrb	r3, [r5, #0]
10008330:	f013 0401 	ands.w	r4, r3, #1
10008334:	d10b      	bne.n	1000834e <tu_edpt_claim+0x46>
10008336:	782b      	ldrb	r3, [r5, #0]
10008338:	075b      	lsls	r3, r3, #29
1000833a:	d409      	bmi.n	10008350 <tu_edpt_claim+0x48>
1000833c:	782b      	ldrb	r3, [r5, #0]
1000833e:	2401      	movs	r4, #1
10008340:	f043 0304 	orr.w	r3, r3, #4
10008344:	702b      	strb	r3, [r5, #0]
10008346:	e003      	b.n	10008350 <tu_edpt_claim+0x48>
10008348:	2400      	movs	r4, #0
1000834a:	4620      	mov	r0, r4
1000834c:	bdf8      	pop	{r3, r4, r5, r6, r7, pc}
1000834e:	463c      	mov	r4, r7
10008350:	4630      	mov	r0, r6
10008352:	f000 fdf9 	bl	10008f48 <__mutex_exit_veneer>
10008356:	4620      	mov	r0, r4
10008358:	bdf8      	pop	{r3, r4, r5, r6, r7, pc}
1000835a:	bf00      	nop

1000835c <tu_edpt_release>:
1000835c:	b570      	push	{r4, r5, r6, lr}
1000835e:	460d      	mov	r5, r1
10008360:	4604      	mov	r4, r0
10008362:	f04f 31ff 	mov.w	r1, #4294967295
10008366:	4628      	mov	r0, r5
10008368:	f000 fe06 	bl	10008f78 <__mutex_enter_timeout_ms_veneer>
1000836c:	7823      	ldrb	r3, [r4, #0]
1000836e:	f3c3 0680 	ubfx	r6, r3, #2, #1
10008372:	075b      	lsls	r3, r3, #29
10008374:	d508      	bpl.n	10008388 <tu_edpt_release+0x2c>
10008376:	7823      	ldrb	r3, [r4, #0]
10008378:	f013 0201 	ands.w	r2, r3, #1
1000837c:	bf11      	iteee	ne
1000837e:	2600      	movne	r6, #0
10008380:	7823      	ldrbeq	r3, [r4, #0]
10008382:	f362 0382 	bfieq	r3, r2, #2, #1
10008386:	7023      	strbeq	r3, [r4, #0]
10008388:	4628      	mov	r0, r5
1000838a:	f000 fddd 	bl	10008f48 <__mutex_exit_veneer>
1000838e:	4630      	mov	r0, r6
10008390:	bd70      	pop	{r4, r5, r6, pc}
10008392:	bf00      	nop

10008394 <tu_edpt_validate>:
10008394:	78c3      	ldrb	r3, [r0, #3]
10008396:	8882      	ldrh	r2, [r0, #4]
10008398:	f003 0003 	and.w	r0, r3, #3
1000839c:	2802      	cmp	r0, #2
1000839e:	f3c2 020a 	ubfx	r2, r2, #0, #11
100083a2:	d005      	beq.n	100083b0 <tu_edpt_validate+0x1c>
100083a4:	2803      	cmp	r0, #3
100083a6:	d01b      	beq.n	100083e0 <tu_edpt_validate+0x4c>
100083a8:	2801      	cmp	r0, #1
100083aa:	d007      	beq.n	100083bc <tu_edpt_validate+0x28>
100083ac:	2000      	movs	r0, #0
100083ae:	4770      	bx	lr
100083b0:	2902      	cmp	r1, #2
100083b2:	d01e      	beq.n	100083f2 <tu_edpt_validate+0x5e>
100083b4:	2a40      	cmp	r2, #64	; 0x40
100083b6:	d809      	bhi.n	100083cc <tu_edpt_validate+0x38>
100083b8:	2001      	movs	r0, #1
100083ba:	4770      	bx	lr
100083bc:	2902      	cmp	r1, #2
100083be:	f240 33ff 	movw	r3, #1023	; 0x3ff
100083c2:	bf08      	it	eq
100083c4:	f44f 6380 	moveq.w	r3, #1024	; 0x400
100083c8:	4293      	cmp	r3, r2
100083ca:	d2f6      	bcs.n	100083ba <tu_edpt_validate+0x26>
100083cc:	f04f 23e0 	mov.w	r3, #3758153728	; 0xe000e000
100083d0:	f8d3 0df0 	ldr.w	r0, [r3, #3568]	; 0xdf0
100083d4:	f010 0001 	ands.w	r0, r0, #1
100083d8:	d0ef      	beq.n	100083ba <tu_edpt_validate+0x26>
100083da:	be00      	bkpt	0x0000
100083dc:	2000      	movs	r0, #0
100083de:	4770      	bx	lr
100083e0:	2902      	cmp	r1, #2
100083e2:	bf0c      	ite	eq
100083e4:	f44f 6380 	moveq.w	r3, #1024	; 0x400
100083e8:	2340      	movne	r3, #64	; 0x40
100083ea:	4293      	cmp	r3, r2
100083ec:	d3ee      	bcc.n	100083cc <tu_edpt_validate+0x38>
100083ee:	2001      	movs	r0, #1
100083f0:	e7e3      	b.n	100083ba <tu_edpt_validate+0x26>
100083f2:	f5b2 7f00 	cmp.w	r2, #512	; 0x200
100083f6:	d0df      	beq.n	100083b8 <tu_edpt_validate+0x24>
100083f8:	e7e8      	b.n	100083cc <tu_edpt_validate+0x38>
100083fa:	bf00      	nop

100083fc <tu_edpt_bind_driver>:
100083fc:	440a      	add	r2, r1
100083fe:	4291      	cmp	r1, r2
10008400:	d226      	bcs.n	10008450 <tu_edpt_bind_driver+0x54>
10008402:	f891 c001 	ldrb.w	ip, [r1, #1]
10008406:	f1bc 0f05 	cmp.w	ip, #5
1000840a:	d005      	beq.n	10008418 <tu_edpt_bind_driver+0x1c>
1000840c:	f891 c000 	ldrb.w	ip, [r1]
10008410:	4461      	add	r1, ip
10008412:	428a      	cmp	r2, r1
10008414:	d8f5      	bhi.n	10008402 <tu_edpt_bind_driver+0x6>
10008416:	4770      	bx	lr
10008418:	b500      	push	{lr}
1000841a:	f891 c002 	ldrb.w	ip, [r1, #2]
1000841e:	f00c 0e7f 	and.w	lr, ip, #127	; 0x7f
10008422:	eb00 0e4e 	add.w	lr, r0, lr, lsl #1
10008426:	ea4f 1cdc 	mov.w	ip, ip, lsr #7
1000842a:	f80e 300c 	strb.w	r3, [lr, ip]
1000842e:	f891 c000 	ldrb.w	ip, [r1]
10008432:	4461      	add	r1, ip
10008434:	428a      	cmp	r2, r1
10008436:	d909      	bls.n	1000844c <tu_edpt_bind_driver+0x50>
10008438:	f891 c001 	ldrb.w	ip, [r1, #1]
1000843c:	f1bc 0f05 	cmp.w	ip, #5
10008440:	d0eb      	beq.n	1000841a <tu_edpt_bind_driver+0x1e>
10008442:	f891 c000 	ldrb.w	ip, [r1]
10008446:	4461      	add	r1, ip
10008448:	428a      	cmp	r2, r1
1000844a:	d8f5      	bhi.n	10008438 <tu_edpt_bind_driver+0x3c>
1000844c:	f85d fb04 	ldr.w	pc, [sp], #4
10008450:	4770      	bx	lr
10008452:	bf00      	nop

10008454 <tu_edpt_stream_init>:
10008454:	e92d 41f0 	stmdb	sp!, {r4, r5, r6, r7, r8, lr}
10008458:	468e      	mov	lr, r1
1000845a:	b082      	sub	sp, #8
1000845c:	9300      	str	r3, [sp, #0]
1000845e:	f890 c000 	ldrb.w	ip, [r0]
10008462:	9e08      	ldr	r6, [sp, #32]
10008464:	f8bd 7024 	ldrh.w	r7, [sp, #36]	; 0x24
10008468:	f36e 0c00 	bfi	ip, lr, #0, #1
1000846c:	4604      	mov	r4, r0
1000846e:	4615      	mov	r5, r2
10008470:	2301      	movs	r3, #1
10008472:	4631      	mov	r1, r6
10008474:	463a      	mov	r2, r7
10008476:	f800 cb08 	strb.w	ip, [r0], #8
1000847a:	f8bd 802c 	ldrh.w	r8, [sp, #44]	; 0x2c
1000847e:	f000 f8ef 	bl	10008660 <tu_fifo_config>
10008482:	b106      	cbz	r6, 10008486 <tu_edpt_stream_init+0x32>
10008484:	b93f      	cbnz	r7, 10008496 <tu_edpt_stream_init+0x42>
10008486:	2001      	movs	r0, #1
10008488:	9b0a      	ldr	r3, [sp, #40]	; 0x28
1000848a:	f8a4 8002 	strh.w	r8, [r4, #2]
1000848e:	6063      	str	r3, [r4, #4]
10008490:	b002      	add	sp, #8
10008492:	e8bd 81f0 	ldmia.w	sp!, {r4, r5, r6, r7, r8, pc}
10008496:	f104 061c 	add.w	r6, r4, #28
1000849a:	4630      	mov	r0, r6
1000849c:	f7fa fffe 	bl	1000349c <mutex_init>
100084a0:	b10d      	cbz	r5, 100084a6 <tu_edpt_stream_init+0x52>
100084a2:	4635      	mov	r5, r6
100084a4:	2600      	movs	r6, #0
100084a6:	e9c4 5605 	strd	r5, r6, [r4, #20]
100084aa:	e7ec      	b.n	10008486 <tu_edpt_stream_init+0x32>

100084ac <tu_edpt_stream_deinit>:
100084ac:	2001      	movs	r0, #1
100084ae:	4770      	bx	lr

100084b0 <tu_edpt_stream_write_zlp_if_needed>:
100084b0:	b5f8      	push	{r3, r4, r5, r6, r7, lr}
100084b2:	4607      	mov	r7, r0
100084b4:	4608      	mov	r0, r1
100084b6:	f240 13ff 	movw	r3, #511	; 0x1ff
100084ba:	4615      	mov	r5, r2
100084bc:	f810 2b08 	ldrb.w	r2, [r0], #8
100084c0:	460c      	mov	r4, r1
100084c2:	f012 0f02 	tst.w	r2, #2
100084c6:	bf14      	ite	ne
100084c8:	461e      	movne	r6, r3
100084ca:	263f      	moveq	r6, #63	; 0x3f
100084cc:	f000 f8fa 	bl	100086c4 <tu_fifo_count>
100084d0:	b928      	cbnz	r0, 100084de <tu_edpt_stream_write_zlp_if_needed+0x2e>
100084d2:	b125      	cbz	r5, 100084de <tu_edpt_stream_write_zlp_if_needed+0x2e>
100084d4:	4235      	tst	r5, r6
100084d6:	d102      	bne.n	100084de <tu_edpt_stream_write_zlp_if_needed+0x2e>
100084d8:	7823      	ldrb	r3, [r4, #0]
100084da:	07da      	lsls	r2, r3, #31
100084dc:	d501      	bpl.n	100084e2 <tu_edpt_stream_write_zlp_if_needed+0x32>
100084de:	2000      	movs	r0, #0
100084e0:	bdf8      	pop	{r3, r4, r5, r6, r7, pc}
100084e2:	4638      	mov	r0, r7
100084e4:	7861      	ldrb	r1, [r4, #1]
100084e6:	f7ff f977 	bl	100077d8 <usbd_edpt_claim>
100084ea:	2800      	cmp	r0, #0
100084ec:	d0f7      	beq.n	100084de <tu_edpt_stream_write_zlp_if_needed+0x2e>
100084ee:	7823      	ldrb	r3, [r4, #0]
100084f0:	f013 0301 	ands.w	r3, r3, #1
100084f4:	d007      	beq.n	10008506 <tu_edpt_stream_write_zlp_if_needed+0x56>
100084f6:	f04f 23e0 	mov.w	r3, #3758153728	; 0xe000e000
100084fa:	f8d3 3df0 	ldr.w	r3, [r3, #3568]	; 0xdf0
100084fe:	07db      	lsls	r3, r3, #31
10008500:	d5ed      	bpl.n	100084de <tu_edpt_stream_write_zlp_if_needed+0x2e>
10008502:	be00      	bkpt	0x0000
10008504:	e7eb      	b.n	100084de <tu_edpt_stream_write_zlp_if_needed+0x2e>
10008506:	461a      	mov	r2, r3
10008508:	4638      	mov	r0, r7
1000850a:	7861      	ldrb	r1, [r4, #1]
1000850c:	f7ff f988 	bl	10007820 <usbd_edpt_xfer>
10008510:	2800      	cmp	r0, #0
10008512:	d0f0      	beq.n	100084f6 <tu_edpt_stream_write_zlp_if_needed+0x46>
10008514:	bdf8      	pop	{r3, r4, r5, r6, r7, pc}
10008516:	bf00      	nop

10008518 <tu_edpt_stream_write_xfer>:
10008518:	b570      	push	{r4, r5, r6, lr}
1000851a:	f101 0508 	add.w	r5, r1, #8
1000851e:	4606      	mov	r6, r0
10008520:	4628      	mov	r0, r5
10008522:	460c      	mov	r4, r1
10008524:	f000 f8ce 	bl	100086c4 <tu_fifo_count>
10008528:	b110      	cbz	r0, 10008530 <tu_edpt_stream_write_xfer+0x18>
1000852a:	7823      	ldrb	r3, [r4, #0]
1000852c:	07d9      	lsls	r1, r3, #31
1000852e:	d501      	bpl.n	10008534 <tu_edpt_stream_write_xfer+0x1c>
10008530:	2000      	movs	r0, #0
10008532:	bd70      	pop	{r4, r5, r6, pc}
10008534:	4630      	mov	r0, r6
10008536:	7861      	ldrb	r1, [r4, #1]
10008538:	f7ff f94e 	bl	100077d8 <usbd_edpt_claim>
1000853c:	2800      	cmp	r0, #0
1000853e:	d0f7      	beq.n	10008530 <tu_edpt_stream_write_xfer+0x18>
10008540:	4628      	mov	r0, r5
10008542:	8862      	ldrh	r2, [r4, #2]
10008544:	6861      	ldr	r1, [r4, #4]
10008546:	f000 f933 	bl	100087b0 <tu_fifo_read_n>
1000854a:	7823      	ldrb	r3, [r4, #0]
1000854c:	4605      	mov	r5, r0
1000854e:	b148      	cbz	r0, 10008564 <tu_edpt_stream_write_xfer+0x4c>
10008550:	07da      	lsls	r2, r3, #31
10008552:	d510      	bpl.n	10008576 <tu_edpt_stream_write_xfer+0x5e>
10008554:	f04f 23e0 	mov.w	r3, #3758153728	; 0xe000e000
10008558:	f8d3 3df0 	ldr.w	r3, [r3, #3568]	; 0xdf0
1000855c:	07db      	lsls	r3, r3, #31
1000855e:	d5e7      	bpl.n	10008530 <tu_edpt_stream_write_xfer+0x18>
10008560:	be00      	bkpt	0x0000
10008562:	e7e5      	b.n	10008530 <tu_edpt_stream_write_xfer+0x18>
10008564:	f013 0501 	ands.w	r5, r3, #1
10008568:	d1e2      	bne.n	10008530 <tu_edpt_stream_write_xfer+0x18>
1000856a:	4630      	mov	r0, r6
1000856c:	7861      	ldrb	r1, [r4, #1]
1000856e:	f7ff f945 	bl	100077fc <usbd_edpt_release>
10008572:	4628      	mov	r0, r5
10008574:	bd70      	pop	{r4, r5, r6, pc}
10008576:	4603      	mov	r3, r0
10008578:	6862      	ldr	r2, [r4, #4]
1000857a:	4630      	mov	r0, r6
1000857c:	7861      	ldrb	r1, [r4, #1]
1000857e:	f7ff f94f 	bl	10007820 <usbd_edpt_xfer>
10008582:	2800      	cmp	r0, #0
10008584:	d0e6      	beq.n	10008554 <tu_edpt_stream_write_xfer+0x3c>
10008586:	4628      	mov	r0, r5
10008588:	e7f4      	b.n	10008574 <tu_edpt_stream_write_xfer+0x5c>
1000858a:	bf00      	nop

1000858c <tu_edpt_stream_read_xfer>:
1000858c:	898b      	ldrh	r3, [r1, #12]
1000858e:	e92d 41f0 	stmdb	sp!, {r4, r5, r6, r7, r8, lr}
10008592:	460c      	mov	r4, r1
10008594:	4605      	mov	r5, r0
10008596:	b92b      	cbnz	r3, 100085a4 <tu_edpt_stream_read_xfer+0x18>
10008598:	780b      	ldrb	r3, [r1, #0]
1000859a:	07de      	lsls	r6, r3, #31
1000859c:	d53d      	bpl.n	1000861a <tu_edpt_stream_read_xfer+0x8e>
1000859e:	2000      	movs	r0, #0
100085a0:	e8bd 81f0 	ldmia.w	sp!, {r4, r5, r6, r7, r8, pc}
100085a4:	460e      	mov	r6, r1
100085a6:	f816 3b08 	ldrb.w	r3, [r6], #8
100085aa:	4a2c      	ldr	r2, [pc, #176]	; (1000865c <tu_edpt_stream_read_xfer+0xd0>)
100085ac:	f003 0302 	and.w	r3, r3, #2
100085b0:	2b00      	cmp	r3, #0
100085b2:	4630      	mov	r0, r6
100085b4:	bf15      	itete	ne
100085b6:	4690      	movne	r8, r2
100085b8:	f06f 083f 	mvneq.w	r8, #63	; 0x3f
100085bc:	f44f 7700 	movne.w	r7, #512	; 0x200
100085c0:	2740      	moveq	r7, #64	; 0x40
100085c2:	f000 f899 	bl	100086f8 <tu_fifo_remaining>
100085c6:	4287      	cmp	r7, r0
100085c8:	d8e9      	bhi.n	1000859e <tu_edpt_stream_read_xfer+0x12>
100085ca:	7823      	ldrb	r3, [r4, #0]
100085cc:	07d9      	lsls	r1, r3, #31
100085ce:	d4e6      	bmi.n	1000859e <tu_edpt_stream_read_xfer+0x12>
100085d0:	4628      	mov	r0, r5
100085d2:	7861      	ldrb	r1, [r4, #1]
100085d4:	f7ff f900 	bl	100077d8 <usbd_edpt_claim>
100085d8:	2800      	cmp	r0, #0
100085da:	d0e0      	beq.n	1000859e <tu_edpt_stream_read_xfer+0x12>
100085dc:	4630      	mov	r0, r6
100085de:	f000 f88b 	bl	100086f8 <tu_fifo_remaining>
100085e2:	4287      	cmp	r7, r0
100085e4:	7823      	ldrb	r3, [r4, #0]
100085e6:	d82b      	bhi.n	10008640 <tu_edpt_stream_read_xfer+0xb4>
100085e8:	07da      	lsls	r2, r3, #31
100085ea:	d40e      	bmi.n	1000860a <tu_edpt_stream_read_xfer+0x7e>
100085ec:	8866      	ldrh	r6, [r4, #2]
100085ee:	ea08 0200 	and.w	r2, r8, r0
100085f2:	b290      	uxth	r0, r2
100085f4:	4286      	cmp	r6, r0
100085f6:	bf28      	it	cs
100085f8:	4606      	movcs	r6, r0
100085fa:	7861      	ldrb	r1, [r4, #1]
100085fc:	b35e      	cbz	r6, 10008656 <tu_edpt_stream_read_xfer+0xca>
100085fe:	6862      	ldr	r2, [r4, #4]
10008600:	4633      	mov	r3, r6
10008602:	4628      	mov	r0, r5
10008604:	f7ff f90c 	bl	10007820 <usbd_edpt_xfer>
10008608:	bb08      	cbnz	r0, 1000864e <tu_edpt_stream_read_xfer+0xc2>
1000860a:	f04f 23e0 	mov.w	r3, #3758153728	; 0xe000e000
1000860e:	f8d3 3df0 	ldr.w	r3, [r3, #3568]	; 0xdf0
10008612:	07db      	lsls	r3, r3, #31
10008614:	d5c3      	bpl.n	1000859e <tu_edpt_stream_read_xfer+0x12>
10008616:	be00      	bkpt	0x0000
10008618:	e7c1      	b.n	1000859e <tu_edpt_stream_read_xfer+0x12>
1000861a:	7849      	ldrb	r1, [r1, #1]
1000861c:	f7ff f8dc 	bl	100077d8 <usbd_edpt_claim>
10008620:	2800      	cmp	r0, #0
10008622:	d0bc      	beq.n	1000859e <tu_edpt_stream_read_xfer+0x12>
10008624:	7823      	ldrb	r3, [r4, #0]
10008626:	07d8      	lsls	r0, r3, #31
10008628:	d4ef      	bmi.n	1000860a <tu_edpt_stream_read_xfer+0x7e>
1000862a:	8863      	ldrh	r3, [r4, #2]
1000862c:	7861      	ldrb	r1, [r4, #1]
1000862e:	b183      	cbz	r3, 10008652 <tu_edpt_stream_read_xfer+0xc6>
10008630:	6862      	ldr	r2, [r4, #4]
10008632:	4628      	mov	r0, r5
10008634:	f7ff f8f4 	bl	10007820 <usbd_edpt_xfer>
10008638:	2800      	cmp	r0, #0
1000863a:	d0e6      	beq.n	1000860a <tu_edpt_stream_read_xfer+0x7e>
1000863c:	8860      	ldrh	r0, [r4, #2]
1000863e:	e7af      	b.n	100085a0 <tu_edpt_stream_read_xfer+0x14>
10008640:	f013 0601 	ands.w	r6, r3, #1
10008644:	d1ab      	bne.n	1000859e <tu_edpt_stream_read_xfer+0x12>
10008646:	4628      	mov	r0, r5
10008648:	7861      	ldrb	r1, [r4, #1]
1000864a:	f7ff f8d7 	bl	100077fc <usbd_edpt_release>
1000864e:	4630      	mov	r0, r6
10008650:	e7a6      	b.n	100085a0 <tu_edpt_stream_read_xfer+0x14>
10008652:	461a      	mov	r2, r3
10008654:	e7ed      	b.n	10008632 <tu_edpt_stream_read_xfer+0xa6>
10008656:	4632      	mov	r2, r6
10008658:	e7d2      	b.n	10008600 <tu_edpt_stream_read_xfer+0x74>
1000865a:	bf00      	nop
1000865c:	fffffe00 	.word	0xfffffe00

10008660 <tu_fifo_config>:
10008660:	e92d 41f0 	stmdb	sp!, {r4, r5, r6, r7, r8, lr}
10008664:	f5b2 4f00 	cmp.w	r2, #32768	; 0x8000
10008668:	f89d 8018 	ldrb.w	r8, [sp, #24]
1000866c:	d827      	bhi.n	100086be <tu_fifo_config+0x5e>
1000866e:	4604      	mov	r4, r0
10008670:	68c0      	ldr	r0, [r0, #12]
10008672:	4617      	mov	r7, r2
10008674:	460e      	mov	r6, r1
10008676:	461d      	mov	r5, r3
10008678:	b118      	cbz	r0, 10008682 <tu_fifo_config+0x22>
1000867a:	f04f 31ff 	mov.w	r1, #4294967295
1000867e:	f000 fc7b 	bl	10008f78 <__mutex_enter_timeout_ms_veneer>
10008682:	6920      	ldr	r0, [r4, #16]
10008684:	b118      	cbz	r0, 1000868e <tu_fifo_config+0x2e>
10008686:	f04f 31ff 	mov.w	r1, #4294967295
1000868a:	f000 fc75 	bl	10008f78 <__mutex_enter_timeout_ms_veneer>
1000868e:	2200      	movs	r2, #0
10008690:	f3c5 030e 	ubfx	r3, r5, #0, #15
10008694:	68e0      	ldr	r0, [r4, #12]
10008696:	ea43 33c8 	orr.w	r3, r3, r8, lsl #15
1000869a:	8162      	strh	r2, [r4, #10]
1000869c:	6026      	str	r6, [r4, #0]
1000869e:	80a7      	strh	r7, [r4, #4]
100086a0:	80e3      	strh	r3, [r4, #6]
100086a2:	8122      	strh	r2, [r4, #8]
100086a4:	b108      	cbz	r0, 100086aa <tu_fifo_config+0x4a>
100086a6:	f000 fc4f 	bl	10008f48 <__mutex_exit_veneer>
100086aa:	6920      	ldr	r0, [r4, #16]
100086ac:	b120      	cbz	r0, 100086b8 <tu_fifo_config+0x58>
100086ae:	f000 fc4b 	bl	10008f48 <__mutex_exit_veneer>
100086b2:	2001      	movs	r0, #1
100086b4:	e8bd 81f0 	ldmia.w	sp!, {r4, r5, r6, r7, r8, pc}
100086b8:	2001      	movs	r0, #1
100086ba:	e8bd 81f0 	ldmia.w	sp!, {r4, r5, r6, r7, r8, pc}
100086be:	2000      	movs	r0, #0
100086c0:	e8bd 81f0 	ldmia.w	sp!, {r4, r5, r6, r7, r8, pc}

100086c4 <tu_fifo_count>:
100086c4:	8903      	ldrh	r3, [r0, #8]
100086c6:	8942      	ldrh	r2, [r0, #10]
100086c8:	b29b      	uxth	r3, r3
100086ca:	b292      	uxth	r2, r2
100086cc:	8880      	ldrh	r0, [r0, #4]
100086ce:	4293      	cmp	r3, r2
100086d0:	bf36      	itet	cc
100086d2:	ebc2 0240 	rsbcc	r2, r2, r0, lsl #1
100086d6:	1a9b      	subcs	r3, r3, r2
100086d8:	189b      	addcc	r3, r3, r2
100086da:	b29b      	uxth	r3, r3
100086dc:	4298      	cmp	r0, r3
100086de:	bf28      	it	cs
100086e0:	4618      	movcs	r0, r3
100086e2:	4770      	bx	lr

100086e4 <tu_fifo_empty>:
100086e4:	8902      	ldrh	r2, [r0, #8]
100086e6:	8943      	ldrh	r3, [r0, #10]
100086e8:	b290      	uxth	r0, r2
100086ea:	b29b      	uxth	r3, r3
100086ec:	1ac0      	subs	r0, r0, r3
100086ee:	fab0 f080 	clz	r0, r0
100086f2:	0940      	lsrs	r0, r0, #5
100086f4:	4770      	bx	lr
100086f6:	bf00      	nop

100086f8 <tu_fifo_remaining>:
100086f8:	8903      	ldrh	r3, [r0, #8]
100086fa:	8942      	ldrh	r2, [r0, #10]
100086fc:	b29b      	uxth	r3, r3
100086fe:	8880      	ldrh	r0, [r0, #4]
10008700:	b292      	uxth	r2, r2
10008702:	4293      	cmp	r3, r2
10008704:	bf36      	itet	cc
10008706:	ebc2 0240 	rsbcc	r2, r2, r0, lsl #1
1000870a:	1a9b      	subcs	r3, r3, r2
1000870c:	189b      	addcc	r3, r3, r2
1000870e:	b29b      	uxth	r3, r3
10008710:	4298      	cmp	r0, r3
10008712:	bf86      	itte	hi
10008714:	1ac0      	subhi	r0, r0, r3
10008716:	b280      	uxthhi	r0, r0
10008718:	2000      	movls	r0, #0
1000871a:	4770      	bx	lr

1000871c <tu_fifo_read>:
1000871c:	b538      	push	{r3, r4, r5, lr}
1000871e:	4604      	mov	r4, r0
10008720:	6900      	ldr	r0, [r0, #16]
10008722:	460d      	mov	r5, r1
10008724:	b118      	cbz	r0, 1000872e <tu_fifo_read+0x12>
10008726:	f04f 31ff 	mov.w	r1, #4294967295
1000872a:	f000 fc25 	bl	10008f78 <__mutex_enter_timeout_ms_veneer>
1000872e:	8921      	ldrh	r1, [r4, #8]
10008730:	8963      	ldrh	r3, [r4, #10]
10008732:	b289      	uxth	r1, r1
10008734:	b29b      	uxth	r3, r3
10008736:	88a2      	ldrh	r2, [r4, #4]
10008738:	4299      	cmp	r1, r3
1000873a:	bf36      	itet	cc
1000873c:	ebc3 0042 	rsbcc	r0, r3, r2, lsl #1
10008740:	1ac8      	subcs	r0, r1, r3
10008742:	1840      	addcc	r0, r0, r1
10008744:	b280      	uxth	r0, r0
10008746:	b350      	cbz	r0, 1000879e <tu_fifo_read+0x82>
10008748:	4282      	cmp	r2, r0
1000874a:	d209      	bcs.n	10008760 <tu_fifo_read+0x44>
1000874c:	4291      	cmp	r1, r2
1000874e:	bf2c      	ite	cs
10008750:	1a89      	subcs	r1, r1, r2
10008752:	1889      	addcc	r1, r1, r2
10008754:	b28b      	uxth	r3, r1
10008756:	429a      	cmp	r2, r3
10008758:	8163      	strh	r3, [r4, #10]
1000875a:	d803      	bhi.n	10008764 <tu_fifo_read+0x48>
1000875c:	1a9b      	subs	r3, r3, r2
1000875e:	b29b      	uxth	r3, r3
10008760:	429a      	cmp	r2, r3
10008762:	d9fb      	bls.n	1000875c <tu_fifo_read+0x40>
10008764:	88e2      	ldrh	r2, [r4, #6]
10008766:	6821      	ldr	r1, [r4, #0]
10008768:	f3c2 020e 	ubfx	r2, r2, #0, #15
1000876c:	fb02 1103 	mla	r1, r2, r3, r1
10008770:	4628      	mov	r0, r5
10008772:	f000 fae7 	bl	10008d44 <memcpy>
10008776:	8961      	ldrh	r1, [r4, #10]
10008778:	2501      	movs	r5, #1
1000877a:	b289      	uxth	r1, r1
1000877c:	1c4b      	adds	r3, r1, #1
1000877e:	b29b      	uxth	r3, r3
10008780:	4299      	cmp	r1, r3
10008782:	88a2      	ldrh	r2, [r4, #4]
10008784:	d90e      	bls.n	100087a4 <tu_fifo_read+0x88>
10008786:	2300      	movs	r3, #0
10008788:	fa02 f105 	lsl.w	r1, r2, r5
1000878c:	1a5b      	subs	r3, r3, r1
1000878e:	b29b      	uxth	r3, r3
10008790:	6920      	ldr	r0, [r4, #16]
10008792:	8163      	strh	r3, [r4, #10]
10008794:	b108      	cbz	r0, 1000879a <tu_fifo_read+0x7e>
10008796:	f000 fbd7 	bl	10008f48 <__mutex_exit_veneer>
1000879a:	4628      	mov	r0, r5
1000879c:	bd38      	pop	{r3, r4, r5, pc}
1000879e:	4605      	mov	r5, r0
100087a0:	8963      	ldrh	r3, [r4, #10]
100087a2:	b29b      	uxth	r3, r3
100087a4:	ebb3 0f42 	cmp.w	r3, r2, lsl #1
100087a8:	ea4f 0142 	mov.w	r1, r2, lsl #1
100087ac:	dbf0      	blt.n	10008790 <tu_fifo_read+0x74>
100087ae:	e7ed      	b.n	1000878c <tu_fifo_read+0x70>

100087b0 <tu_fifo_read_n>:
100087b0:	e92d 47f0 	stmdb	sp!, {r4, r5, r6, r7, r8, r9, sl, lr}
100087b4:	4606      	mov	r6, r0
100087b6:	6900      	ldr	r0, [r0, #16]
100087b8:	4688      	mov	r8, r1
100087ba:	4691      	mov	r9, r2
100087bc:	b118      	cbz	r0, 100087c6 <tu_fifo_read_n+0x16>
100087be:	f04f 31ff 	mov.w	r1, #4294967295
100087c2:	f000 fbd9 	bl	10008f78 <__mutex_enter_timeout_ms_veneer>
100087c6:	8933      	ldrh	r3, [r6, #8]
100087c8:	8974      	ldrh	r4, [r6, #10]
100087ca:	b29b      	uxth	r3, r3
100087cc:	b2a4      	uxth	r4, r4
100087ce:	88b5      	ldrh	r5, [r6, #4]
100087d0:	42a3      	cmp	r3, r4
100087d2:	bf36      	itet	cc
100087d4:	ebc4 0745 	rsbcc	r7, r4, r5, lsl #1
100087d8:	1b1f      	subcs	r7, r3, r4
100087da:	18ff      	addcc	r7, r7, r3
100087dc:	b2bf      	uxth	r7, r7
100087de:	2f00      	cmp	r7, #0
100087e0:	d048      	beq.n	10008874 <tu_fifo_read_n+0xc4>
100087e2:	42bd      	cmp	r5, r7
100087e4:	d33e      	bcc.n	10008864 <tu_fifo_read_n+0xb4>
100087e6:	454f      	cmp	r7, r9
100087e8:	bf28      	it	cs
100087ea:	464f      	movcs	r7, r9
100087ec:	42a5      	cmp	r5, r4
100087ee:	b2bf      	uxth	r7, r7
100087f0:	d803      	bhi.n	100087fa <tu_fifo_read_n+0x4a>
100087f2:	1b64      	subs	r4, r4, r5
100087f4:	b2a4      	uxth	r4, r4
100087f6:	42a5      	cmp	r5, r4
100087f8:	d9fb      	bls.n	100087f2 <tu_fifo_read_n+0x42>
100087fa:	88f2      	ldrh	r2, [r6, #6]
100087fc:	1b2b      	subs	r3, r5, r4
100087fe:	6831      	ldr	r1, [r6, #0]
10008800:	b29b      	uxth	r3, r3
10008802:	f3c2 0c0e 	ubfx	ip, r2, #0, #15
10008806:	429f      	cmp	r7, r3
10008808:	46e2      	mov	sl, ip
1000880a:	fb0c 1104 	mla	r1, ip, r4, r1
1000880e:	d923      	bls.n	10008858 <tu_fifo_read_n+0xa8>
10008810:	fb13 f30c 	smulbb	r3, r3, ip
10008814:	fa1f f983 	uxth.w	r9, r3
10008818:	464a      	mov	r2, r9
1000881a:	4640      	mov	r0, r8
1000881c:	f000 fa92 	bl	10008d44 <memcpy>
10008820:	1b7a      	subs	r2, r7, r5
10008822:	4422      	add	r2, r4
10008824:	fb12 f20a 	smulbb	r2, r2, sl
10008828:	6831      	ldr	r1, [r6, #0]
1000882a:	eb08 0009 	add.w	r0, r8, r9
1000882e:	b292      	uxth	r2, r2
10008830:	f000 fa88 	bl	10008d44 <memcpy>
10008834:	8972      	ldrh	r2, [r6, #10]
10008836:	88b5      	ldrh	r5, [r6, #4]
10008838:	b292      	uxth	r2, r2
1000883a:	19d3      	adds	r3, r2, r7
1000883c:	b29b      	uxth	r3, r3
1000883e:	429a      	cmp	r2, r3
10008840:	d91a      	bls.n	10008878 <tu_fifo_read_n+0xc8>
10008842:	006a      	lsls	r2, r5, #1
10008844:	1a9b      	subs	r3, r3, r2
10008846:	b29b      	uxth	r3, r3
10008848:	6930      	ldr	r0, [r6, #16]
1000884a:	8173      	strh	r3, [r6, #10]
1000884c:	b108      	cbz	r0, 10008852 <tu_fifo_read_n+0xa2>
1000884e:	f000 fb7b 	bl	10008f48 <__mutex_exit_veneer>
10008852:	4638      	mov	r0, r7
10008854:	e8bd 87f0 	ldmia.w	sp!, {r4, r5, r6, r7, r8, r9, sl, pc}
10008858:	4640      	mov	r0, r8
1000885a:	fb0c f207 	mul.w	r2, ip, r7
1000885e:	f000 fa71 	bl	10008d44 <memcpy>
10008862:	e7e7      	b.n	10008834 <tu_fifo_read_n+0x84>
10008864:	42ab      	cmp	r3, r5
10008866:	bf2c      	ite	cs
10008868:	1b5b      	subcs	r3, r3, r5
1000886a:	195b      	addcc	r3, r3, r5
1000886c:	b29c      	uxth	r4, r3
1000886e:	462f      	mov	r7, r5
10008870:	8174      	strh	r4, [r6, #10]
10008872:	e7b8      	b.n	100087e6 <tu_fifo_read_n+0x36>
10008874:	8973      	ldrh	r3, [r6, #10]
10008876:	b29b      	uxth	r3, r3
10008878:	ebb3 0f45 	cmp.w	r3, r5, lsl #1
1000887c:	ea4f 0245 	mov.w	r2, r5, lsl #1
10008880:	dbe2      	blt.n	10008848 <tu_fifo_read_n+0x98>
10008882:	e7df      	b.n	10008844 <tu_fifo_read_n+0x94>

10008884 <tu_fifo_write>:
10008884:	b5f8      	push	{r3, r4, r5, r6, r7, lr}
10008886:	4604      	mov	r4, r0
10008888:	68c0      	ldr	r0, [r0, #12]
1000888a:	460e      	mov	r6, r1
1000888c:	b118      	cbz	r0, 10008896 <tu_fifo_write+0x12>
1000888e:	f04f 31ff 	mov.w	r1, #4294967295
10008892:	f000 fb71 	bl	10008f78 <__mutex_enter_timeout_ms_veneer>
10008896:	8925      	ldrh	r5, [r4, #8]
10008898:	8923      	ldrh	r3, [r4, #8]
1000889a:	8961      	ldrh	r1, [r4, #10]
1000889c:	b29b      	uxth	r3, r3
1000889e:	b289      	uxth	r1, r1
100088a0:	88a2      	ldrh	r2, [r4, #4]
100088a2:	428b      	cmp	r3, r1
100088a4:	bf36      	itet	cc
100088a6:	ebc1 0142 	rsbcc	r1, r1, r2, lsl #1
100088aa:	1a5b      	subcs	r3, r3, r1
100088ac:	185b      	addcc	r3, r3, r1
100088ae:	b29b      	uxth	r3, r3
100088b0:	429a      	cmp	r2, r3
100088b2:	b2ad      	uxth	r5, r5
100088b4:	d808      	bhi.n	100088c8 <tu_fifo_write+0x44>
100088b6:	79e7      	ldrb	r7, [r4, #7]
100088b8:	09ff      	lsrs	r7, r7, #7
100088ba:	d105      	bne.n	100088c8 <tu_fifo_write+0x44>
100088bc:	68e0      	ldr	r0, [r4, #12]
100088be:	b108      	cbz	r0, 100088c4 <tu_fifo_write+0x40>
100088c0:	f000 fb42 	bl	10008f48 <__mutex_exit_veneer>
100088c4:	4638      	mov	r0, r7
100088c6:	bdf8      	pop	{r3, r4, r5, r6, r7, pc}
100088c8:	4295      	cmp	r5, r2
100088ca:	462b      	mov	r3, r5
100088cc:	d303      	bcc.n	100088d6 <tu_fifo_write+0x52>
100088ce:	1a9b      	subs	r3, r3, r2
100088d0:	b29b      	uxth	r3, r3
100088d2:	4293      	cmp	r3, r2
100088d4:	d2fb      	bcs.n	100088ce <tu_fifo_write+0x4a>
100088d6:	88e2      	ldrh	r2, [r4, #6]
100088d8:	6820      	ldr	r0, [r4, #0]
100088da:	f3c2 020e 	ubfx	r2, r2, #0, #15
100088de:	fb02 0003 	mla	r0, r2, r3, r0
100088e2:	4631      	mov	r1, r6
100088e4:	f000 fa2e 	bl	10008d44 <memcpy>
100088e8:	1c6b      	adds	r3, r5, #1
100088ea:	88a2      	ldrh	r2, [r4, #4]
100088ec:	b29b      	uxth	r3, r3
100088ee:	429d      	cmp	r5, r3
100088f0:	ea4f 0142 	mov.w	r1, r2, lsl #1
100088f4:	d904      	bls.n	10008900 <tu_fifo_write+0x7c>
100088f6:	1a5b      	subs	r3, r3, r1
100088f8:	b29b      	uxth	r3, r3
100088fa:	2701      	movs	r7, #1
100088fc:	8123      	strh	r3, [r4, #8]
100088fe:	e7dd      	b.n	100088bc <tu_fifo_write+0x38>
10008900:	ebb3 0f42 	cmp.w	r3, r2, lsl #1
10008904:	dbf9      	blt.n	100088fa <tu_fifo_write+0x76>
10008906:	e7f6      	b.n	100088f6 <tu_fifo_write+0x72>

10008908 <tu_fifo_write_n>:
10008908:	e92d 4ff0 	stmdb	sp!, {r4, r5, r6, r7, r8, r9, sl, fp, lr}
1000890c:	4614      	mov	r4, r2
1000890e:	b083      	sub	sp, #12
10008910:	2a00      	cmp	r2, #0
10008912:	d05c      	beq.n	100089ce <tu_fifo_write_n+0xc6>
10008914:	4605      	mov	r5, r0
10008916:	68c0      	ldr	r0, [r0, #12]
10008918:	468b      	mov	fp, r1
1000891a:	b118      	cbz	r0, 10008924 <tu_fifo_write_n+0x1c>
1000891c:	f04f 31ff 	mov.w	r1, #4294967295
10008920:	f000 fb2a 	bl	10008f78 <__mutex_enter_timeout_ms_veneer>
10008924:	79ea      	ldrb	r2, [r5, #7]
10008926:	892f      	ldrh	r7, [r5, #8]
10008928:	896b      	ldrh	r3, [r5, #10]
1000892a:	09d2      	lsrs	r2, r2, #7
1000892c:	b2bf      	uxth	r7, r7
1000892e:	b29b      	uxth	r3, r3
10008930:	d13b      	bne.n	100089aa <tu_fifo_write_n+0xa2>
10008932:	88ae      	ldrh	r6, [r5, #4]
10008934:	429f      	cmp	r7, r3
10008936:	bf36      	itet	cc
10008938:	ebc3 0346 	rsbcc	r3, r3, r6, lsl #1
1000893c:	1afb      	subcs	r3, r7, r3
1000893e:	19db      	addcc	r3, r3, r7
10008940:	b29b      	uxth	r3, r3
10008942:	429e      	cmp	r6, r3
10008944:	d948      	bls.n	100089d8 <tu_fifo_write_n+0xd0>
10008946:	eba6 0803 	sub.w	r8, r6, r3
1000894a:	fa1f f888 	uxth.w	r8, r8
1000894e:	45a0      	cmp	r8, r4
10008950:	bf28      	it	cs
10008952:	46a0      	movcs	r8, r4
10008954:	f8b5 a006 	ldrh.w	sl, [r5, #6]
10008958:	eb08 0907 	add.w	r9, r8, r7
1000895c:	fa1f f989 	uxth.w	r9, r9
10008960:	42be      	cmp	r6, r7
10008962:	463c      	mov	r4, r7
10008964:	d803      	bhi.n	1000896e <tu_fifo_write_n+0x66>
10008966:	1ba4      	subs	r4, r4, r6
10008968:	b2a4      	uxth	r4, r4
1000896a:	42b4      	cmp	r4, r6
1000896c:	d2fb      	bcs.n	10008966 <tu_fifo_write_n+0x5e>
1000896e:	1b33      	subs	r3, r6, r4
10008970:	6828      	ldr	r0, [r5, #0]
10008972:	b29b      	uxth	r3, r3
10008974:	f3ca 020e 	ubfx	r2, sl, #0, #15
10008978:	4543      	cmp	r3, r8
1000897a:	4692      	mov	sl, r2
1000897c:	fb02 0004 	mla	r0, r2, r4, r0
10008980:	d355      	bcc.n	10008a2e <tu_fifo_write_n+0x126>
10008982:	4659      	mov	r1, fp
10008984:	fb02 f208 	mul.w	r2, r2, r8
10008988:	f000 f9dc 	bl	10008d44 <memcpy>
1000898c:	88aa      	ldrh	r2, [r5, #4]
1000898e:	45b9      	cmp	r9, r7
10008990:	ea4f 0342 	mov.w	r3, r2, lsl #1
10008994:	d302      	bcc.n	1000899c <tu_fifo_write_n+0x94>
10008996:	ebb9 0f42 	cmp.w	r9, r2, lsl #1
1000899a:	db03      	blt.n	100089a4 <tu_fifo_write_n+0x9c>
1000899c:	eba9 0903 	sub.w	r9, r9, r3
100089a0:	fa1f f989 	uxth.w	r9, r9
100089a4:	f8a5 9008 	strh.w	r9, [r5, #8]
100089a8:	e018      	b.n	100089dc <tu_fifo_write_n+0xd4>
100089aa:	f8b5 8004 	ldrh.w	r8, [r5, #4]
100089ae:	4544      	cmp	r4, r8
100089b0:	d31d      	bcc.n	100089ee <tu_fifo_write_n+0xe6>
100089b2:	f8b5 a006 	ldrh.w	sl, [r5, #6]
100089b6:	eba4 0408 	sub.w	r4, r4, r8
100089ba:	f3ca 020e 	ubfx	r2, sl, #0, #15
100089be:	fb02 bb04 	mla	fp, r2, r4, fp
100089c2:	f1b8 0f00 	cmp.w	r8, #0
100089c6:	d009      	beq.n	100089dc <tu_fifo_write_n+0xd4>
100089c8:	461f      	mov	r7, r3
100089ca:	4646      	mov	r6, r8
100089cc:	e7c4      	b.n	10008958 <tu_fifo_write_n+0x50>
100089ce:	4690      	mov	r8, r2
100089d0:	4640      	mov	r0, r8
100089d2:	b003      	add	sp, #12
100089d4:	e8bd 8ff0 	ldmia.w	sp!, {r4, r5, r6, r7, r8, r9, sl, fp, pc}
100089d8:	f04f 0800 	mov.w	r8, #0
100089dc:	68e8      	ldr	r0, [r5, #12]
100089de:	2800      	cmp	r0, #0
100089e0:	d0f6      	beq.n	100089d0 <tu_fifo_write_n+0xc8>
100089e2:	f000 fab1 	bl	10008f48 <__mutex_exit_veneer>
100089e6:	4640      	mov	r0, r8
100089e8:	b003      	add	sp, #12
100089ea:	e8bd 8ff0 	ldmia.w	sp!, {r4, r5, r6, r7, r8, r9, sl, fp, pc}
100089ee:	429f      	cmp	r7, r3
100089f0:	bf36      	itet	cc
100089f2:	ebc3 0248 	rsbcc	r2, r3, r8, lsl #1
100089f6:	1afa      	subcs	r2, r7, r3
100089f8:	19d2      	addcc	r2, r2, r7
100089fa:	b292      	uxth	r2, r2
100089fc:	ea4f 0148 	mov.w	r1, r8, lsl #1
10008a00:	4422      	add	r2, r4
10008a02:	428a      	cmp	r2, r1
10008a04:	db0a      	blt.n	10008a1c <tu_fifo_write_n+0x114>
10008a06:	eb03 0908 	add.w	r9, r3, r8
10008a0a:	fa1f f989 	uxth.w	r9, r9
10008a0e:	eba9 0704 	sub.w	r7, r9, r4
10008a12:	b2bf      	uxth	r7, r7
10008a14:	42bb      	cmp	r3, r7
10008a16:	d91e      	bls.n	10008a56 <tu_fifo_write_n+0x14e>
10008a18:	1a7f      	subs	r7, r7, r1
10008a1a:	b2bf      	uxth	r7, r7
10008a1c:	eb04 0907 	add.w	r9, r4, r7
10008a20:	4646      	mov	r6, r8
10008a22:	f8b5 a006 	ldrh.w	sl, [r5, #6]
10008a26:	46a0      	mov	r8, r4
10008a28:	fa1f f989 	uxth.w	r9, r9
10008a2c:	e798      	b.n	10008960 <tu_fifo_write_n+0x58>
10008a2e:	fb13 f302 	smulbb	r3, r3, r2
10008a32:	4659      	mov	r1, fp
10008a34:	b29a      	uxth	r2, r3
10008a36:	9201      	str	r2, [sp, #4]
10008a38:	f000 f984 	bl	10008d44 <memcpy>
10008a3c:	9a01      	ldr	r2, [sp, #4]
10008a3e:	6828      	ldr	r0, [r5, #0]
10008a40:	eb0b 0102 	add.w	r1, fp, r2
10008a44:	eba8 0206 	sub.w	r2, r8, r6
10008a48:	4422      	add	r2, r4
10008a4a:	fb12 f20a 	smulbb	r2, r2, sl
10008a4e:	b292      	uxth	r2, r2
10008a50:	f000 f978 	bl	10008d44 <memcpy>
10008a54:	e79a      	b.n	1000898c <tu_fifo_write_n+0x84>
10008a56:	42b9      	cmp	r1, r7
10008a58:	ddde      	ble.n	10008a18 <tu_fifo_write_n+0x110>
10008a5a:	4646      	mov	r6, r8
10008a5c:	f8b5 a006 	ldrh.w	sl, [r5, #6]
10008a60:	46a0      	mov	r8, r4
10008a62:	e77d      	b.n	10008960 <tu_fifo_write_n+0x58>

10008a64 <tu_fifo_clear>:
10008a64:	b510      	push	{r4, lr}
10008a66:	4604      	mov	r4, r0
10008a68:	68c0      	ldr	r0, [r0, #12]
10008a6a:	b118      	cbz	r0, 10008a74 <tu_fifo_clear+0x10>
10008a6c:	f04f 31ff 	mov.w	r1, #4294967295
10008a70:	f000 fa82 	bl	10008f78 <__mutex_enter_timeout_ms_veneer>
10008a74:	6920      	ldr	r0, [r4, #16]
10008a76:	b118      	cbz	r0, 10008a80 <tu_fifo_clear+0x1c>
10008a78:	f04f 31ff 	mov.w	r1, #4294967295
10008a7c:	f000 fa7c 	bl	10008f78 <__mutex_enter_timeout_ms_veneer>
10008a80:	2300      	movs	r3, #0
10008a82:	68e0      	ldr	r0, [r4, #12]
10008a84:	8163      	strh	r3, [r4, #10]
10008a86:	8123      	strh	r3, [r4, #8]
10008a88:	b108      	cbz	r0, 10008a8e <tu_fifo_clear+0x2a>
10008a8a:	f000 fa5d 	bl	10008f48 <__mutex_exit_veneer>
10008a8e:	6920      	ldr	r0, [r4, #16]
10008a90:	b108      	cbz	r0, 10008a96 <tu_fifo_clear+0x32>
10008a92:	f000 fa59 	bl	10008f48 <__mutex_exit_veneer>
10008a96:	2001      	movs	r0, #1
10008a98:	bd10      	pop	{r4, pc}
10008a9a:	bf00      	nop

10008a9c <tu_fifo_set_overwritable>:
10008a9c:	b538      	push	{r3, r4, r5, lr}
10008a9e:	4604      	mov	r4, r0
10008aa0:	68c0      	ldr	r0, [r0, #12]
10008aa2:	460d      	mov	r5, r1
10008aa4:	b118      	cbz	r0, 10008aae <tu_fifo_set_overwritable+0x12>
10008aa6:	f04f 31ff 	mov.w	r1, #4294967295
10008aaa:	f000 fa65 	bl	10008f78 <__mutex_enter_timeout_ms_veneer>
10008aae:	6920      	ldr	r0, [r4, #16]
10008ab0:	b118      	cbz	r0, 10008aba <tu_fifo_set_overwritable+0x1e>
10008ab2:	f04f 31ff 	mov.w	r1, #4294967295
10008ab6:	f000 fa5f 	bl	10008f78 <__mutex_enter_timeout_ms_veneer>
10008aba:	79e3      	ldrb	r3, [r4, #7]
10008abc:	68e0      	ldr	r0, [r4, #12]
10008abe:	f365 13c7 	bfi	r3, r5, #7, #1
10008ac2:	71e3      	strb	r3, [r4, #7]
10008ac4:	b108      	cbz	r0, 10008aca <tu_fifo_set_overwritable+0x2e>
10008ac6:	f000 fa3f 	bl	10008f48 <__mutex_exit_veneer>
10008aca:	6920      	ldr	r0, [r4, #16]
10008acc:	b108      	cbz	r0, 10008ad2 <tu_fifo_set_overwritable+0x36>
10008ace:	f000 fa3b 	bl	10008f48 <__mutex_exit_veneer>
10008ad2:	2001      	movs	r0, #1
10008ad4:	bd38      	pop	{r3, r4, r5, pc}
10008ad6:	bf00      	nop

10008ad8 <pio_add_program>:
10008ad8:	e92d 4ff8 	stmdb	sp!, {r3, r4, r5, r6, r7, r8, r9, sl, fp, lr}
10008adc:	460f      	mov	r7, r1
10008ade:	4606      	mov	r6, r0
10008ae0:	f7fa f9ea 	bl	10002eb8 <hw_claim_lock>
10008ae4:	2301      	movs	r3, #1
10008ae6:	793d      	ldrb	r5, [r7, #4]
10008ae8:	f997 1005 	ldrsb.w	r1, [r7, #5]
10008aec:	f106 422f 	add.w	r2, r6, #2936012800	; 0xaf000000
10008af0:	f8df c0e4 	ldr.w	ip, [pc, #228]	; 10008bd8 <pio_add_program+0x100>
10008af4:	f502 0260 	add.w	r2, r2, #14680064	; 0xe00000
10008af8:	40ab      	lsls	r3, r5
10008afa:	ea4f 5e12 	mov.w	lr, r2, lsr #20
10008afe:	2900      	cmp	r1, #0
10008b00:	f85c 902e 	ldr.w	r9, [ip, lr, lsl #2]
10008b04:	f103 33ff 	add.w	r3, r3, #4294967295
10008b08:	db41      	blt.n	10008b8e <pio_add_program+0xb6>
10008b0a:	f1c5 0220 	rsb	r2, r5, #32
10008b0e:	4291      	cmp	r1, r2
10008b10:	460c      	mov	r4, r1
10008b12:	dc35      	bgt.n	10008b80 <pio_add_program+0xa8>
10008b14:	fa03 f201 	lsl.w	r2, r3, r1
10008b18:	ea12 0f09 	tst.w	r2, r9
10008b1c:	d130      	bne.n	10008b80 <pio_add_program+0xa8>
10008b1e:	4688      	mov	r8, r1
10008b20:	f8d6 2168 	ldr.w	r2, [r6, #360]	; 0x168
10008b24:	f897 a007 	ldrb.w	sl, [r7, #7]
10008b28:	2a00      	cmp	r2, #0
10008b2a:	d14b      	bne.n	10008bc4 <pio_add_program+0xec>
10008b2c:	f01a 0f04 	tst.w	sl, #4
10008b30:	d14b      	bne.n	10008bca <pio_add_program+0xf2>
10008b32:	2900      	cmp	r1, #0
10008b34:	db01      	blt.n	10008b3a <pio_add_program+0x62>
10008b36:	4541      	cmp	r1, r8
10008b38:	d147      	bne.n	10008bca <pio_add_program+0xf2>
10008b3a:	fa03 f308 	lsl.w	r3, r3, r8
10008b3e:	ea19 0f03 	tst.w	r9, r3
10008b42:	d138      	bne.n	10008bb6 <pio_add_program+0xde>
10008b44:	683f      	ldr	r7, [r7, #0]
10008b46:	b195      	cbz	r5, 10008b6e <pio_add_program+0x96>
10008b48:	46c2      	mov	sl, r8
10008b4a:	f8df b090 	ldr.w	fp, [pc, #144]	; 10008bdc <pio_add_program+0x104>
10008b4e:	eb07 0545 	add.w	r5, r7, r5, lsl #1
10008b52:	f837 2b02 	ldrh.w	r2, [r7], #2
10008b56:	f10a 0112 	add.w	r1, sl, #18
10008b5a:	ea12 0f0b 	tst.w	r2, fp
10008b5e:	bf08      	it	eq
10008b60:	4442      	addeq	r2, r8
10008b62:	42af      	cmp	r7, r5
10008b64:	f10a 0a01 	add.w	sl, sl, #1
10008b68:	f846 2021 	str.w	r2, [r6, r1, lsl #2]
10008b6c:	d1f1      	bne.n	10008b52 <pio_add_program+0x7a>
10008b6e:	ea49 0303 	orr.w	r3, r9, r3
10008b72:	f84c 302e 	str.w	r3, [ip, lr, lsl #2]
10008b76:	f7fa f9b1 	bl	10002edc <hw_claim_unlock>
10008b7a:	4620      	mov	r0, r4
10008b7c:	e8bd 8ff8 	ldmia.w	sp!, {r3, r4, r5, r6, r7, r8, r9, sl, fp, pc}
10008b80:	f04f 34ff 	mov.w	r4, #4294967295
10008b84:	f7fa f9aa 	bl	10002edc <hw_claim_unlock>
10008b88:	4620      	mov	r0, r4
10008b8a:	e8bd 8ff8 	ldmia.w	sp!, {r3, r4, r5, r6, r7, r8, r9, sl, fp, pc}
10008b8e:	f1d5 0420 	rsbs	r4, r5, #32
10008b92:	d410      	bmi.n	10008bb6 <pio_add_program+0xde>
10008b94:	fa03 f204 	lsl.w	r2, r3, r4
10008b98:	ea12 0f09 	tst.w	r2, r9
10008b9c:	46a0      	mov	r8, r4
10008b9e:	d104      	bne.n	10008baa <pio_add_program+0xd2>
10008ba0:	e7be      	b.n	10008b20 <pio_add_program+0x48>
10008ba2:	ea12 0f09 	tst.w	r2, r9
10008ba6:	46a0      	mov	r8, r4
10008ba8:	d0ba      	beq.n	10008b20 <pio_add_program+0x48>
10008baa:	3c01      	subs	r4, #1
10008bac:	f1b4 3fff 	cmp.w	r4, #4294967295
10008bb0:	fa03 f204 	lsl.w	r2, r3, r4
10008bb4:	d1f5      	bne.n	10008ba2 <pio_add_program+0xca>
10008bb6:	f06f 0408 	mvn.w	r4, #8
10008bba:	f7fa f98f 	bl	10002edc <hw_claim_unlock>
10008bbe:	4620      	mov	r0, r4
10008bc0:	e8bd 8ff8 	ldmia.w	sp!, {r3, r4, r5, r6, r7, r8, r9, sl, fp, pc}
10008bc4:	f01a 0f01 	tst.w	sl, #1
10008bc8:	d0b3      	beq.n	10008b32 <pio_add_program+0x5a>
10008bca:	f06f 040a 	mvn.w	r4, #10
10008bce:	f7fa f985 	bl	10002edc <hw_claim_unlock>
10008bd2:	4620      	mov	r0, r4
10008bd4:	e8bd 8ff8 	ldmia.w	sp!, {r3, r4, r5, r6, r7, r8, r9, sl, fp, pc}
10008bd8:	20002890 	.word	0x20002890
10008bdc:	ffffe000 	.word	0xffffe000

10008be0 <pio_sm_set_consecutive_pindirs>:
10008be0:	e92d 41f0 	stmdb	sp!, {r4, r5, r6, r7, r8, lr}
10008be4:	f8d0 4168 	ldr.w	r4, [r0, #360]	; 0x168
10008be8:	f89d 6018 	ldrb.w	r6, [sp, #24]
10008bec:	1b12      	subs	r2, r2, r4
10008bee:	2a1f      	cmp	r2, #31
10008bf0:	d83a      	bhi.n	10008c68 <pio_sm_set_consecutive_pindirs+0x88>
10008bf2:	f24e 079f 	movw	r7, #57503	; 0xe09f
10008bf6:	f24e 0580 	movw	r5, #57472	; 0xe080
10008bfa:	f44f 3400 	mov.w	r4, #131072	; 0x20000
10008bfe:	eb01 0c41 	add.w	ip, r1, r1, lsl #1
10008c02:	eb00 0ecc 	add.w	lr, r0, ip, lsl #3
10008c06:	2e00      	cmp	r6, #0
10008c08:	bf18      	it	ne
10008c0a:	463d      	movne	r5, r7
10008c0c:	f50e 5e43 	add.w	lr, lr, #12480	; 0x30c0
10008c10:	eb00 0ccc 	add.w	ip, r0, ip, lsl #3
10008c14:	2b05      	cmp	r3, #5
10008c16:	f8dc 70dc 	ldr.w	r7, [ip, #220]	; 0xdc
10008c1a:	ea4f 0841 	mov.w	r8, r1, lsl #1
10008c1e:	f8dc 60cc 	ldr.w	r6, [ip, #204]	; 0xcc
10008c22:	f10e 0e0c 	add.w	lr, lr, #12
10008c26:	f8ce 4000 	str.w	r4, [lr]
10008c2a:	d90c      	bls.n	10008c46 <pio_sm_set_consecutive_pindirs+0x66>
10008c2c:	0154      	lsls	r4, r2, #5
10008c2e:	3b05      	subs	r3, #5
10008c30:	f044 54a0 	orr.w	r4, r4, #335544320	; 0x14000000
10008c34:	3205      	adds	r2, #5
10008c36:	2b05      	cmp	r3, #5
10008c38:	f8cc 40dc 	str.w	r4, [ip, #220]	; 0xdc
10008c3c:	f002 021f 	and.w	r2, r2, #31
10008c40:	f8cc 50d8 	str.w	r5, [ip, #216]	; 0xd8
10008c44:	d8f2      	bhi.n	10008c2c <pio_sm_set_consecutive_pindirs+0x4c>
10008c46:	4441      	add	r1, r8
10008c48:	eb00 04c1 	add.w	r4, r0, r1, lsl #3
10008c4c:	2000      	movs	r0, #0
10008c4e:	0151      	lsls	r1, r2, #5
10008c50:	ea41 6383 	orr.w	r3, r1, r3, lsl #26
10008c54:	f8c4 30dc 	str.w	r3, [r4, #220]	; 0xdc
10008c58:	f8c4 50d8 	str.w	r5, [r4, #216]	; 0xd8
10008c5c:	f8c4 70dc 	str.w	r7, [r4, #220]	; 0xdc
10008c60:	f8c4 60cc 	str.w	r6, [r4, #204]	; 0xcc
10008c64:	e8bd 81f0 	ldmia.w	sp!, {r4, r5, r6, r7, r8, pc}
10008c68:	f06f 0004 	mvn.w	r0, #4
10008c6c:	e7fa      	b.n	10008c64 <pio_sm_set_consecutive_pindirs+0x84>
10008c6e:	bf00      	nop

10008c70 <pio_sm_init>:
10008c70:	b5f0      	push	{r4, r5, r6, r7, lr}
10008c72:	2501      	movs	r5, #1
10008c74:	6804      	ldr	r4, [r0, #0]
10008c76:	408d      	lsls	r5, r1
10008c78:	ea24 0405 	bic.w	r4, r4, r5
10008c7c:	6004      	str	r4, [r0, #0]
10008c7e:	b3ab      	cbz	r3, 10008cec <pio_sm_init+0x7c>
10008c80:	e9d3 5601 	ldrd	r5, r6, [r3, #4]
10008c84:	681f      	ldr	r7, [r3, #0]
10008c86:	68dc      	ldr	r4, [r3, #12]
10008c88:	eb01 0341 	add.w	r3, r1, r1, lsl #1
10008c8c:	eb00 03c3 	add.w	r3, r0, r3, lsl #3
10008c90:	f8c3 70c8 	str.w	r7, [r3, #200]	; 0xc8
10008c94:	ea4f 0c41 	mov.w	ip, r1, lsl #1
10008c98:	f8c3 60d0 	str.w	r6, [r3, #208]	; 0xd0
10008c9c:	f8c3 50cc 	str.w	r5, [r3, #204]	; 0xcc
10008ca0:	f8c3 40dc 	str.w	r4, [r3, #220]	; 0xdc
10008ca4:	eb0c 0301 	add.w	r3, ip, r1
10008ca8:	f04f 3e01 	mov.w	lr, #16843009	; 0x1010101
10008cac:	f04f 4600 	mov.w	r6, #2147483648	; 0x80000000
10008cb0:	eb00 0cc3 	add.w	ip, r0, r3, lsl #3
10008cb4:	f002 041f 	and.w	r4, r2, #31
10008cb8:	eb00 02c3 	add.w	r2, r0, r3, lsl #3
10008cbc:	2301      	movs	r3, #1
10008cbe:	f50c 5c86 	add.w	ip, ip, #4288	; 0x10c0
10008cc2:	f101 0708 	add.w	r7, r1, #8
10008cc6:	1d0d      	adds	r5, r1, #4
10008cc8:	fa0e f101 	lsl.w	r1, lr, r1
10008ccc:	f8cc 6010 	str.w	r6, [ip, #16]
10008cd0:	fa03 f505 	lsl.w	r5, r3, r5
10008cd4:	f8cc 6010 	str.w	r6, [ip, #16]
10008cd8:	40bb      	lsls	r3, r7
10008cda:	6081      	str	r1, [r0, #8]
10008cdc:	f500 5000 	add.w	r0, r0, #8192	; 0x2000
10008ce0:	6005      	str	r5, [r0, #0]
10008ce2:	6003      	str	r3, [r0, #0]
10008ce4:	2000      	movs	r0, #0
10008ce6:	f8c2 40d8 	str.w	r4, [r2, #216]	; 0xd8
10008cea:	bdf0      	pop	{r4, r5, r6, r7, pc}
10008cec:	f44f 3780 	mov.w	r7, #65536	; 0x10000
10008cf0:	f44f 2640 	mov.w	r6, #786432	; 0xc0000
10008cf4:	f44f 35f8 	mov.w	r5, #126976	; 0x1f000
10008cf8:	eb01 0441 	add.w	r4, r1, r1, lsl #1
10008cfc:	eb00 04c4 	add.w	r4, r0, r4, lsl #3
10008d00:	f8c4 70c8 	str.w	r7, [r4, #200]	; 0xc8
10008d04:	ea4f 0c41 	mov.w	ip, r1, lsl #1
10008d08:	f8c4 60d0 	str.w	r6, [r4, #208]	; 0xd0
10008d0c:	f8c4 50cc 	str.w	r5, [r4, #204]	; 0xcc
10008d10:	f8c4 30dc 	str.w	r3, [r4, #220]	; 0xdc
10008d14:	e7c6      	b.n	10008ca4 <pio_sm_init+0x34>
10008d16:	bf00      	nop

10008d18 <dma_claim_unused_channel>:
10008d18:	b510      	push	{r4, lr}
10008d1a:	4c05      	ldr	r4, [pc, #20]	; (10008d30 <dma_claim_unused_channel+0x18>)
10008d1c:	b082      	sub	sp, #8
10008d1e:	4601      	mov	r1, r0
10008d20:	230f      	movs	r3, #15
10008d22:	2200      	movs	r2, #0
10008d24:	9400      	str	r4, [sp, #0]
10008d26:	4803      	ldr	r0, [pc, #12]	; (10008d34 <dma_claim_unused_channel+0x1c>)
10008d28:	f7fa f910 	bl	10002f4c <hw_claim_unused_from_range>
10008d2c:	b002      	add	sp, #8
10008d2e:	bd10      	pop	{r4, pc}
10008d30:	100094e8 	.word	0x100094e8
10008d34:	2000302e 	.word	0x2000302e

10008d38 <__errno>:
10008d38:	4b01      	ldr	r3, [pc, #4]	; (10008d40 <__errno+0x8>)
10008d3a:	6818      	ldr	r0, [r3, #0]
10008d3c:	4770      	bx	lr
10008d3e:	bf00      	nop
10008d40:	20001238 	.word	0x20001238

10008d44 <memcpy>:
10008d44:	4684      	mov	ip, r0
10008d46:	ea41 0300 	orr.w	r3, r1, r0
10008d4a:	f013 0303 	ands.w	r3, r3, #3
10008d4e:	d149      	bne.n	10008de4 <memcpy+0xa0>
10008d50:	3a40      	subs	r2, #64	; 0x40
10008d52:	d323      	bcc.n	10008d9c <memcpy+0x58>
10008d54:	680b      	ldr	r3, [r1, #0]
10008d56:	6003      	str	r3, [r0, #0]
10008d58:	684b      	ldr	r3, [r1, #4]
10008d5a:	6043      	str	r3, [r0, #4]
10008d5c:	688b      	ldr	r3, [r1, #8]
10008d5e:	6083      	str	r3, [r0, #8]
10008d60:	68cb      	ldr	r3, [r1, #12]
10008d62:	60c3      	str	r3, [r0, #12]
10008d64:	690b      	ldr	r3, [r1, #16]
10008d66:	6103      	str	r3, [r0, #16]
10008d68:	694b      	ldr	r3, [r1, #20]
10008d6a:	6143      	str	r3, [r0, #20]
10008d6c:	698b      	ldr	r3, [r1, #24]
10008d6e:	6183      	str	r3, [r0, #24]
10008d70:	69cb      	ldr	r3, [r1, #28]
10008d72:	61c3      	str	r3, [r0, #28]
10008d74:	6a0b      	ldr	r3, [r1, #32]
10008d76:	6203      	str	r3, [r0, #32]
10008d78:	6a4b      	ldr	r3, [r1, #36]	; 0x24
10008d7a:	6243      	str	r3, [r0, #36]	; 0x24
10008d7c:	6a8b      	ldr	r3, [r1, #40]	; 0x28
10008d7e:	6283      	str	r3, [r0, #40]	; 0x28
10008d80:	6acb      	ldr	r3, [r1, #44]	; 0x2c
10008d82:	62c3      	str	r3, [r0, #44]	; 0x2c
10008d84:	6b0b      	ldr	r3, [r1, #48]	; 0x30
10008d86:	6303      	str	r3, [r0, #48]	; 0x30
10008d88:	6b4b      	ldr	r3, [r1, #52]	; 0x34
10008d8a:	6343      	str	r3, [r0, #52]	; 0x34
10008d8c:	6b8b      	ldr	r3, [r1, #56]	; 0x38
10008d8e:	6383      	str	r3, [r0, #56]	; 0x38
10008d90:	6bcb      	ldr	r3, [r1, #60]	; 0x3c
10008d92:	63c3      	str	r3, [r0, #60]	; 0x3c
10008d94:	3040      	adds	r0, #64	; 0x40
10008d96:	3140      	adds	r1, #64	; 0x40
10008d98:	3a40      	subs	r2, #64	; 0x40
10008d9a:	d2db      	bcs.n	10008d54 <memcpy+0x10>
10008d9c:	3230      	adds	r2, #48	; 0x30
10008d9e:	d30b      	bcc.n	10008db8 <memcpy+0x74>
10008da0:	680b      	ldr	r3, [r1, #0]
10008da2:	6003      	str	r3, [r0, #0]
10008da4:	684b      	ldr	r3, [r1, #4]
10008da6:	6043      	str	r3, [r0, #4]
10008da8:	688b      	ldr	r3, [r1, #8]
10008daa:	6083      	str	r3, [r0, #8]
10008dac:	68cb      	ldr	r3, [r1, #12]
10008dae:	60c3      	str	r3, [r0, #12]
10008db0:	3010      	adds	r0, #16
10008db2:	3110      	adds	r1, #16
10008db4:	3a10      	subs	r2, #16
10008db6:	d2f3      	bcs.n	10008da0 <memcpy+0x5c>
10008db8:	320c      	adds	r2, #12
10008dba:	d305      	bcc.n	10008dc8 <memcpy+0x84>
10008dbc:	f851 3b04 	ldr.w	r3, [r1], #4
10008dc0:	f840 3b04 	str.w	r3, [r0], #4
10008dc4:	3a04      	subs	r2, #4
10008dc6:	d2f9      	bcs.n	10008dbc <memcpy+0x78>
10008dc8:	3204      	adds	r2, #4
10008dca:	d008      	beq.n	10008dde <memcpy+0x9a>
10008dcc:	07d2      	lsls	r2, r2, #31
10008dce:	bf1c      	itt	ne
10008dd0:	f811 3b01 	ldrbne.w	r3, [r1], #1
10008dd4:	f800 3b01 	strbne.w	r3, [r0], #1
10008dd8:	d301      	bcc.n	10008dde <memcpy+0x9a>
10008dda:	880b      	ldrh	r3, [r1, #0]
10008ddc:	8003      	strh	r3, [r0, #0]
10008dde:	4660      	mov	r0, ip
10008de0:	4770      	bx	lr
10008de2:	bf00      	nop
10008de4:	2a08      	cmp	r2, #8
10008de6:	d313      	bcc.n	10008e10 <memcpy+0xcc>
10008de8:	078b      	lsls	r3, r1, #30
10008dea:	d0b1      	beq.n	10008d50 <memcpy+0xc>
10008dec:	f010 0303 	ands.w	r3, r0, #3
10008df0:	d0ae      	beq.n	10008d50 <memcpy+0xc>
10008df2:	f1c3 0304 	rsb	r3, r3, #4
10008df6:	1ad2      	subs	r2, r2, r3
10008df8:	07db      	lsls	r3, r3, #31
10008dfa:	bf1c      	itt	ne
10008dfc:	f811 3b01 	ldrbne.w	r3, [r1], #1
10008e00:	f800 3b01 	strbne.w	r3, [r0], #1
10008e04:	d3a4      	bcc.n	10008d50 <memcpy+0xc>
10008e06:	f831 3b02 	ldrh.w	r3, [r1], #2
10008e0a:	f820 3b02 	strh.w	r3, [r0], #2
10008e0e:	e79f      	b.n	10008d50 <memcpy+0xc>
10008e10:	3a04      	subs	r2, #4
10008e12:	d3d9      	bcc.n	10008dc8 <memcpy+0x84>
10008e14:	3a01      	subs	r2, #1
10008e16:	f811 3b01 	ldrb.w	r3, [r1], #1
10008e1a:	f800 3b01 	strb.w	r3, [r0], #1
10008e1e:	d2f9      	bcs.n	10008e14 <memcpy+0xd0>
10008e20:	780b      	ldrb	r3, [r1, #0]
10008e22:	7003      	strb	r3, [r0, #0]
10008e24:	784b      	ldrb	r3, [r1, #1]
10008e26:	7043      	strb	r3, [r0, #1]
10008e28:	788b      	ldrb	r3, [r1, #2]
10008e2a:	7083      	strb	r3, [r0, #2]
10008e2c:	4660      	mov	r0, ip
10008e2e:	4770      	bx	lr

10008e30 <memset>:
10008e30:	b570      	push	{r4, r5, r6, lr}
10008e32:	0786      	lsls	r6, r0, #30
10008e34:	d048      	beq.n	10008ec8 <memset+0x98>
10008e36:	1e54      	subs	r4, r2, #1
10008e38:	2a00      	cmp	r2, #0
10008e3a:	d03f      	beq.n	10008ebc <memset+0x8c>
10008e3c:	b2ca      	uxtb	r2, r1
10008e3e:	4603      	mov	r3, r0
10008e40:	e001      	b.n	10008e46 <memset+0x16>
10008e42:	3c01      	subs	r4, #1
10008e44:	d33a      	bcc.n	10008ebc <memset+0x8c>
10008e46:	f803 2b01 	strb.w	r2, [r3], #1
10008e4a:	079d      	lsls	r5, r3, #30
10008e4c:	d1f9      	bne.n	10008e42 <memset+0x12>
10008e4e:	2c03      	cmp	r4, #3
10008e50:	d92d      	bls.n	10008eae <memset+0x7e>
10008e52:	b2cd      	uxtb	r5, r1
10008e54:	2c0f      	cmp	r4, #15
10008e56:	ea45 2505 	orr.w	r5, r5, r5, lsl #8
10008e5a:	ea45 4505 	orr.w	r5, r5, r5, lsl #16
10008e5e:	d936      	bls.n	10008ece <memset+0x9e>
10008e60:	f1a4 0c10 	sub.w	ip, r4, #16
10008e64:	f103 0e20 	add.w	lr, r3, #32
10008e68:	f103 0210 	add.w	r2, r3, #16
10008e6c:	f02c 060f 	bic.w	r6, ip, #15
10008e70:	ea4f 1c1c 	mov.w	ip, ip, lsr #4
10008e74:	44b6      	add	lr, r6
10008e76:	e942 5504 	strd	r5, r5, [r2, #-16]
10008e7a:	e942 5502 	strd	r5, r5, [r2, #-8]
10008e7e:	3210      	adds	r2, #16
10008e80:	4572      	cmp	r2, lr
10008e82:	d1f8      	bne.n	10008e76 <memset+0x46>
10008e84:	f10c 0201 	add.w	r2, ip, #1
10008e88:	f014 0f0c 	tst.w	r4, #12
10008e8c:	f004 0c0f 	and.w	ip, r4, #15
10008e90:	eb03 1202 	add.w	r2, r3, r2, lsl #4
10008e94:	d013      	beq.n	10008ebe <memset+0x8e>
10008e96:	f1ac 0304 	sub.w	r3, ip, #4
10008e9a:	f023 0303 	bic.w	r3, r3, #3
10008e9e:	3304      	adds	r3, #4
10008ea0:	4413      	add	r3, r2
10008ea2:	f842 5b04 	str.w	r5, [r2], #4
10008ea6:	4293      	cmp	r3, r2
10008ea8:	d1fb      	bne.n	10008ea2 <memset+0x72>
10008eaa:	f00c 0403 	and.w	r4, ip, #3
10008eae:	b12c      	cbz	r4, 10008ebc <memset+0x8c>
10008eb0:	b2ca      	uxtb	r2, r1
10008eb2:	441c      	add	r4, r3
10008eb4:	f803 2b01 	strb.w	r2, [r3], #1
10008eb8:	429c      	cmp	r4, r3
10008eba:	d1fb      	bne.n	10008eb4 <memset+0x84>
10008ebc:	bd70      	pop	{r4, r5, r6, pc}
10008ebe:	4664      	mov	r4, ip
10008ec0:	4613      	mov	r3, r2
10008ec2:	2c00      	cmp	r4, #0
10008ec4:	d1f4      	bne.n	10008eb0 <memset+0x80>
10008ec6:	e7f9      	b.n	10008ebc <memset+0x8c>
10008ec8:	4603      	mov	r3, r0
10008eca:	4614      	mov	r4, r2
10008ecc:	e7bf      	b.n	10008e4e <memset+0x1e>
10008ece:	461a      	mov	r2, r3
10008ed0:	46a4      	mov	ip, r4
10008ed2:	e7e0      	b.n	10008e96 <memset+0x66>

10008ed4 <strlen>:
10008ed4:	f020 0103 	bic.w	r1, r0, #3
10008ed8:	f010 0003 	ands.w	r0, r0, #3
10008edc:	f1c0 0000 	rsb	r0, r0, #0
10008ee0:	f851 3b04 	ldr.w	r3, [r1], #4
10008ee4:	f100 0c04 	add.w	ip, r0, #4
10008ee8:	ea4f 0ccc 	mov.w	ip, ip, lsl #3
10008eec:	f06f 0200 	mvn.w	r2, #0
10008ef0:	bf1c      	itt	ne
10008ef2:	fa22 f20c 	lsrne.w	r2, r2, ip
10008ef6:	4313      	orrne	r3, r2
10008ef8:	f04f 0c01 	mov.w	ip, #1
10008efc:	ea4c 2c0c 	orr.w	ip, ip, ip, lsl #8
10008f00:	ea4c 4c0c 	orr.w	ip, ip, ip, lsl #16
10008f04:	eba3 020c 	sub.w	r2, r3, ip
10008f08:	ea22 0203 	bic.w	r2, r2, r3
10008f0c:	ea12 12cc 	ands.w	r2, r2, ip, lsl #7
10008f10:	bf04      	itt	eq
10008f12:	f851 3b04 	ldreq.w	r3, [r1], #4
10008f16:	3004      	addeq	r0, #4
10008f18:	d0f4      	beq.n	10008f04 <strlen+0x30>
10008f1a:	f1c2 0100 	rsb	r1, r2, #0
10008f1e:	ea02 0201 	and.w	r2, r2, r1
10008f22:	fab2 f282 	clz	r2, r2
10008f26:	f1c2 021f 	rsb	r2, r2, #31
10008f2a:	eb00 00d2 	add.w	r0, r0, r2, lsr #3
10008f2e:	4770      	bx	lr

10008f30 <_fini>:
10008f30:	b5f8      	push	{r3, r4, r5, r6, r7, lr}
10008f32:	bf00      	nop
10008f34:	0000      	movs	r0, r0
	...

10008f38 <____aeabi_uldivmod_veneer>:
10008f38:	b401      	push	{r0}
10008f3a:	4802      	ldr	r0, [pc, #8]	; (10008f44 <____aeabi_uldivmod_veneer+0xc>)
10008f3c:	4684      	mov	ip, r0
10008f3e:	bc01      	pop	{r0}
10008f40:	4760      	bx	ip
10008f42:	bf00      	nop
10008f44:	20000e01 	.word	0x20000e01

10008f48 <__mutex_exit_veneer>:
10008f48:	b401      	push	{r0}
10008f4a:	4802      	ldr	r0, [pc, #8]	; (10008f54 <__mutex_exit_veneer+0xc>)
10008f4c:	4684      	mov	ip, r0
10008f4e:	bc01      	pop	{r0}
10008f50:	4760      	bx	ip
10008f52:	bf00      	nop
10008f54:	20000269 	.word	0x20000269

10008f58 <__sqrtf_veneer>:
10008f58:	b401      	push	{r0}
10008f5a:	4802      	ldr	r0, [pc, #8]	; (10008f64 <__sqrtf_veneer+0xc>)
10008f5c:	4684      	mov	ip, r0
10008f5e:	bc01      	pop	{r0}
10008f60:	4760      	bx	ip
10008f62:	bf00      	nop
10008f64:	20000da9 	.word	0x20000da9

10008f68 <__mutex_try_enter_veneer>:
10008f68:	b401      	push	{r0}
10008f6a:	4802      	ldr	r0, [pc, #8]	; (10008f74 <__mutex_try_enter_veneer+0xc>)
10008f6c:	4684      	mov	ip, r0
10008f6e:	bc01      	pop	{r0}
10008f70:	4760      	bx	ip
10008f72:	bf00      	nop
10008f74:	20000111 	.word	0x20000111

10008f78 <__mutex_enter_timeout_ms_veneer>:
10008f78:	b401      	push	{r0}
10008f7a:	4802      	ldr	r0, [pc, #8]	; (10008f84 <__mutex_enter_timeout_ms_veneer+0xc>)
10008f7c:	4684      	mov	ip, r0
10008f7e:	bc01      	pop	{r0}
10008f80:	4760      	bx	ip
10008f82:	bf00      	nop
10008f84:	2000023d 	.word	0x2000023d

10008f88 <__e15_is_bulkin_ep_veneer>:
10008f88:	b401      	push	{r0}
10008f8a:	4802      	ldr	r0, [pc, #8]	; (10008f94 <__e15_is_bulkin_ep_veneer+0xc>)
10008f8c:	4684      	mov	ip, r0
10008f8e:	bc01      	pop	{r0}
10008f90:	4760      	bx	ip
10008f92:	bf00      	nop
10008f94:	20000a4d 	.word	0x20000a4d

10008f98 <__e15_is_critical_frame_period_veneer>:
10008f98:	b401      	push	{r0}
10008f9a:	4802      	ldr	r0, [pc, #8]	; (10008fa4 <__e15_is_critical_frame_period_veneer+0xc>)
10008f9c:	4684      	mov	ip, r0
10008f9e:	bc01      	pop	{r0}
10008fa0:	4760      	bx	ip
10008fa2:	bf00      	nop
10008fa4:	20000a75 	.word	0x20000a75

10008fa8 <__mutex_try_enter_block_until_veneer>:
10008fa8:	b401      	push	{r0}
10008faa:	4802      	ldr	r0, [pc, #8]	; (10008fb4 <__mutex_try_enter_block_until_veneer+0xc>)
10008fac:	4684      	mov	ip, r0
10008fae:	bc01      	pop	{r0}
10008fb0:	4760      	bx	ip
10008fb2:	bf00      	nop
10008fb4:	200001d1 	.word	0x200001d1

10008fb8 <__hw_endpoint_start_next_buffer_veneer>:
10008fb8:	b401      	push	{r0}
10008fba:	4802      	ldr	r0, [pc, #8]	; (10008fc4 <__hw_endpoint_start_next_buffer_veneer+0xc>)
10008fbc:	4684      	mov	ip, r0
10008fbe:	bc01      	pop	{r0}
10008fc0:	4760      	bx	ip
10008fc2:	bf00      	nop
10008fc4:	20000aed 	.word	0x20000aed

10008fc8 <__reset_non_control_endpoints_veneer>:
10008fc8:	b401      	push	{r0}
10008fca:	4802      	ldr	r0, [pc, #8]	; (10008fd4 <__reset_non_control_endpoints_veneer+0xc>)
10008fcc:	4684      	mov	ip, r0
10008fce:	bc01      	pop	{r0}
10008fd0:	4760      	bx	ip
10008fd2:	bf00      	nop
10008fd4:	200002a5 	.word	0x200002a5

10008fd8 <__hw_endpoint_reset_transfer_veneer>:
10008fd8:	b401      	push	{r0}
10008fda:	4802      	ldr	r0, [pc, #8]	; (10008fe4 <__hw_endpoint_reset_transfer_veneer+0xc>)
10008fdc:	4684      	mov	ip, r0
10008fde:	bc01      	pop	{r0}
10008fe0:	4760      	bx	ip
10008fe2:	bf00      	nop
10008fe4:	20000a9d 	.word	0x20000a9d

10008fe8 <___hw_endpoint_buffer_control_update32_veneer>:
10008fe8:	b401      	push	{r0}
10008fea:	4802      	ldr	r0, [pc, #8]	; (10008ff4 <___hw_endpoint_buffer_control_update32_veneer+0xc>)
10008fec:	4684      	mov	ip, r0
10008fee:	bc01      	pop	{r0}
10008ff0:	4760      	bx	ip
10008ff2:	bf00      	nop
10008ff4:	20000aa9 	.word	0x20000aa9

10008ff8 <__pre_init_runtime_init_bootrom_reset>:
10008ff8:	10004491                                .D..

10008ffc <__pre_init_runtime_init_early_resets>:
10008ffc:	10004405                                .D..

10009000 <__pre_init_runtime_init_usb_power_down>:
10009000:	10004439                                9D..

10009004 <__pre_init_runtime_init_clocks>:
10009004:	1000458d                                .E..

10009008 <__pre_init_runtime_init_post_clock_resets>:
10009008:	10004471                                qD..

1000900c <__pre_init_runtime_init_boot_locks_reset>:
1000900c:	10004389                                .C..

10009010 <__pre_init_runtime_init_spin_locks_reset>:
10009010:	100044b9                                .D..

10009014 <__pre_init_runtime_init_bootrom_locking_enable>:
10009014:	10004375                                uC..

10009018 <__pre_init_runtime_init_mutex>:
10009018:	10003449                                I4..

1000901c <__pre_init_runtime_init_install_ram_vector_table>:
1000901c:	100044bd                                .D..

10009020 <__pre_init_runtime_init_default_alarm_pool>:
10009020:	10003821                                !8..

10009024 <__pre_init_first_per_core_initializer>:
10009024:	100043d5                                .C..

10009028 <__pre_init_runtime_init_per_core_bootrom_reset>:
10009028:	100044a5                                .D..

1000902c <__pre_init_runtime_init_per_core_enable_coprocessors>:
1000902c:	10004455                                UD..

10009030 <__pre_init_spinlock_set_extexclall>:
10009030:	10003021                                !0..

10009034 <__pre_init_runtime_init_per_core_irq_priorities>:
10009034:	10003049                                I0..

10009038 <__init_array_start>:
10009038:	100068c1 	.word	0x100068c1

1000903c <__frame_dummy_init_array_entry>:
1000903c:	1000020d 10002dbd                       .....-..

Disassembly of section .data:

20000110 <mutex_try_enter>:
20000110:	4603      	mov	r3, r0
20000112:	b500      	push	{lr}
20000114:	6802      	ldr	r2, [r0, #0]
20000116:	f3ef 8c10 	mrs	ip, PRIMASK
2000011a:	b672      	cpsid	i
2000011c:	e8d2 efcf 	ldaexb	lr, [r2]
20000120:	2001      	movs	r0, #1
20000122:	f1be 0f00 	cmp.w	lr, #0
20000126:	d1f9      	bne.n	2000011c <mutex_try_enter+0xc>
20000128:	e8c2 0f4e 	strexb	lr, r0, [r2]
2000012c:	f1be 0f00 	cmp.w	lr, #0
20000130:	d1f4      	bne.n	2000011c <mutex_try_enter+0xc>
20000132:	f3bf 8f5f 	dmb	sy
20000136:	f993 2004 	ldrsb.w	r2, [r3, #4]
2000013a:	2a00      	cmp	r2, #0
2000013c:	db0a      	blt.n	20000154 <mutex_try_enter+0x44>
2000013e:	b179      	cbz	r1, 20000160 <mutex_try_enter+0x50>
20000140:	2000      	movs	r0, #0
20000142:	600a      	str	r2, [r1, #0]
20000144:	2200      	movs	r2, #0
20000146:	681b      	ldr	r3, [r3, #0]
20000148:	e8c3 2f8f 	stlb	r2, [r3]
2000014c:	f38c 8810 	msr	PRIMASK, ip
20000150:	f85d fb04 	ldr.w	pc, [sp], #4
20000154:	f04f 4250 	mov.w	r2, #3489660928	; 0xd0000000
20000158:	6812      	ldr	r2, [r2, #0]
2000015a:	2001      	movs	r0, #1
2000015c:	711a      	strb	r2, [r3, #4]
2000015e:	e7f1      	b.n	20000144 <mutex_try_enter+0x34>
20000160:	4608      	mov	r0, r1
20000162:	e7ef      	b.n	20000144 <mutex_try_enter+0x34>

20000164 <mutex_enter_block_until>:
20000164:	f04f 4150 	mov.w	r1, #3489660928	; 0xd0000000
20000168:	e92d 43f8 	stmdb	sp!, {r3, r4, r5, r6, r7, r8, r9, lr}
2000016c:	2700      	movs	r7, #0
2000016e:	4604      	mov	r4, r0
20000170:	4616      	mov	r6, r2
20000172:	4699      	mov	r9, r3
20000174:	f8d1 8000 	ldr.w	r8, [r1]
20000178:	e009      	b.n	2000018e <mutex_enter_block_until+0x2a>
2000017a:	6823      	ldr	r3, [r4, #0]
2000017c:	e8c3 7f8f 	stlb	r7, [r3]
20000180:	f38c 8810 	msr	PRIMASK, ip
20000184:	4630      	mov	r0, r6
20000186:	4649      	mov	r1, r9
20000188:	f000 fff2 	bl	20001170 <__best_effort_wfe_or_timeout_veneer>
2000018c:	b9e8      	cbnz	r0, 200001ca <mutex_enter_block_until+0x66>
2000018e:	6825      	ldr	r5, [r4, #0]
20000190:	f3ef 8c10 	mrs	ip, PRIMASK
20000194:	b672      	cpsid	i
20000196:	e8d5 2fcf 	ldaexb	r2, [r5]
2000019a:	2301      	movs	r3, #1
2000019c:	2a00      	cmp	r2, #0
2000019e:	d1fa      	bne.n	20000196 <mutex_enter_block_until+0x32>
200001a0:	e8c5 3f42 	strexb	r2, r3, [r5]
200001a4:	2a00      	cmp	r2, #0
200001a6:	d1f6      	bne.n	20000196 <mutex_enter_block_until+0x32>
200001a8:	f3bf 8f5f 	dmb	sy
200001ac:	f994 5004 	ldrsb.w	r5, [r4, #4]
200001b0:	2d00      	cmp	r5, #0
200001b2:	dae2      	bge.n	2000017a <mutex_enter_block_until+0x16>
200001b4:	2300      	movs	r3, #0
200001b6:	6822      	ldr	r2, [r4, #0]
200001b8:	f884 8004 	strb.w	r8, [r4, #4]
200001bc:	e8c2 3f8f 	stlb	r3, [r2]
200001c0:	f38c 8810 	msr	PRIMASK, ip
200001c4:	2001      	movs	r0, #1
200001c6:	e8bd 83f8 	ldmia.w	sp!, {r3, r4, r5, r6, r7, r8, r9, pc}
200001ca:	2000      	movs	r0, #0
200001cc:	e8bd 83f8 	ldmia.w	sp!, {r3, r4, r5, r6, r7, r8, r9, pc}

200001d0 <mutex_try_enter_block_until>:
200001d0:	b530      	push	{r4, r5, lr}
200001d2:	4601      	mov	r1, r0
200001d4:	6804      	ldr	r4, [r0, #0]
200001d6:	f3ef 8c10 	mrs	ip, PRIMASK
200001da:	b672      	cpsid	i
200001dc:	e8d4 efcf 	ldaexb	lr, [r4]
200001e0:	2501      	movs	r5, #1
200001e2:	f1be 0f00 	cmp.w	lr, #0
200001e6:	d1f9      	bne.n	200001dc <mutex_try_enter_block_until+0xc>
200001e8:	e8c4 5f4e 	strexb	lr, r5, [r4]
200001ec:	f1be 0f00 	cmp.w	lr, #0
200001f0:	d1f4      	bne.n	200001dc <mutex_try_enter_block_until+0xc>
200001f2:	f3bf 8f5f 	dmb	sy
200001f6:	f990 4004 	ldrsb.w	r4, [r0, #4]
200001fa:	2c00      	cmp	r4, #0
200001fc:	db11      	blt.n	20000222 <mutex_try_enter_block_until+0x52>
200001fe:	2100      	movs	r1, #0
20000200:	6805      	ldr	r5, [r0, #0]
20000202:	e8c5 1f8f 	stlb	r1, [r5]
20000206:	f38c 8810 	msr	PRIMASK, ip
2000020a:	f04f 4c50 	mov.w	ip, #3489660928	; 0xd0000000
2000020e:	f99c c000 	ldrsb.w	ip, [ip]
20000212:	45a4      	cmp	ip, r4
20000214:	d101      	bne.n	2000021a <mutex_try_enter_block_until+0x4a>
20000216:	4608      	mov	r0, r1
20000218:	bd30      	pop	{r4, r5, pc}
2000021a:	e8bd 4030 	ldmia.w	sp!, {r4, r5, lr}
2000021e:	f7ff bfa1 	b.w	20000164 <mutex_enter_block_until>
20000222:	f04f 4050 	mov.w	r0, #3489660928	; 0xd0000000
20000226:	6800      	ldr	r0, [r0, #0]
20000228:	2300      	movs	r3, #0
2000022a:	680a      	ldr	r2, [r1, #0]
2000022c:	7108      	strb	r0, [r1, #4]
2000022e:	e8c2 3f8f 	stlb	r3, [r2]
20000232:	f38c 8810 	msr	PRIMASK, ip
20000236:	2001      	movs	r0, #1
20000238:	bd30      	pop	{r4, r5, pc}
2000023a:	bf00      	nop

2000023c <mutex_enter_timeout_ms>:
2000023c:	b570      	push	{r4, r5, r6, lr}
2000023e:	4605      	mov	r5, r0
20000240:	460c      	mov	r4, r1
20000242:	f000 ff9d 	bl	20001180 <__time_us_64_veneer>
20000246:	f44f 7c7a 	mov.w	ip, #1000	; 0x3e8
2000024a:	4602      	mov	r2, r0
2000024c:	460b      	mov	r3, r1
2000024e:	fbe4 230c 	umlal	r2, r3, r4, ip
20000252:	2b00      	cmp	r3, #0
20000254:	4628      	mov	r0, r5
20000256:	e8bd 4070 	ldmia.w	sp!, {r4, r5, r6, lr}
2000025a:	bfbc      	itt	lt
2000025c:	f04f 32ff 	movlt.w	r2, #4294967295
20000260:	f06f 4300 	mvnlt.w	r3, #2147483648	; 0x80000000
20000264:	f7ff bf7e 	b.w	20000164 <mutex_enter_block_until>

20000268 <mutex_exit>:
20000268:	6803      	ldr	r3, [r0, #0]
2000026a:	f3ef 8210 	mrs	r2, PRIMASK
2000026e:	b672      	cpsid	i
20000270:	e8d3 cfcf 	ldaexb	ip, [r3]
20000274:	2101      	movs	r1, #1
20000276:	f1bc 0f00 	cmp.w	ip, #0
2000027a:	d1f9      	bne.n	20000270 <mutex_exit+0x8>
2000027c:	e8c3 1f4c 	strexb	ip, r1, [r3]
20000280:	f1bc 0f00 	cmp.w	ip, #0
20000284:	d1f4      	bne.n	20000270 <mutex_exit+0x8>
20000286:	f3bf 8f5f 	dmb	sy
2000028a:	f04f 0cff 	mov.w	ip, #255	; 0xff
2000028e:	2300      	movs	r3, #0
20000290:	6801      	ldr	r1, [r0, #0]
20000292:	f880 c004 	strb.w	ip, [r0, #4]
20000296:	e8c1 3f8f 	stlb	r3, [r1]
2000029a:	f382 8810 	msr	PRIMASK, r2
2000029e:	bf40      	sev
200002a0:	4770      	bx	lr
200002a2:	bf00      	nop

200002a4 <reset_non_control_endpoints>:
200002a4:	2100      	movs	r1, #0
200002a6:	b508      	push	{r3, lr}
200002a8:	4b13      	ldr	r3, [pc, #76]	; (200002f8 <reset_non_control_endpoints+0x54>)
200002aa:	f44f 7270 	mov.w	r2, #960	; 0x3c0
200002ae:	6099      	str	r1, [r3, #8]
200002b0:	4812      	ldr	r0, [pc, #72]	; (200002fc <reset_non_control_endpoints+0x58>)
200002b2:	60d9      	str	r1, [r3, #12]
200002b4:	6119      	str	r1, [r3, #16]
200002b6:	6159      	str	r1, [r3, #20]
200002b8:	6199      	str	r1, [r3, #24]
200002ba:	61d9      	str	r1, [r3, #28]
200002bc:	6219      	str	r1, [r3, #32]
200002be:	6259      	str	r1, [r3, #36]	; 0x24
200002c0:	6299      	str	r1, [r3, #40]	; 0x28
200002c2:	62d9      	str	r1, [r3, #44]	; 0x2c
200002c4:	6319      	str	r1, [r3, #48]	; 0x30
200002c6:	6359      	str	r1, [r3, #52]	; 0x34
200002c8:	6399      	str	r1, [r3, #56]	; 0x38
200002ca:	63d9      	str	r1, [r3, #60]	; 0x3c
200002cc:	6419      	str	r1, [r3, #64]	; 0x40
200002ce:	6459      	str	r1, [r3, #68]	; 0x44
200002d0:	6499      	str	r1, [r3, #72]	; 0x48
200002d2:	64d9      	str	r1, [r3, #76]	; 0x4c
200002d4:	6519      	str	r1, [r3, #80]	; 0x50
200002d6:	6559      	str	r1, [r3, #84]	; 0x54
200002d8:	6599      	str	r1, [r3, #88]	; 0x58
200002da:	65d9      	str	r1, [r3, #92]	; 0x5c
200002dc:	6619      	str	r1, [r3, #96]	; 0x60
200002de:	6659      	str	r1, [r3, #100]	; 0x64
200002e0:	6699      	str	r1, [r3, #104]	; 0x68
200002e2:	66d9      	str	r1, [r3, #108]	; 0x6c
200002e4:	6719      	str	r1, [r3, #112]	; 0x70
200002e6:	6759      	str	r1, [r3, #116]	; 0x74
200002e8:	6799      	str	r1, [r3, #120]	; 0x78
200002ea:	67d9      	str	r1, [r3, #124]	; 0x7c
200002ec:	f000 ff18 	bl	20001120 <__memset_veneer>
200002f0:	4b03      	ldr	r3, [pc, #12]	; (20000300 <reset_non_control_endpoints+0x5c>)
200002f2:	4a04      	ldr	r2, [pc, #16]	; (20000304 <reset_non_control_endpoints+0x60>)
200002f4:	601a      	str	r2, [r3, #0]
200002f6:	bd08      	pop	{r3, pc}
200002f8:	50100000 	.word	0x50100000
200002fc:	20002c14 	.word	0x20002c14
20000300:	20002fdc 	.word	0x20002fdc
20000304:	50100180 	.word	0x50100180

20000308 <hw_handle_buff_status>:
20000308:	e92d 4ff0 	stmdb	sp!, {r4, r5, r6, r7, r8, r9, sl, fp, lr}
2000030c:	4b23      	ldr	r3, [pc, #140]	; (2000039c <hw_handle_buff_status+0x94>)
2000030e:	b085      	sub	sp, #20
20000310:	f8d3 a058 	ldr.w	sl, [r3, #88]	; 0x58
20000314:	f1ba 0f00 	cmp.w	sl, #0
20000318:	d025      	beq.n	20000366 <hw_handle_buff_status+0x5e>
2000031a:	2400      	movs	r4, #0
2000031c:	2501      	movs	r5, #1
2000031e:	f04f 0802 	mov.w	r8, #2
20000322:	4f1f      	ldr	r7, [pc, #124]	; (200003a0 <hw_handle_buff_status+0x98>)
20000324:	e003      	b.n	2000032e <hw_handle_buff_status+0x26>
20000326:	006d      	lsls	r5, r5, #1
20000328:	b2dc      	uxtb	r4, r3
2000032a:	2c20      	cmp	r4, #32
2000032c:	d01b      	beq.n	20000366 <hw_handle_buff_status+0x5e>
2000032e:	ea1a 0f05 	tst.w	sl, r5
20000332:	f104 0301 	add.w	r3, r4, #1
20000336:	d0f6      	beq.n	20000326 <hw_handle_buff_status+0x1e>
20000338:	43e6      	mvns	r6, r4
2000033a:	ea4f 0954 	mov.w	r9, r4, lsr #1
2000033e:	f006 0601 	and.w	r6, r6, #1
20000342:	fb18 6b09 	smlabb	fp, r8, r9, r6
20000346:	4b17      	ldr	r3, [pc, #92]	; (200003a4 <hw_handle_buff_status+0x9c>)
20000348:	eb07 1b4b 	add.w	fp, r7, fp, lsl #5
2000034c:	659d      	str	r5, [r3, #88]	; 0x58
2000034e:	4658      	mov	r0, fp
20000350:	ea2a 0a05 	bic.w	sl, sl, r5
20000354:	006d      	lsls	r5, r5, #1
20000356:	f000 fbfb 	bl	20000b50 <hw_endpoint_xfer_continue>
2000035a:	b938      	cbnz	r0, 2000036c <hw_handle_buff_status+0x64>
2000035c:	3401      	adds	r4, #1
2000035e:	b2e4      	uxtb	r4, r4
20000360:	f1ba 0f00 	cmp.w	sl, #0
20000364:	d1e1      	bne.n	2000032a <hw_handle_buff_status+0x22>
20000366:	b005      	add	sp, #20
20000368:	e8bd 8ff0 	ldmia.w	sp!, {r4, r5, r6, r7, r8, r9, sl, fp, pc}
2000036c:	f44f 63e0 	mov.w	r3, #1792	; 0x700
20000370:	f8ad 3004 	strh.w	r3, [sp, #4]
20000374:	2300      	movs	r3, #0
20000376:	eb06 0649 	add.w	r6, r6, r9, lsl #1
2000037a:	eb07 1646 	add.w	r6, r7, r6, lsl #5
2000037e:	78b2      	ldrb	r2, [r6, #2]
20000380:	f88d 3009 	strb.w	r3, [sp, #9]
20000384:	8af3      	ldrh	r3, [r6, #22]
20000386:	a801      	add	r0, sp, #4
20000388:	2101      	movs	r1, #1
2000038a:	f88d 2008 	strb.w	r2, [sp, #8]
2000038e:	9303      	str	r3, [sp, #12]
20000390:	f000 fbfe 	bl	20000b90 <dcd_event_handler>
20000394:	4658      	mov	r0, fp
20000396:	f000 fb81 	bl	20000a9c <hw_endpoint_reset_transfer>
2000039a:	e7df      	b.n	2000035c <hw_handle_buff_status+0x54>
2000039c:	50110000 	.word	0x50110000
200003a0:	20002bd4 	.word	0x20002bd4
200003a4:	50113000 	.word	0x50113000

200003a8 <dcd_rp2040_irq>:
200003a8:	b570      	push	{r4, r5, r6, lr}
200003aa:	4bb2      	ldr	r3, [pc, #712]	; (20000674 <dcd_rp2040_irq+0x2cc>)
200003ac:	b084      	sub	sp, #16
200003ae:	f8d3 5098 	ldr.w	r5, [r3, #152]	; 0x98
200003b2:	f415 3600 	ands.w	r6, r5, #131072	; 0x20000
200003b6:	d074      	beq.n	200004a2 <dcd_rp2040_irq+0xfa>
200003b8:	4baf      	ldr	r3, [pc, #700]	; (20000678 <dcd_rp2040_irq+0x2d0>)
200003ba:	4cb0      	ldr	r4, [pc, #704]	; (2000067c <dcd_rp2040_irq+0x2d4>)
200003bc:	6a99      	ldr	r1, [r3, #40]	; 0x28
200003be:	f894 303b 	ldrb.w	r3, [r4, #59]	; 0x3b
200003c2:	4aaf      	ldr	r2, [pc, #700]	; (20000680 <dcd_rp2040_irq+0x2d8>)
200003c4:	2b02      	cmp	r3, #2
200003c6:	6011      	str	r1, [r2, #0]
200003c8:	f000 80f9 	beq.w	200005be <dcd_rp2040_irq+0x216>
200003cc:	2600      	movs	r6, #0
200003ce:	f894 307b 	ldrb.w	r3, [r4, #123]	; 0x7b
200003d2:	2b02      	cmp	r3, #2
200003d4:	f000 81c8 	beq.w	20000768 <dcd_rp2040_irq+0x3c0>
200003d8:	f894 30bb 	ldrb.w	r3, [r4, #187]	; 0xbb
200003dc:	2b02      	cmp	r3, #2
200003de:	f000 81b9 	beq.w	20000754 <dcd_rp2040_irq+0x3ac>
200003e2:	f894 30fb 	ldrb.w	r3, [r4, #251]	; 0xfb
200003e6:	2b02      	cmp	r3, #2
200003e8:	f000 81aa 	beq.w	20000740 <dcd_rp2040_irq+0x398>
200003ec:	f894 313b 	ldrb.w	r3, [r4, #315]	; 0x13b
200003f0:	2b02      	cmp	r3, #2
200003f2:	f000 819a 	beq.w	2000072a <dcd_rp2040_irq+0x382>
200003f6:	f894 317b 	ldrb.w	r3, [r4, #379]	; 0x17b
200003fa:	2b02      	cmp	r3, #2
200003fc:	f000 818a 	beq.w	20000714 <dcd_rp2040_irq+0x36c>
20000400:	f894 31bb 	ldrb.w	r3, [r4, #443]	; 0x1bb
20000404:	2b02      	cmp	r3, #2
20000406:	f000 817a 	beq.w	200006fe <dcd_rp2040_irq+0x356>
2000040a:	f894 31fb 	ldrb.w	r3, [r4, #507]	; 0x1fb
2000040e:	2b02      	cmp	r3, #2
20000410:	f000 816a 	beq.w	200006e8 <dcd_rp2040_irq+0x340>
20000414:	f894 323b 	ldrb.w	r3, [r4, #571]	; 0x23b
20000418:	2b02      	cmp	r3, #2
2000041a:	f000 8159 	beq.w	200006d0 <dcd_rp2040_irq+0x328>
2000041e:	f894 327b 	ldrb.w	r3, [r4, #635]	; 0x27b
20000422:	2b02      	cmp	r3, #2
20000424:	f000 8148 	beq.w	200006b8 <dcd_rp2040_irq+0x310>
20000428:	f894 32bb 	ldrb.w	r3, [r4, #699]	; 0x2bb
2000042c:	2b02      	cmp	r3, #2
2000042e:	f000 8137 	beq.w	200006a0 <dcd_rp2040_irq+0x2f8>
20000432:	f894 32fb 	ldrb.w	r3, [r4, #763]	; 0x2fb
20000436:	2b02      	cmp	r3, #2
20000438:	f000 8110 	beq.w	2000065c <dcd_rp2040_irq+0x2b4>
2000043c:	f894 333b 	ldrb.w	r3, [r4, #827]	; 0x33b
20000440:	2b02      	cmp	r3, #2
20000442:	f000 80ff 	beq.w	20000644 <dcd_rp2040_irq+0x29c>
20000446:	f894 337b 	ldrb.w	r3, [r4, #891]	; 0x37b
2000044a:	2b02      	cmp	r3, #2
2000044c:	f000 80ee 	beq.w	2000062c <dcd_rp2040_irq+0x284>
20000450:	f894 33bb 	ldrb.w	r3, [r4, #955]	; 0x3bb
20000454:	2b02      	cmp	r3, #2
20000456:	f000 80d5 	beq.w	20000604 <dcd_rp2040_irq+0x25c>
2000045a:	f894 33fb 	ldrb.w	r3, [r4, #1019]	; 0x3fb
2000045e:	2b02      	cmp	r3, #2
20000460:	f000 80bf 	beq.w	200005e2 <dcd_rp2040_irq+0x23a>
20000464:	b93e      	cbnz	r6, 20000476 <dcd_rp2040_irq+0xce>
20000466:	4b87      	ldr	r3, [pc, #540]	; (20000684 <dcd_rp2040_irq+0x2dc>)
20000468:	781b      	ldrb	r3, [r3, #0]
2000046a:	b923      	cbnz	r3, 20000476 <dcd_rp2040_irq+0xce>
2000046c:	f44f 3200 	mov.w	r2, #131072	; 0x20000
20000470:	4b85      	ldr	r3, [pc, #532]	; (20000688 <dcd_rp2040_irq+0x2e0>)
20000472:	f8c3 2090 	str.w	r2, [r3, #144]	; 0x90
20000476:	f44f 7240 	mov.w	r2, #768	; 0x300
2000047a:	4b7e      	ldr	r3, [pc, #504]	; (20000674 <dcd_rp2040_irq+0x2cc>)
2000047c:	2101      	movs	r1, #1
2000047e:	6c9b      	ldr	r3, [r3, #72]	; 0x48
20000480:	a801      	add	r0, sp, #4
20000482:	f3c3 030a 	ubfx	r3, r3, #0, #11
20000486:	9302      	str	r3, [sp, #8]
20000488:	f8ad 2004 	strh.w	r2, [sp, #4]
2000048c:	f000 fb80 	bl	20000b90 <dcd_event_handler>
20000490:	06e9      	lsls	r1, r5, #27
20000492:	f44f 3600 	mov.w	r6, #131072	; 0x20000
20000496:	4c7d      	ldr	r4, [pc, #500]	; (2000068c <dcd_rp2040_irq+0x2e4>)
20000498:	d507      	bpl.n	200004aa <dcd_rp2040_irq+0x102>
2000049a:	f7ff ff35 	bl	20000308 <hw_handle_buff_status>
2000049e:	4626      	mov	r6, r4
200004a0:	e003      	b.n	200004aa <dcd_rp2040_irq+0x102>
200004a2:	06e9      	lsls	r1, r5, #27
200004a4:	f04f 0410 	mov.w	r4, #16
200004a8:	d4f7      	bmi.n	2000049a <dcd_rp2040_irq+0xf2>
200004aa:	03ea      	lsls	r2, r5, #15
200004ac:	d532      	bpl.n	20000514 <dcd_rp2040_irq+0x16c>
200004ae:	4c73      	ldr	r4, [pc, #460]	; (2000067c <dcd_rp2040_irq+0x2d4>)
200004b0:	f446 3680 	orr.w	r6, r6, #65536	; 0x10000
200004b4:	7ea3      	ldrb	r3, [r4, #26]
200004b6:	b19b      	cbz	r3, 200004e0 <dcd_rp2040_irq+0x138>
200004b8:	2102      	movs	r1, #2
200004ba:	4b75      	ldr	r3, [pc, #468]	; (20000690 <dcd_rp2040_irq+0x2e8>)
200004bc:	4a6d      	ldr	r2, [pc, #436]	; (20000674 <dcd_rp2040_irq+0x2cc>)
200004be:	6619      	str	r1, [r3, #96]	; 0x60
200004c0:	6e53      	ldr	r3, [r2, #100]	; 0x64
200004c2:	079b      	lsls	r3, r3, #30
200004c4:	d5fc      	bpl.n	200004c0 <dcd_rp2040_irq+0x118>
200004c6:	f44f 5240 	mov.w	r2, #12288	; 0x3000
200004ca:	2100      	movs	r1, #0
200004cc:	486b      	ldr	r0, [pc, #428]	; (2000067c <dcd_rp2040_irq+0x2d4>)
200004ce:	f000 faeb 	bl	20000aa8 <_hw_endpoint_buffer_control_update32>
200004d2:	486a      	ldr	r0, [pc, #424]	; (2000067c <dcd_rp2040_irq+0x2d4>)
200004d4:	f000 fae2 	bl	20000a9c <hw_endpoint_reset_transfer>
200004d8:	2202      	movs	r2, #2
200004da:	4b6b      	ldr	r3, [pc, #428]	; (20000688 <dcd_rp2040_irq+0x2e0>)
200004dc:	665a      	str	r2, [r3, #100]	; 0x64
200004de:	661a      	str	r2, [r3, #96]	; 0x60
200004e0:	2301      	movs	r3, #1
200004e2:	f894 203a 	ldrb.w	r2, [r4, #58]	; 0x3a
200004e6:	70e3      	strb	r3, [r4, #3]
200004e8:	b9fa      	cbnz	r2, 2000052a <dcd_rp2040_irq+0x182>
200004ea:	2301      	movs	r3, #1
200004ec:	f44f 61c0 	mov.w	r1, #1536	; 0x600
200004f0:	4a68      	ldr	r2, [pc, #416]	; (20000694 <dcd_rp2040_irq+0x2ec>)
200004f2:	f884 3023 	strb.w	r3, [r4, #35]	; 0x23
200004f6:	f8ad 1004 	strh.w	r1, [sp, #4]
200004fa:	e892 0003 	ldmia.w	r2, {r0, r1}
200004fe:	aa04      	add	r2, sp, #16
20000500:	e902 0003 	stmdb	r2, {r0, r1}
20000504:	4619      	mov	r1, r3
20000506:	a801      	add	r0, sp, #4
20000508:	f000 fb42 	bl	20000b90 <dcd_event_handler>
2000050c:	f44f 3200 	mov.w	r2, #131072	; 0x20000
20000510:	4b5d      	ldr	r3, [pc, #372]	; (20000688 <dcd_rp2040_irq+0x2e0>)
20000512:	651a      	str	r2, [r3, #80]	; 0x50
20000514:	04e9      	lsls	r1, r5, #19
20000516:	d41d      	bmi.n	20000554 <dcd_rp2040_irq+0x1ac>
20000518:	046a      	lsls	r2, r5, #17
2000051a:	d432      	bmi.n	20000582 <dcd_rp2040_irq+0x1da>
2000051c:	042b      	lsls	r3, r5, #16
2000051e:	d43f      	bmi.n	200005a0 <dcd_rp2040_irq+0x1f8>
20000520:	42ae      	cmp	r6, r5
20000522:	f040 819a 	bne.w	2000085a <dcd_rp2040_irq+0x4b2>
20000526:	b004      	add	sp, #16
20000528:	bd70      	pop	{r4, r5, r6, pc}
2000052a:	4a59      	ldr	r2, [pc, #356]	; (20000690 <dcd_rp2040_irq+0x2e8>)
2000052c:	6613      	str	r3, [r2, #96]	; 0x60
2000052e:	f5a2 5200 	sub.w	r2, r2, #8192	; 0x2000
20000532:	6e53      	ldr	r3, [r2, #100]	; 0x64
20000534:	07d8      	lsls	r0, r3, #31
20000536:	d5fc      	bpl.n	20000532 <dcd_rp2040_irq+0x18a>
20000538:	f44f 5240 	mov.w	r2, #12288	; 0x3000
2000053c:	2100      	movs	r1, #0
2000053e:	4856      	ldr	r0, [pc, #344]	; (20000698 <dcd_rp2040_irq+0x2f0>)
20000540:	f000 fab2 	bl	20000aa8 <_hw_endpoint_buffer_control_update32>
20000544:	4854      	ldr	r0, [pc, #336]	; (20000698 <dcd_rp2040_irq+0x2f0>)
20000546:	f000 faa9 	bl	20000a9c <hw_endpoint_reset_transfer>
2000054a:	2201      	movs	r2, #1
2000054c:	4b4e      	ldr	r3, [pc, #312]	; (20000688 <dcd_rp2040_irq+0x2e0>)
2000054e:	665a      	str	r2, [r3, #100]	; 0x64
20000550:	661a      	str	r2, [r3, #96]	; 0x60
20000552:	e7ca      	b.n	200004ea <dcd_rp2040_irq+0x142>
20000554:	2400      	movs	r4, #0
20000556:	4b47      	ldr	r3, [pc, #284]	; (20000674 <dcd_rp2040_irq+0x2cc>)
20000558:	f446 5680 	orr.w	r6, r6, #4096	; 0x1000
2000055c:	601c      	str	r4, [r3, #0]
2000055e:	f7ff fea1 	bl	200002a4 <reset_non_control_endpoints>
20000562:	f44f 7380 	mov.w	r3, #256	; 0x100
20000566:	2101      	movs	r1, #1
20000568:	a801      	add	r0, sp, #4
2000056a:	f8ad 3004 	strh.w	r3, [sp, #4]
2000056e:	f88d 4008 	strb.w	r4, [sp, #8]
20000572:	f000 fb0d 	bl	20000b90 <dcd_event_handler>
20000576:	f44f 2200 	mov.w	r2, #524288	; 0x80000
2000057a:	4b43      	ldr	r3, [pc, #268]	; (20000688 <dcd_rp2040_irq+0x2e0>)
2000057c:	651a      	str	r2, [r3, #80]	; 0x50
2000057e:	046a      	lsls	r2, r5, #17
20000580:	d5cc      	bpl.n	2000051c <dcd_rp2040_irq+0x174>
20000582:	f44f 6380 	mov.w	r3, #1024	; 0x400
20000586:	2101      	movs	r1, #1
20000588:	a801      	add	r0, sp, #4
2000058a:	f8ad 3004 	strh.w	r3, [sp, #4]
2000058e:	f000 faff 	bl	20000b90 <dcd_event_handler>
20000592:	2210      	movs	r2, #16
20000594:	4b3c      	ldr	r3, [pc, #240]	; (20000688 <dcd_rp2040_irq+0x2e0>)
20000596:	f446 4680 	orr.w	r6, r6, #16384	; 0x4000
2000059a:	651a      	str	r2, [r3, #80]	; 0x50
2000059c:	042b      	lsls	r3, r5, #16
2000059e:	d5bf      	bpl.n	20000520 <dcd_rp2040_irq+0x178>
200005a0:	f44f 63a0 	mov.w	r3, #1280	; 0x500
200005a4:	2101      	movs	r1, #1
200005a6:	a801      	add	r0, sp, #4
200005a8:	f8ad 3004 	strh.w	r3, [sp, #4]
200005ac:	f000 faf0 	bl	20000b90 <dcd_event_handler>
200005b0:	f44f 6200 	mov.w	r2, #2048	; 0x800
200005b4:	4b34      	ldr	r3, [pc, #208]	; (20000688 <dcd_rp2040_irq+0x2e0>)
200005b6:	f446 4600 	orr.w	r6, r6, #32768	; 0x8000
200005ba:	651a      	str	r2, [r3, #80]	; 0x50
200005bc:	e7b0      	b.n	20000520 <dcd_rp2040_irq+0x178>
200005be:	f894 603a 	ldrb.w	r6, [r4, #58]	; 0x3a
200005c2:	2e00      	cmp	r6, #0
200005c4:	f43f af03 	beq.w	200003ce <dcd_rp2040_irq+0x26>
200005c8:	f894 303c 	ldrb.w	r3, [r4, #60]	; 0x3c
200005cc:	2b00      	cmp	r3, #0
200005ce:	f43f aefe 	beq.w	200003ce <dcd_rp2040_irq+0x26>
200005d2:	2300      	movs	r3, #0
200005d4:	f104 0020 	add.w	r0, r4, #32
200005d8:	f884 303c 	strb.w	r3, [r4, #60]	; 0x3c
200005dc:	f000 fa86 	bl	20000aec <hw_endpoint_start_next_buffer>
200005e0:	e6f5      	b.n	200003ce <dcd_rp2040_irq+0x26>
200005e2:	f894 33fa 	ldrb.w	r3, [r4, #1018]	; 0x3fa
200005e6:	2b00      	cmp	r3, #0
200005e8:	f43f af3c 	beq.w	20000464 <dcd_rp2040_irq+0xbc>
200005ec:	f894 33fc 	ldrb.w	r3, [r4, #1020]	; 0x3fc
200005f0:	2b00      	cmp	r3, #0
200005f2:	f43f af40 	beq.w	20000476 <dcd_rp2040_irq+0xce>
200005f6:	2300      	movs	r3, #0
200005f8:	4828      	ldr	r0, [pc, #160]	; (2000069c <dcd_rp2040_irq+0x2f4>)
200005fa:	f884 33fc 	strb.w	r3, [r4, #1020]	; 0x3fc
200005fe:	f000 fa75 	bl	20000aec <hw_endpoint_start_next_buffer>
20000602:	e738      	b.n	20000476 <dcd_rp2040_irq+0xce>
20000604:	f894 33ba 	ldrb.w	r3, [r4, #954]	; 0x3ba
20000608:	2b00      	cmp	r3, #0
2000060a:	f43f af26 	beq.w	2000045a <dcd_rp2040_irq+0xb2>
2000060e:	f894 33bc 	ldrb.w	r3, [r4, #956]	; 0x3bc
20000612:	2b00      	cmp	r3, #0
20000614:	f040 80b2 	bne.w	2000077c <dcd_rp2040_irq+0x3d4>
20000618:	f894 33fb 	ldrb.w	r3, [r4, #1019]	; 0x3fb
2000061c:	2b02      	cmp	r3, #2
2000061e:	f47f af2a 	bne.w	20000476 <dcd_rp2040_irq+0xce>
20000622:	f894 33fa 	ldrb.w	r3, [r4, #1018]	; 0x3fa
20000626:	2b00      	cmp	r3, #0
20000628:	d1e0      	bne.n	200005ec <dcd_rp2040_irq+0x244>
2000062a:	e724      	b.n	20000476 <dcd_rp2040_irq+0xce>
2000062c:	f894 337a 	ldrb.w	r3, [r4, #890]	; 0x37a
20000630:	2b00      	cmp	r3, #0
20000632:	f43f af0d 	beq.w	20000450 <dcd_rp2040_irq+0xa8>
20000636:	f894 237c 	ldrb.w	r2, [r4, #892]	; 0x37c
2000063a:	2a00      	cmp	r2, #0
2000063c:	f040 8105 	bne.w	2000084a <dcd_rp2040_irq+0x4a2>
20000640:	461e      	mov	r6, r3
20000642:	e705      	b.n	20000450 <dcd_rp2040_irq+0xa8>
20000644:	f894 333a 	ldrb.w	r3, [r4, #826]	; 0x33a
20000648:	2b00      	cmp	r3, #0
2000064a:	f43f aefc 	beq.w	20000446 <dcd_rp2040_irq+0x9e>
2000064e:	f894 233c 	ldrb.w	r2, [r4, #828]	; 0x33c
20000652:	2a00      	cmp	r2, #0
20000654:	f040 80f1 	bne.w	2000083a <dcd_rp2040_irq+0x492>
20000658:	461e      	mov	r6, r3
2000065a:	e6f4      	b.n	20000446 <dcd_rp2040_irq+0x9e>
2000065c:	f894 32fa 	ldrb.w	r3, [r4, #762]	; 0x2fa
20000660:	2b00      	cmp	r3, #0
20000662:	f43f aeeb 	beq.w	2000043c <dcd_rp2040_irq+0x94>
20000666:	f894 22fc 	ldrb.w	r2, [r4, #764]	; 0x2fc
2000066a:	2a00      	cmp	r2, #0
2000066c:	f040 80dd 	bne.w	2000082a <dcd_rp2040_irq+0x482>
20000670:	461e      	mov	r6, r3
20000672:	e6e3      	b.n	2000043c <dcd_rp2040_irq+0x94>
20000674:	50110000 	.word	0x50110000
20000678:	400b0000 	.word	0x400b0000
2000067c:	20002bd4 	.word	0x20002bd4
20000680:	20002bcc 	.word	0x20002bcc
20000684:	20003031 	.word	0x20003031
20000688:	50113000 	.word	0x50113000
2000068c:	00020010 	.word	0x00020010
20000690:	50112000 	.word	0x50112000
20000694:	50100000 	.word	0x50100000
20000698:	20002bf4 	.word	0x20002bf4
2000069c:	20002fb4 	.word	0x20002fb4
200006a0:	f894 32ba 	ldrb.w	r3, [r4, #698]	; 0x2ba
200006a4:	2b00      	cmp	r3, #0
200006a6:	f43f aec4 	beq.w	20000432 <dcd_rp2040_irq+0x8a>
200006aa:	f894 22bc 	ldrb.w	r2, [r4, #700]	; 0x2bc
200006ae:	2a00      	cmp	r2, #0
200006b0:	f040 80b3 	bne.w	2000081a <dcd_rp2040_irq+0x472>
200006b4:	461e      	mov	r6, r3
200006b6:	e6bc      	b.n	20000432 <dcd_rp2040_irq+0x8a>
200006b8:	f894 327a 	ldrb.w	r3, [r4, #634]	; 0x27a
200006bc:	2b00      	cmp	r3, #0
200006be:	f43f aeb3 	beq.w	20000428 <dcd_rp2040_irq+0x80>
200006c2:	f894 227c 	ldrb.w	r2, [r4, #636]	; 0x27c
200006c6:	2a00      	cmp	r2, #0
200006c8:	f040 809f 	bne.w	2000080a <dcd_rp2040_irq+0x462>
200006cc:	461e      	mov	r6, r3
200006ce:	e6ab      	b.n	20000428 <dcd_rp2040_irq+0x80>
200006d0:	f894 323a 	ldrb.w	r3, [r4, #570]	; 0x23a
200006d4:	2b00      	cmp	r3, #0
200006d6:	f43f aea2 	beq.w	2000041e <dcd_rp2040_irq+0x76>
200006da:	f894 223c 	ldrb.w	r2, [r4, #572]	; 0x23c
200006de:	2a00      	cmp	r2, #0
200006e0:	f040 808b 	bne.w	200007fa <dcd_rp2040_irq+0x452>
200006e4:	461e      	mov	r6, r3
200006e6:	e69a      	b.n	2000041e <dcd_rp2040_irq+0x76>
200006e8:	f894 31fa 	ldrb.w	r3, [r4, #506]	; 0x1fa
200006ec:	2b00      	cmp	r3, #0
200006ee:	f43f ae91 	beq.w	20000414 <dcd_rp2040_irq+0x6c>
200006f2:	f894 21fc 	ldrb.w	r2, [r4, #508]	; 0x1fc
200006f6:	2a00      	cmp	r2, #0
200006f8:	d177      	bne.n	200007ea <dcd_rp2040_irq+0x442>
200006fa:	461e      	mov	r6, r3
200006fc:	e68a      	b.n	20000414 <dcd_rp2040_irq+0x6c>
200006fe:	f894 31ba 	ldrb.w	r3, [r4, #442]	; 0x1ba
20000702:	2b00      	cmp	r3, #0
20000704:	f43f ae81 	beq.w	2000040a <dcd_rp2040_irq+0x62>
20000708:	f894 21bc 	ldrb.w	r2, [r4, #444]	; 0x1bc
2000070c:	2a00      	cmp	r2, #0
2000070e:	d164      	bne.n	200007da <dcd_rp2040_irq+0x432>
20000710:	461e      	mov	r6, r3
20000712:	e67a      	b.n	2000040a <dcd_rp2040_irq+0x62>
20000714:	f894 317a 	ldrb.w	r3, [r4, #378]	; 0x17a
20000718:	2b00      	cmp	r3, #0
2000071a:	f43f ae71 	beq.w	20000400 <dcd_rp2040_irq+0x58>
2000071e:	f894 217c 	ldrb.w	r2, [r4, #380]	; 0x17c
20000722:	2a00      	cmp	r2, #0
20000724:	d151      	bne.n	200007ca <dcd_rp2040_irq+0x422>
20000726:	461e      	mov	r6, r3
20000728:	e66a      	b.n	20000400 <dcd_rp2040_irq+0x58>
2000072a:	f894 313a 	ldrb.w	r3, [r4, #314]	; 0x13a
2000072e:	2b00      	cmp	r3, #0
20000730:	f43f ae61 	beq.w	200003f6 <dcd_rp2040_irq+0x4e>
20000734:	f894 213c 	ldrb.w	r2, [r4, #316]	; 0x13c
20000738:	2a00      	cmp	r2, #0
2000073a:	d13e      	bne.n	200007ba <dcd_rp2040_irq+0x412>
2000073c:	461e      	mov	r6, r3
2000073e:	e65a      	b.n	200003f6 <dcd_rp2040_irq+0x4e>
20000740:	f894 30fa 	ldrb.w	r3, [r4, #250]	; 0xfa
20000744:	2b00      	cmp	r3, #0
20000746:	f43f ae51 	beq.w	200003ec <dcd_rp2040_irq+0x44>
2000074a:	f894 20fc 	ldrb.w	r2, [r4, #252]	; 0xfc
2000074e:	bb62      	cbnz	r2, 200007aa <dcd_rp2040_irq+0x402>
20000750:	461e      	mov	r6, r3
20000752:	e64b      	b.n	200003ec <dcd_rp2040_irq+0x44>
20000754:	f894 30ba 	ldrb.w	r3, [r4, #186]	; 0xba
20000758:	2b00      	cmp	r3, #0
2000075a:	f43f ae42 	beq.w	200003e2 <dcd_rp2040_irq+0x3a>
2000075e:	f894 20bc 	ldrb.w	r2, [r4, #188]	; 0xbc
20000762:	b9d2      	cbnz	r2, 2000079a <dcd_rp2040_irq+0x3f2>
20000764:	461e      	mov	r6, r3
20000766:	e63c      	b.n	200003e2 <dcd_rp2040_irq+0x3a>
20000768:	f894 307a 	ldrb.w	r3, [r4, #122]	; 0x7a
2000076c:	2b00      	cmp	r3, #0
2000076e:	f43f ae33 	beq.w	200003d8 <dcd_rp2040_irq+0x30>
20000772:	f894 207c 	ldrb.w	r2, [r4, #124]	; 0x7c
20000776:	b942      	cbnz	r2, 2000078a <dcd_rp2040_irq+0x3e2>
20000778:	461e      	mov	r6, r3
2000077a:	e62d      	b.n	200003d8 <dcd_rp2040_irq+0x30>
2000077c:	2300      	movs	r3, #0
2000077e:	4839      	ldr	r0, [pc, #228]	; (20000864 <dcd_rp2040_irq+0x4bc>)
20000780:	f884 33bc 	strb.w	r3, [r4, #956]	; 0x3bc
20000784:	f000 f9b2 	bl	20000aec <hw_endpoint_start_next_buffer>
20000788:	e746      	b.n	20000618 <dcd_rp2040_irq+0x270>
2000078a:	2200      	movs	r2, #0
2000078c:	4836      	ldr	r0, [pc, #216]	; (20000868 <dcd_rp2040_irq+0x4c0>)
2000078e:	f884 207c 	strb.w	r2, [r4, #124]	; 0x7c
20000792:	461e      	mov	r6, r3
20000794:	f000 f9aa 	bl	20000aec <hw_endpoint_start_next_buffer>
20000798:	e61e      	b.n	200003d8 <dcd_rp2040_irq+0x30>
2000079a:	2200      	movs	r2, #0
2000079c:	4833      	ldr	r0, [pc, #204]	; (2000086c <dcd_rp2040_irq+0x4c4>)
2000079e:	f884 20bc 	strb.w	r2, [r4, #188]	; 0xbc
200007a2:	461e      	mov	r6, r3
200007a4:	f000 f9a2 	bl	20000aec <hw_endpoint_start_next_buffer>
200007a8:	e61b      	b.n	200003e2 <dcd_rp2040_irq+0x3a>
200007aa:	2200      	movs	r2, #0
200007ac:	4830      	ldr	r0, [pc, #192]	; (20000870 <dcd_rp2040_irq+0x4c8>)
200007ae:	f884 20fc 	strb.w	r2, [r4, #252]	; 0xfc
200007b2:	461e      	mov	r6, r3
200007b4:	f000 f99a 	bl	20000aec <hw_endpoint_start_next_buffer>
200007b8:	e618      	b.n	200003ec <dcd_rp2040_irq+0x44>
200007ba:	2200      	movs	r2, #0
200007bc:	482d      	ldr	r0, [pc, #180]	; (20000874 <dcd_rp2040_irq+0x4cc>)
200007be:	f884 213c 	strb.w	r2, [r4, #316]	; 0x13c
200007c2:	461e      	mov	r6, r3
200007c4:	f000 f992 	bl	20000aec <hw_endpoint_start_next_buffer>
200007c8:	e615      	b.n	200003f6 <dcd_rp2040_irq+0x4e>
200007ca:	2200      	movs	r2, #0
200007cc:	482a      	ldr	r0, [pc, #168]	; (20000878 <dcd_rp2040_irq+0x4d0>)
200007ce:	f884 217c 	strb.w	r2, [r4, #380]	; 0x17c
200007d2:	461e      	mov	r6, r3
200007d4:	f000 f98a 	bl	20000aec <hw_endpoint_start_next_buffer>
200007d8:	e612      	b.n	20000400 <dcd_rp2040_irq+0x58>
200007da:	2200      	movs	r2, #0
200007dc:	4827      	ldr	r0, [pc, #156]	; (2000087c <dcd_rp2040_irq+0x4d4>)
200007de:	f884 21bc 	strb.w	r2, [r4, #444]	; 0x1bc
200007e2:	461e      	mov	r6, r3
200007e4:	f000 f982 	bl	20000aec <hw_endpoint_start_next_buffer>
200007e8:	e60f      	b.n	2000040a <dcd_rp2040_irq+0x62>
200007ea:	2200      	movs	r2, #0
200007ec:	4824      	ldr	r0, [pc, #144]	; (20000880 <dcd_rp2040_irq+0x4d8>)
200007ee:	f884 21fc 	strb.w	r2, [r4, #508]	; 0x1fc
200007f2:	461e      	mov	r6, r3
200007f4:	f000 f97a 	bl	20000aec <hw_endpoint_start_next_buffer>
200007f8:	e60c      	b.n	20000414 <dcd_rp2040_irq+0x6c>
200007fa:	2200      	movs	r2, #0
200007fc:	4821      	ldr	r0, [pc, #132]	; (20000884 <dcd_rp2040_irq+0x4dc>)
200007fe:	f884 223c 	strb.w	r2, [r4, #572]	; 0x23c
20000802:	461e      	mov	r6, r3
20000804:	f000 f972 	bl	20000aec <hw_endpoint_start_next_buffer>
20000808:	e609      	b.n	2000041e <dcd_rp2040_irq+0x76>
2000080a:	2200      	movs	r2, #0
2000080c:	481e      	ldr	r0, [pc, #120]	; (20000888 <dcd_rp2040_irq+0x4e0>)
2000080e:	f884 227c 	strb.w	r2, [r4, #636]	; 0x27c
20000812:	461e      	mov	r6, r3
20000814:	f000 f96a 	bl	20000aec <hw_endpoint_start_next_buffer>
20000818:	e606      	b.n	20000428 <dcd_rp2040_irq+0x80>
2000081a:	2200      	movs	r2, #0
2000081c:	481b      	ldr	r0, [pc, #108]	; (2000088c <dcd_rp2040_irq+0x4e4>)
2000081e:	f884 22bc 	strb.w	r2, [r4, #700]	; 0x2bc
20000822:	461e      	mov	r6, r3
20000824:	f000 f962 	bl	20000aec <hw_endpoint_start_next_buffer>
20000828:	e603      	b.n	20000432 <dcd_rp2040_irq+0x8a>
2000082a:	2200      	movs	r2, #0
2000082c:	4818      	ldr	r0, [pc, #96]	; (20000890 <dcd_rp2040_irq+0x4e8>)
2000082e:	f884 22fc 	strb.w	r2, [r4, #764]	; 0x2fc
20000832:	461e      	mov	r6, r3
20000834:	f000 f95a 	bl	20000aec <hw_endpoint_start_next_buffer>
20000838:	e600      	b.n	2000043c <dcd_rp2040_irq+0x94>
2000083a:	2200      	movs	r2, #0
2000083c:	4815      	ldr	r0, [pc, #84]	; (20000894 <dcd_rp2040_irq+0x4ec>)
2000083e:	f884 233c 	strb.w	r2, [r4, #828]	; 0x33c
20000842:	461e      	mov	r6, r3
20000844:	f000 f952 	bl	20000aec <hw_endpoint_start_next_buffer>
20000848:	e5fd      	b.n	20000446 <dcd_rp2040_irq+0x9e>
2000084a:	2200      	movs	r2, #0
2000084c:	4812      	ldr	r0, [pc, #72]	; (20000898 <dcd_rp2040_irq+0x4f0>)
2000084e:	f884 237c 	strb.w	r2, [r4, #892]	; 0x37c
20000852:	461e      	mov	r6, r3
20000854:	f000 f94a 	bl	20000aec <hw_endpoint_start_next_buffer>
20000858:	e5fa      	b.n	20000450 <dcd_rp2040_irq+0xa8>
2000085a:	4810      	ldr	r0, [pc, #64]	; (2000089c <dcd_rp2040_irq+0x4f4>)
2000085c:	ea86 0105 	eor.w	r1, r6, r5
20000860:	f000 fc7e 	bl	20001160 <__panic_veneer>
20000864:	20002f74 	.word	0x20002f74
20000868:	20002c34 	.word	0x20002c34
2000086c:	20002c74 	.word	0x20002c74
20000870:	20002cb4 	.word	0x20002cb4
20000874:	20002cf4 	.word	0x20002cf4
20000878:	20002d34 	.word	0x20002d34
2000087c:	20002d74 	.word	0x20002d74
20000880:	20002db4 	.word	0x20002db4
20000884:	20002df4 	.word	0x20002df4
20000888:	20002e34 	.word	0x20002e34
2000088c:	20002e74 	.word	0x20002e74
20000890:	20002eb4 	.word	0x20002eb4
20000894:	20002ef4 	.word	0x20002ef4
20000898:	20002f34 	.word	0x20002f34
2000089c:	1000944c 	.word	0x1000944c

200008a0 <prepare_ep_buffer>:
200008a0:	8a82      	ldrh	r2, [r0, #20]
200008a2:	e92d 43f0 	stmdb	sp!, {r4, r5, r6, r7, r8, r9, lr}
200008a6:	8b04      	ldrh	r4, [r0, #24]
200008a8:	78c3      	ldrb	r3, [r0, #3]
200008aa:	4294      	cmp	r4, r2
200008ac:	bf28      	it	cs
200008ae:	4614      	movcs	r4, r2
200008b0:	1b12      	subs	r2, r2, r4
200008b2:	b292      	uxth	r2, r2
200008b4:	8282      	strh	r2, [r0, #20]
200008b6:	2b00      	cmp	r3, #0
200008b8:	d046      	beq.n	20000948 <prepare_ep_buffer+0xa8>
200008ba:	f444 5610 	orr.w	r6, r4, #9216	; 0x2400
200008be:	f083 0301 	eor.w	r3, r3, #1
200008c2:	70c3      	strb	r3, [r0, #3]
200008c4:	7843      	ldrb	r3, [r0, #1]
200008c6:	4635      	mov	r5, r6
200008c8:	bbb3      	cbnz	r3, 20000938 <prepare_ep_buffer+0x98>
200008ca:	68c5      	ldr	r5, [r0, #12]
200008cc:	f104 39ff 	add.w	r9, r4, #4294967295
200008d0:	eb05 1881 	add.w	r8, r5, r1, lsl #6
200008d4:	6905      	ldr	r5, [r0, #16]
200008d6:	b35c      	cbz	r4, 20000930 <prepare_ep_buffer+0x90>
200008d8:	1c6a      	adds	r2, r5, #1
200008da:	eba8 0702 	sub.w	r7, r8, r2
200008de:	2f02      	cmp	r7, #2
200008e0:	d935      	bls.n	2000094e <prepare_ep_buffer+0xae>
200008e2:	f1b9 0f07 	cmp.w	r9, #7
200008e6:	d932      	bls.n	2000094e <prepare_ep_buffer+0xae>
200008e8:	46ae      	mov	lr, r5
200008ea:	46c4      	mov	ip, r8
200008ec:	1f22      	subs	r2, r4, #4
200008ee:	0892      	lsrs	r2, r2, #2
200008f0:	3201      	adds	r2, #1
200008f2:	f85e 7b04 	ldr.w	r7, [lr], #4
200008f6:	3301      	adds	r3, #1
200008f8:	429a      	cmp	r2, r3
200008fa:	f84c 7b04 	str.w	r7, [ip], #4
200008fe:	d8f8      	bhi.n	200008f2 <prepare_ep_buffer+0x52>
20000900:	ebb4 0f82 	cmp.w	r4, r2, lsl #2
20000904:	eba9 0382 	sub.w	r3, r9, r2, lsl #2
20000908:	eb05 0c82 	add.w	ip, r5, r2, lsl #2
2000090c:	eb08 0782 	add.w	r7, r8, r2, lsl #2
20000910:	d00c      	beq.n	2000092c <prepare_ep_buffer+0x8c>
20000912:	f815 5022 	ldrb.w	r5, [r5, r2, lsl #2]
20000916:	f808 5022 	strb.w	r5, [r8, r2, lsl #2]
2000091a:	b13b      	cbz	r3, 2000092c <prepare_ep_buffer+0x8c>
2000091c:	f89c 2001 	ldrb.w	r2, [ip, #1]
20000920:	2b01      	cmp	r3, #1
20000922:	707a      	strb	r2, [r7, #1]
20000924:	d002      	beq.n	2000092c <prepare_ep_buffer+0x8c>
20000926:	f89c 3002 	ldrb.w	r3, [ip, #2]
2000092a:	70bb      	strb	r3, [r7, #2]
2000092c:	6905      	ldr	r5, [r0, #16]
2000092e:	8a82      	ldrh	r2, [r0, #20]
20000930:	442c      	add	r4, r5
20000932:	6104      	str	r4, [r0, #16]
20000934:	f446 4500 	orr.w	r5, r6, #32768	; 0x8000
20000938:	b90a      	cbnz	r2, 2000093e <prepare_ep_buffer+0x9e>
2000093a:	f445 4580 	orr.w	r5, r5, #16384	; 0x4000
2000093e:	b101      	cbz	r1, 20000942 <prepare_ep_buffer+0xa2>
20000940:	042d      	lsls	r5, r5, #16
20000942:	4628      	mov	r0, r5
20000944:	e8bd 83f0 	ldmia.w	sp!, {r4, r5, r6, r7, r8, r9, pc}
20000948:	f444 6680 	orr.w	r6, r4, #1024	; 0x400
2000094c:	e7b7      	b.n	200008be <prepare_ep_buffer+0x1e>
2000094e:	f108 38ff 	add.w	r8, r8, #4294967295
20000952:	4425      	add	r5, r4
20000954:	e000      	b.n	20000958 <prepare_ep_buffer+0xb8>
20000956:	3201      	adds	r2, #1
20000958:	f812 3c01 	ldrb.w	r3, [r2, #-1]
2000095c:	42aa      	cmp	r2, r5
2000095e:	f808 3f01 	strb.w	r3, [r8, #1]!
20000962:	d1f8      	bne.n	20000956 <prepare_ep_buffer+0xb6>
20000964:	e7e2      	b.n	2000092c <prepare_ep_buffer+0x8c>
20000966:	bf00      	nop

20000968 <sync_ep_buffer>:
20000968:	6883      	ldr	r3, [r0, #8]
2000096a:	681b      	ldr	r3, [r3, #0]
2000096c:	b101      	cbz	r1, 20000970 <sync_ep_buffer+0x8>
2000096e:	0c1b      	lsrs	r3, r3, #16
20000970:	7842      	ldrb	r2, [r0, #1]
20000972:	f3c3 0309 	ubfx	r3, r3, #0, #10
20000976:	2a00      	cmp	r2, #0
20000978:	d03f      	beq.n	200009fa <sync_ep_buffer+0x92>
2000097a:	b5f0      	push	{r4, r5, r6, r7, lr}
2000097c:	e9d0 2403 	ldrd	r2, r4, [r0, #12]
20000980:	018d      	lsls	r5, r1, #6
20000982:	1e5f      	subs	r7, r3, #1
20000984:	eb02 1181 	add.w	r1, r2, r1, lsl #6
20000988:	b35b      	cbz	r3, 200009e2 <sync_ep_buffer+0x7a>
2000098a:	3501      	adds	r5, #1
2000098c:	442a      	add	r2, r5
2000098e:	1aa2      	subs	r2, r4, r2
20000990:	2a02      	cmp	r2, #2
20000992:	d93c      	bls.n	20000a0e <sync_ep_buffer+0xa6>
20000994:	2f07      	cmp	r7, #7
20000996:	d93a      	bls.n	20000a0e <sync_ep_buffer+0xa6>
20000998:	460d      	mov	r5, r1
2000099a:	46a6      	mov	lr, r4
2000099c:	2200      	movs	r2, #0
2000099e:	f1a3 0c04 	sub.w	ip, r3, #4
200009a2:	ea4f 0c9c 	mov.w	ip, ip, lsr #2
200009a6:	f10c 0c01 	add.w	ip, ip, #1
200009aa:	f855 6b04 	ldr.w	r6, [r5], #4
200009ae:	3201      	adds	r2, #1
200009b0:	4594      	cmp	ip, r2
200009b2:	f84e 6b04 	str.w	r6, [lr], #4
200009b6:	d8f8      	bhi.n	200009aa <sync_ep_buffer+0x42>
200009b8:	ebb3 0f8c 	cmp.w	r3, ip, lsl #2
200009bc:	eba7 078c 	sub.w	r7, r7, ip, lsl #2
200009c0:	eb01 058c 	add.w	r5, r1, ip, lsl #2
200009c4:	eb04 028c 	add.w	r2, r4, ip, lsl #2
200009c8:	d00a      	beq.n	200009e0 <sync_ep_buffer+0x78>
200009ca:	f811 102c 	ldrb.w	r1, [r1, ip, lsl #2]
200009ce:	f804 102c 	strb.w	r1, [r4, ip, lsl #2]
200009d2:	b12f      	cbz	r7, 200009e0 <sync_ep_buffer+0x78>
200009d4:	7869      	ldrb	r1, [r5, #1]
200009d6:	2f01      	cmp	r7, #1
200009d8:	7051      	strb	r1, [r2, #1]
200009da:	d001      	beq.n	200009e0 <sync_ep_buffer+0x78>
200009dc:	78a9      	ldrb	r1, [r5, #2]
200009de:	7091      	strb	r1, [r2, #2]
200009e0:	6904      	ldr	r4, [r0, #16]
200009e2:	8ac2      	ldrh	r2, [r0, #22]
200009e4:	441c      	add	r4, r3
200009e6:	441a      	add	r2, r3
200009e8:	82c2      	strh	r2, [r0, #22]
200009ea:	8b02      	ldrh	r2, [r0, #24]
200009ec:	6104      	str	r4, [r0, #16]
200009ee:	429a      	cmp	r2, r3
200009f0:	bf84      	itt	hi
200009f2:	2200      	movhi	r2, #0
200009f4:	8282      	strhhi	r2, [r0, #20]
200009f6:	4618      	mov	r0, r3
200009f8:	bdf0      	pop	{r4, r5, r6, r7, pc}
200009fa:	8ac2      	ldrh	r2, [r0, #22]
200009fc:	441a      	add	r2, r3
200009fe:	82c2      	strh	r2, [r0, #22]
20000a00:	8b02      	ldrh	r2, [r0, #24]
20000a02:	429a      	cmp	r2, r3
20000a04:	bf84      	itt	hi
20000a06:	2200      	movhi	r2, #0
20000a08:	8282      	strhhi	r2, [r0, #20]
20000a0a:	4618      	mov	r0, r3
20000a0c:	4770      	bx	lr
20000a0e:	3c01      	subs	r4, #1
20000a10:	18cd      	adds	r5, r1, r3
20000a12:	f811 2b01 	ldrb.w	r2, [r1], #1
20000a16:	42a9      	cmp	r1, r5
20000a18:	f804 2f01 	strb.w	r2, [r4, #1]!
20000a1c:	d1f9      	bne.n	20000a12 <sync_ep_buffer+0xaa>
20000a1e:	e7df      	b.n	200009e0 <sync_ep_buffer+0x78>

20000a20 <_hw_endpoint_xfer_sync>:
20000a20:	b510      	push	{r4, lr}
20000a22:	4604      	mov	r4, r0
20000a24:	6883      	ldr	r3, [r0, #8]
20000a26:	2100      	movs	r1, #0
20000a28:	681b      	ldr	r3, [r3, #0]
20000a2a:	f7ff ff9d 	bl	20000968 <sync_ep_buffer>
20000a2e:	6863      	ldr	r3, [r4, #4]
20000a30:	681b      	ldr	r3, [r3, #0]
20000a32:	005b      	lsls	r3, r3, #1
20000a34:	d502      	bpl.n	20000a3c <_hw_endpoint_xfer_sync+0x1c>
20000a36:	8b23      	ldrh	r3, [r4, #24]
20000a38:	4283      	cmp	r3, r0
20000a3a:	d000      	beq.n	20000a3e <_hw_endpoint_xfer_sync+0x1e>
20000a3c:	bd10      	pop	{r4, pc}
20000a3e:	4620      	mov	r0, r4
20000a40:	e8bd 4010 	ldmia.w	sp!, {r4, lr}
20000a44:	2101      	movs	r1, #1
20000a46:	f7ff bf8f 	b.w	20000968 <sync_ep_buffer>
20000a4a:	bf00      	nop

20000a4c <e15_is_bulkin_ep>:
20000a4c:	4b08      	ldr	r3, [pc, #32]	; (20000a70 <e15_is_bulkin_ep+0x24>)
20000a4e:	6c1b      	ldr	r3, [r3, #64]	; 0x40
20000a50:	f013 0302 	ands.w	r3, r3, #2
20000a54:	d102      	bne.n	20000a5c <e15_is_bulkin_ep+0x10>
20000a56:	7882      	ldrb	r2, [r0, #2]
20000a58:	09d2      	lsrs	r2, r2, #7
20000a5a:	d101      	bne.n	20000a60 <e15_is_bulkin_ep+0x14>
20000a5c:	2000      	movs	r0, #0
20000a5e:	4770      	bx	lr
20000a60:	7ec0      	ldrb	r0, [r0, #27]
20000a62:	f1a0 0002 	sub.w	r0, r0, #2
20000a66:	fab0 f080 	clz	r0, r0
20000a6a:	0940      	lsrs	r0, r0, #5
20000a6c:	4770      	bx	lr
20000a6e:	bf00      	nop
20000a70:	50110000 	.word	0x50110000

20000a74 <e15_is_critical_frame_period>:
20000a74:	b508      	push	{r3, lr}
20000a76:	f7ff ffe9 	bl	20000a4c <e15_is_bulkin_ep>
20000a7a:	b150      	cbz	r0, 20000a92 <e15_is_critical_frame_period+0x1e>
20000a7c:	4a05      	ldr	r2, [pc, #20]	; (20000a94 <e15_is_critical_frame_period+0x20>)
20000a7e:	4b06      	ldr	r3, [pc, #24]	; (20000a98 <e15_is_critical_frame_period+0x24>)
20000a80:	6a90      	ldr	r0, [r2, #40]	; 0x28
20000a82:	681b      	ldr	r3, [r3, #0]
20000a84:	f5a0 7048 	sub.w	r0, r0, #800	; 0x320
20000a88:	1ac0      	subs	r0, r0, r3
20000a8a:	28c6      	cmp	r0, #198	; 0xc6
20000a8c:	bf8c      	ite	hi
20000a8e:	2000      	movhi	r0, #0
20000a90:	2001      	movls	r0, #1
20000a92:	bd08      	pop	{r3, pc}
20000a94:	400b0000 	.word	0x400b0000
20000a98:	20002bcc 	.word	0x20002bcc

20000a9c <hw_endpoint_reset_transfer>:
20000a9c:	2300      	movs	r3, #0
20000a9e:	e9c0 3304 	strd	r3, r3, [r0, #16]
20000aa2:	7683      	strb	r3, [r0, #26]
20000aa4:	4770      	bx	lr
20000aa6:	bf00      	nop

20000aa8 <_hw_endpoint_buffer_control_update32>:
20000aa8:	b510      	push	{r4, lr}
20000aaa:	6883      	ldr	r3, [r0, #8]
20000aac:	b109      	cbz	r1, 20000ab2 <_hw_endpoint_buffer_control_update32+0xa>
20000aae:	681c      	ldr	r4, [r3, #0]
20000ab0:	4021      	ands	r1, r4
20000ab2:	b182      	cbz	r2, 20000ad6 <_hw_endpoint_buffer_control_update32+0x2e>
20000ab4:	4311      	orrs	r1, r2
20000ab6:	0552      	lsls	r2, r2, #21
20000ab8:	d50d      	bpl.n	20000ad6 <_hw_endpoint_buffer_control_update32+0x2e>
20000aba:	681a      	ldr	r2, [r3, #0]
20000abc:	0554      	lsls	r4, r2, #21
20000abe:	d40c      	bmi.n	20000ada <_hw_endpoint_buffer_control_update32+0x32>
20000ac0:	4a08      	ldr	r2, [pc, #32]	; (20000ae4 <_hw_endpoint_buffer_control_update32+0x3c>)
20000ac2:	f421 6480 	bic.w	r4, r1, #1024	; 0x400
20000ac6:	601c      	str	r4, [r3, #0]
20000ac8:	6c12      	ldr	r2, [r2, #64]	; 0x40
20000aca:	0792      	lsls	r2, r2, #30
20000acc:	d403      	bmi.n	20000ad6 <_hw_endpoint_buffer_control_update32+0x2e>
20000ace:	230c      	movs	r3, #12
20000ad0:	3b03      	subs	r3, #3
20000ad2:	d2fd      	bcs.n	20000ad0 <_hw_endpoint_buffer_control_update32+0x28>
20000ad4:	6883      	ldr	r3, [r0, #8]
20000ad6:	6019      	str	r1, [r3, #0]
20000ad8:	bd10      	pop	{r4, pc}
20000ada:	7881      	ldrb	r1, [r0, #2]
20000adc:	4802      	ldr	r0, [pc, #8]	; (20000ae8 <_hw_endpoint_buffer_control_update32+0x40>)
20000ade:	f000 fb3f 	bl	20001160 <__panic_veneer>
20000ae2:	bf00      	nop
20000ae4:	50110000 	.word	0x50110000
20000ae8:	10009460 	.word	0x10009460

20000aec <hw_endpoint_start_next_buffer>:
20000aec:	b530      	push	{r4, r5, lr}
20000aee:	6843      	ldr	r3, [r0, #4]
20000af0:	2100      	movs	r1, #0
20000af2:	b083      	sub	sp, #12
20000af4:	4604      	mov	r4, r0
20000af6:	681d      	ldr	r5, [r3, #0]
20000af8:	f7ff fed2 	bl	200008a0 <prepare_ep_buffer>
20000afc:	4b13      	ldr	r3, [pc, #76]	; (20000b4c <hw_endpoint_start_next_buffer+0x60>)
20000afe:	f440 5280 	orr.w	r2, r0, #4096	; 0x1000
20000b02:	6c1b      	ldr	r3, [r3, #64]	; 0x40
20000b04:	f013 0f02 	tst.w	r3, #2
20000b08:	78a3      	ldrb	r3, [r4, #2]
20000b0a:	d00e      	beq.n	20000b2a <hw_endpoint_start_next_buffer+0x3e>
20000b0c:	065b      	lsls	r3, r3, #25
20000b0e:	d00e      	beq.n	20000b2e <hw_endpoint_start_next_buffer+0x42>
20000b10:	f025 45a0 	bic.w	r5, r5, #1342177280	; 0x50000000
20000b14:	f045 5500 	orr.w	r5, r5, #536870912	; 0x20000000
20000b18:	2100      	movs	r1, #0
20000b1a:	4620      	mov	r0, r4
20000b1c:	6863      	ldr	r3, [r4, #4]
20000b1e:	601d      	str	r5, [r3, #0]
20000b20:	b003      	add	sp, #12
20000b22:	e8bd 4030 	ldmia.w	sp!, {r4, r5, lr}
20000b26:	f7ff bfbf 	b.w	20000aa8 <_hw_endpoint_buffer_control_update32>
20000b2a:	09db      	lsrs	r3, r3, #7
20000b2c:	d0f0      	beq.n	20000b10 <hw_endpoint_start_next_buffer+0x24>
20000b2e:	8aa3      	ldrh	r3, [r4, #20]
20000b30:	2b00      	cmp	r3, #0
20000b32:	d0ed      	beq.n	20000b10 <hw_endpoint_start_next_buffer+0x24>
20000b34:	2101      	movs	r1, #1
20000b36:	4620      	mov	r0, r4
20000b38:	9201      	str	r2, [sp, #4]
20000b3a:	f7ff feb1 	bl	200008a0 <prepare_ep_buffer>
20000b3e:	9a01      	ldr	r2, [sp, #4]
20000b40:	f025 5500 	bic.w	r5, r5, #536870912	; 0x20000000
20000b44:	f045 45a0 	orr.w	r5, r5, #1342177280	; 0x50000000
20000b48:	4302      	orrs	r2, r0
20000b4a:	e7e5      	b.n	20000b18 <hw_endpoint_start_next_buffer+0x2c>
20000b4c:	50110000 	.word	0x50110000

20000b50 <hw_endpoint_xfer_continue>:
20000b50:	b538      	push	{r3, r4, r5, lr}
20000b52:	7e85      	ldrb	r5, [r0, #26]
20000b54:	4604      	mov	r4, r0
20000b56:	b1a5      	cbz	r5, 20000b82 <hw_endpoint_xfer_continue+0x32>
20000b58:	f7ff ff62 	bl	20000a20 <_hw_endpoint_xfer_sync>
20000b5c:	8aa3      	ldrh	r3, [r4, #20]
20000b5e:	b90b      	cbnz	r3, 20000b64 <hw_endpoint_xfer_continue+0x14>
20000b60:	4628      	mov	r0, r5
20000b62:	bd38      	pop	{r3, r4, r5, pc}
20000b64:	4620      	mov	r0, r4
20000b66:	f7ff ff85 	bl	20000a74 <e15_is_critical_frame_period>
20000b6a:	4605      	mov	r5, r0
20000b6c:	b120      	cbz	r0, 20000b78 <hw_endpoint_xfer_continue+0x28>
20000b6e:	2301      	movs	r3, #1
20000b70:	2500      	movs	r5, #0
20000b72:	7723      	strb	r3, [r4, #28]
20000b74:	4628      	mov	r0, r5
20000b76:	bd38      	pop	{r3, r4, r5, pc}
20000b78:	4620      	mov	r0, r4
20000b7a:	f7ff ffb7 	bl	20000aec <hw_endpoint_start_next_buffer>
20000b7e:	4628      	mov	r0, r5
20000b80:	bd38      	pop	{r3, r4, r5, pc}
20000b82:	7881      	ldrb	r1, [r0, #2]
20000b84:	4801      	ldr	r0, [pc, #4]	; (20000b8c <hw_endpoint_xfer_continue+0x3c>)
20000b86:	f000 faeb 	bl	20001160 <__panic_veneer>
20000b8a:	bf00      	nop
20000b8c:	10009480 	.word	0x10009480

20000b90 <dcd_event_handler>:
20000b90:	e92d 43f0 	stmdb	sp!, {r4, r5, r6, r7, r8, r9, lr}
20000b94:	7843      	ldrb	r3, [r0, #1]
20000b96:	4680      	mov	r8, r0
20000b98:	3b02      	subs	r3, #2
20000b9a:	460d      	mov	r5, r1
20000b9c:	b085      	sub	sp, #20
20000b9e:	2b04      	cmp	r3, #4
20000ba0:	d813      	bhi.n	20000bca <dcd_event_handler+0x3a>
20000ba2:	e8df f003 	tbb	[pc, r3]
20000ba6:	4a03      	.short	0x4a03
20000ba8:	756c      	.short	0x756c
20000baa:	44          	.byte	0x44
20000bab:	00          	.byte	0x00
20000bac:	2100      	movs	r1, #0
20000bae:	4b78      	ldr	r3, [pc, #480]	; (20000d90 <dcd_event_handler+0x200>)
20000bb0:	781a      	ldrb	r2, [r3, #0]
20000bb2:	f36f 0200 	bfc	r2, #0, #1
20000bb6:	701a      	strb	r2, [r3, #0]
20000bb8:	781a      	ldrb	r2, [r3, #0]
20000bba:	f36f 0241 	bfc	r2, #1, #1
20000bbe:	701a      	strb	r2, [r3, #0]
20000bc0:	7059      	strb	r1, [r3, #1]
20000bc2:	781a      	ldrb	r2, [r3, #0]
20000bc4:	f361 0282 	bfi	r2, r1, #2, #1
20000bc8:	701a      	strb	r2, [r3, #0]
20000bca:	4b72      	ldr	r3, [pc, #456]	; (20000d94 <dcd_event_handler+0x204>)
20000bcc:	681c      	ldr	r4, [r3, #0]
20000bce:	6963      	ldr	r3, [r4, #20]
20000bd0:	f3ef 8210 	mrs	r2, PRIMASK
20000bd4:	b672      	cpsid	i
20000bd6:	e8d3 0fcf 	ldaexb	r0, [r3]
20000bda:	2101      	movs	r1, #1
20000bdc:	2800      	cmp	r0, #0
20000bde:	d1fa      	bne.n	20000bd6 <dcd_event_handler+0x46>
20000be0:	e8c3 1f40 	strexb	r0, r1, [r3]
20000be4:	2800      	cmp	r0, #0
20000be6:	d1f6      	bne.n	20000bd6 <dcd_event_handler+0x46>
20000be8:	f3bf 8f5f 	dmb	sy
20000bec:	61a2      	str	r2, [r4, #24]
20000bee:	4641      	mov	r1, r8
20000bf0:	4620      	mov	r0, r4
20000bf2:	f000 fa9d 	bl	20001130 <__tu_fifo_write_veneer>
20000bf6:	2300      	movs	r3, #0
20000bf8:	6962      	ldr	r2, [r4, #20]
20000bfa:	e8c2 3f8f 	stlb	r3, [r2]
20000bfe:	69a3      	ldr	r3, [r4, #24]
20000c00:	f383 8810 	msr	PRIMASK, r3
20000c04:	b948      	cbnz	r0, 20000c1a <dcd_event_handler+0x8a>
20000c06:	f04f 23e0 	mov.w	r3, #3758153728	; 0xe000e000
20000c0a:	f8d3 3df0 	ldr.w	r3, [r3, #3568]	; 0xdf0
20000c0e:	07db      	lsls	r3, r3, #31
20000c10:	d50a      	bpl.n	20000c28 <dcd_event_handler+0x98>
20000c12:	be00      	bkpt	0x0000
20000c14:	b005      	add	sp, #20
20000c16:	e8bd 83f0 	ldmia.w	sp!, {r4, r5, r6, r7, r8, r9, pc}
20000c1a:	462a      	mov	r2, r5
20000c1c:	f898 1001 	ldrb.w	r1, [r8, #1]
20000c20:	f898 0000 	ldrb.w	r0, [r8]
20000c24:	f000 fa8c 	bl	20001140 <__tud_event_hook_cb_veneer>
20000c28:	b005      	add	sp, #20
20000c2a:	e8bd 83f0 	ldmia.w	sp!, {r4, r5, r6, r7, r8, r9, pc}
20000c2e:	4a5a      	ldr	r2, [pc, #360]	; (20000d98 <dcd_event_handler+0x208>)
20000c30:	7813      	ldrb	r3, [r2, #0]
20000c32:	3301      	adds	r3, #1
20000c34:	b2db      	uxtb	r3, r3
20000c36:	7013      	strb	r3, [r2, #0]
20000c38:	e7c7      	b.n	20000bca <dcd_event_handler+0x3a>
20000c3a:	2400      	movs	r4, #0
20000c3c:	4e57      	ldr	r6, [pc, #348]	; (20000d9c <dcd_event_handler+0x20c>)
20000c3e:	4623      	mov	r3, r4
20000c40:	7831      	ldrb	r1, [r6, #0]
20000c42:	4f57      	ldr	r7, [pc, #348]	; (20000da0 <dcd_event_handler+0x210>)
20000c44:	f8df 915c 	ldr.w	r9, [pc, #348]	; 20000da4 <dcd_event_handler+0x214>
20000c48:	e00a      	b.n	20000c60 <dcd_event_handler+0xd0>
20000c4a:	f8d9 3000 	ldr.w	r3, [r9]
20000c4e:	eb13 1344 	adds.w	r3, r3, r4, lsl #5
20000c52:	d10a      	bne.n	20000c6a <dcd_event_handler+0xda>
20000c54:	3401      	adds	r4, #1
20000c56:	b2e4      	uxtb	r4, r4
20000c58:	1c4a      	adds	r2, r1, #1
20000c5a:	42a2      	cmp	r2, r4
20000c5c:	4623      	mov	r3, r4
20000c5e:	db20      	blt.n	20000ca2 <dcd_event_handler+0x112>
20000c60:	42a1      	cmp	r1, r4
20000c62:	d8f2      	bhi.n	20000c4a <dcd_event_handler+0xba>
20000c64:	1a5b      	subs	r3, r3, r1
20000c66:	eb07 1343 	add.w	r3, r7, r3, lsl #5
20000c6a:	69db      	ldr	r3, [r3, #28]
20000c6c:	2b00      	cmp	r3, #0
20000c6e:	d0f1      	beq.n	20000c54 <dcd_event_handler+0xc4>
20000c70:	f8d8 1004 	ldr.w	r1, [r8, #4]
20000c74:	f898 0000 	ldrb.w	r0, [r8]
20000c78:	4798      	blx	r3
20000c7a:	7831      	ldrb	r1, [r6, #0]
20000c7c:	e7ea      	b.n	20000c54 <dcd_event_handler+0xc4>
20000c7e:	4b44      	ldr	r3, [pc, #272]	; (20000d90 <dcd_event_handler+0x200>)
20000c80:	781a      	ldrb	r2, [r3, #0]
20000c82:	07d6      	lsls	r6, r2, #31
20000c84:	d5d0      	bpl.n	20000c28 <dcd_event_handler+0x98>
20000c86:	781a      	ldrb	r2, [r3, #0]
20000c88:	f042 0204 	orr.w	r2, r2, #4
20000c8c:	701a      	strb	r2, [r3, #0]
20000c8e:	e79c      	b.n	20000bca <dcd_event_handler+0x3a>
20000c90:	4b3f      	ldr	r3, [pc, #252]	; (20000d90 <dcd_event_handler+0x200>)
20000c92:	781a      	ldrb	r2, [r3, #0]
20000c94:	07d4      	lsls	r4, r2, #31
20000c96:	d5c7      	bpl.n	20000c28 <dcd_event_handler+0x98>
20000c98:	781a      	ldrb	r2, [r3, #0]
20000c9a:	f36f 0282 	bfc	r2, #2, #1
20000c9e:	701a      	strb	r2, [r3, #0]
20000ca0:	e793      	b.n	20000bca <dcd_event_handler+0x3a>
20000ca2:	4c3b      	ldr	r4, [pc, #236]	; (20000d90 <dcd_event_handler+0x200>)
20000ca4:	7823      	ldrb	r3, [r4, #0]
20000ca6:	0758      	lsls	r0, r3, #29
20000ca8:	d436      	bmi.n	20000d18 <dcd_event_handler+0x188>
20000caa:	78e3      	ldrb	r3, [r4, #3]
20000cac:	07da      	lsls	r2, r3, #31
20000cae:	d5bb      	bpl.n	20000c28 <dcd_event_handler+0x98>
20000cb0:	2600      	movs	r6, #0
20000cb2:	2303      	movs	r3, #3
20000cb4:	4937      	ldr	r1, [pc, #220]	; (20000d94 <dcd_event_handler+0x204>)
20000cb6:	f898 2000 	ldrb.w	r2, [r8]
20000cba:	680c      	ldr	r4, [r1, #0]
20000cbc:	f8d8 1004 	ldr.w	r1, [r8, #4]
20000cc0:	9603      	str	r6, [sp, #12]
20000cc2:	e9cd 6101 	strd	r6, r1, [sp, #4]
20000cc6:	f88d 2004 	strb.w	r2, [sp, #4]
20000cca:	f88d 3005 	strb.w	r3, [sp, #5]
20000cce:	6963      	ldr	r3, [r4, #20]
20000cd0:	f3ef 8210 	mrs	r2, PRIMASK
20000cd4:	b672      	cpsid	i
20000cd6:	e8d3 0fcf 	ldaexb	r0, [r3]
20000cda:	2101      	movs	r1, #1
20000cdc:	2800      	cmp	r0, #0
20000cde:	d1fa      	bne.n	20000cd6 <dcd_event_handler+0x146>
20000ce0:	e8c3 1f40 	strexb	r0, r1, [r3]
20000ce4:	2800      	cmp	r0, #0
20000ce6:	d1f6      	bne.n	20000cd6 <dcd_event_handler+0x146>
20000ce8:	f3bf 8f5f 	dmb	sy
20000cec:	4620      	mov	r0, r4
20000cee:	a901      	add	r1, sp, #4
20000cf0:	61a2      	str	r2, [r4, #24]
20000cf2:	f000 fa1d 	bl	20001130 <__tu_fifo_write_veneer>
20000cf6:	6963      	ldr	r3, [r4, #20]
20000cf8:	e8c3 6f8f 	stlb	r6, [r3]
20000cfc:	69a3      	ldr	r3, [r4, #24]
20000cfe:	f383 8810 	msr	PRIMASK, r3
20000d02:	2800      	cmp	r0, #0
20000d04:	f43f af7f 	beq.w	20000c06 <dcd_event_handler+0x76>
20000d08:	462a      	mov	r2, r5
20000d0a:	f89d 1005 	ldrb.w	r1, [sp, #5]
20000d0e:	f89d 0004 	ldrb.w	r0, [sp, #4]
20000d12:	f000 fa15 	bl	20001140 <__tud_event_hook_cb_veneer>
20000d16:	e787      	b.n	20000c28 <dcd_event_handler+0x98>
20000d18:	2700      	movs	r7, #0
20000d1a:	2205      	movs	r2, #5
20000d1c:	7823      	ldrb	r3, [r4, #0]
20000d1e:	491d      	ldr	r1, [pc, #116]	; (20000d94 <dcd_event_handler+0x204>)
20000d20:	f36f 0382 	bfc	r3, #2, #1
20000d24:	7023      	strb	r3, [r4, #0]
20000d26:	f898 3000 	ldrb.w	r3, [r8]
20000d2a:	680e      	ldr	r6, [r1, #0]
20000d2c:	9701      	str	r7, [sp, #4]
20000d2e:	f88d 2005 	strb.w	r2, [sp, #5]
20000d32:	f88d 3004 	strb.w	r3, [sp, #4]
20000d36:	e9cd 7702 	strd	r7, r7, [sp, #8]
20000d3a:	6973      	ldr	r3, [r6, #20]
20000d3c:	f3ef 8210 	mrs	r2, PRIMASK
20000d40:	b672      	cpsid	i
20000d42:	e8d3 0fcf 	ldaexb	r0, [r3]
20000d46:	2101      	movs	r1, #1
20000d48:	2800      	cmp	r0, #0
20000d4a:	d1fa      	bne.n	20000d42 <dcd_event_handler+0x1b2>
20000d4c:	e8c3 1f40 	strexb	r0, r1, [r3]
20000d50:	2800      	cmp	r0, #0
20000d52:	d1f6      	bne.n	20000d42 <dcd_event_handler+0x1b2>
20000d54:	f3bf 8f5f 	dmb	sy
20000d58:	4630      	mov	r0, r6
20000d5a:	61b2      	str	r2, [r6, #24]
20000d5c:	a901      	add	r1, sp, #4
20000d5e:	f000 f9e7 	bl	20001130 <__tu_fifo_write_veneer>
20000d62:	6973      	ldr	r3, [r6, #20]
20000d64:	e8c3 7f8f 	stlb	r7, [r3]
20000d68:	69b3      	ldr	r3, [r6, #24]
20000d6a:	f383 8810 	msr	PRIMASK, r3
20000d6e:	b938      	cbnz	r0, 20000d80 <dcd_event_handler+0x1f0>
20000d70:	f04f 23e0 	mov.w	r3, #3758153728	; 0xe000e000
20000d74:	f8d3 3df0 	ldr.w	r3, [r3, #3568]	; 0xdf0
20000d78:	07d9      	lsls	r1, r3, #31
20000d7a:	d596      	bpl.n	20000caa <dcd_event_handler+0x11a>
20000d7c:	be00      	bkpt	0x0000
20000d7e:	e794      	b.n	20000caa <dcd_event_handler+0x11a>
20000d80:	462a      	mov	r2, r5
20000d82:	f89d 1005 	ldrb.w	r1, [sp, #5]
20000d86:	f89d 0004 	ldrb.w	r0, [sp, #4]
20000d8a:	f000 f9d9 	bl	20001140 <__tud_event_hook_cb_veneer>
20000d8e:	e78c      	b.n	20000caa <dcd_event_handler+0x11a>
20000d90:	20002774 	.word	0x20002774
20000d94:	200027cc 	.word	0x200027cc
20000d98:	20003032 	.word	0x20003032
20000d9c:	20003030 	.word	0x20003030
20000da0:	100094a8 	.word	0x100094a8
20000da4:	200025a4 	.word	0x200025a4

20000da8 <sqrtf>:
20000da8:	b508      	push	{r3, lr}
20000daa:	ed2d 8b02 	vpush	{d8}
20000dae:	ee08 0a10 	vmov	s16, r0
20000db2:	f000 f81d 	bl	20000df0 <__ieee754_sqrtf>
20000db6:	eeb4 8a48 	vcmp.f32	s16, s16
20000dba:	eef1 fa10 	vmrs	APSR_nzcv, fpscr
20000dbe:	d606      	bvs.n	20000dce <sqrtf+0x26>
20000dc0:	eddf 8a0a 	vldr	s17, [pc, #40]	; 20000dec <sqrtf+0x44>
20000dc4:	eeb4 8ae8 	vcmpe.f32	s16, s17
20000dc8:	eef1 fa10 	vmrs	APSR_nzcv, fpscr
20000dcc:	d402      	bmi.n	20000dd4 <sqrtf+0x2c>
20000dce:	ecbd 8b02 	vpop	{d8}
20000dd2:	bd08      	pop	{r3, pc}
20000dd4:	f000 f9bc 	bl	20001150 <____errno_veneer>
20000dd8:	eec8 7aa8 	vdiv.f32	s15, s17, s17
20000ddc:	4603      	mov	r3, r0
20000dde:	2221      	movs	r2, #33	; 0x21
20000de0:	601a      	str	r2, [r3, #0]
20000de2:	ecbd 8b02 	vpop	{d8}
20000de6:	ee17 0a90 	vmov	r0, s15
20000dea:	bd08      	pop	{r3, pc}
20000dec:	00000000 	.word	0x00000000

20000df0 <__ieee754_sqrtf>:
20000df0:	ee07 0a90 	vmov	s15, r0
20000df4:	eef1 7ae7 	vsqrt.f32	s15, s15
20000df8:	ee17 0a90 	vmov	r0, s15
20000dfc:	4770      	bx	lr
20000dfe:	bf00      	nop

20000e00 <__aeabi_uldivmod>:
20000e00:	b953      	cbnz	r3, 20000e18 <__aeabi_uldivmod+0x18>
20000e02:	b94a      	cbnz	r2, 20000e18 <__aeabi_uldivmod+0x18>
20000e04:	2900      	cmp	r1, #0
20000e06:	bf08      	it	eq
20000e08:	2800      	cmpeq	r0, #0
20000e0a:	bf1c      	itt	ne
20000e0c:	f04f 31ff 	movne.w	r1, #4294967295
20000e10:	f04f 30ff 	movne.w	r0, #4294967295
20000e14:	f000 b982 	b.w	2000111c <__aeabi_idiv0>
20000e18:	f1ad 0c08 	sub.w	ip, sp, #8
20000e1c:	e96d ce04 	strd	ip, lr, [sp, #-16]!
20000e20:	f000 f806 	bl	20000e30 <__udivmoddi4>
20000e24:	f8dd e004 	ldr.w	lr, [sp, #4]
20000e28:	e9dd 2302 	ldrd	r2, r3, [sp, #8]
20000e2c:	b004      	add	sp, #16
20000e2e:	4770      	bx	lr

20000e30 <__udivmoddi4>:
20000e30:	e92d 4ff0 	stmdb	sp!, {r4, r5, r6, r7, r8, r9, sl, fp, lr}
20000e34:	9d09      	ldr	r5, [sp, #36]	; 0x24
20000e36:	4604      	mov	r4, r0
20000e38:	460f      	mov	r7, r1
20000e3a:	2b00      	cmp	r3, #0
20000e3c:	d148      	bne.n	20000ed0 <__udivmoddi4+0xa0>
20000e3e:	428a      	cmp	r2, r1
20000e40:	4694      	mov	ip, r2
20000e42:	d961      	bls.n	20000f08 <__udivmoddi4+0xd8>
20000e44:	fab2 f382 	clz	r3, r2
20000e48:	b143      	cbz	r3, 20000e5c <__udivmoddi4+0x2c>
20000e4a:	f1c3 0120 	rsb	r1, r3, #32
20000e4e:	409f      	lsls	r7, r3
20000e50:	fa02 fc03 	lsl.w	ip, r2, r3
20000e54:	409c      	lsls	r4, r3
20000e56:	fa20 f101 	lsr.w	r1, r0, r1
20000e5a:	430f      	orrs	r7, r1
20000e5c:	ea4f 411c 	mov.w	r1, ip, lsr #16
20000e60:	fa1f fe8c 	uxth.w	lr, ip
20000e64:	0c22      	lsrs	r2, r4, #16
20000e66:	fbb7 f6f1 	udiv	r6, r7, r1
20000e6a:	fb01 7716 	mls	r7, r1, r6, r7
20000e6e:	fb06 f00e 	mul.w	r0, r6, lr
20000e72:	ea42 4207 	orr.w	r2, r2, r7, lsl #16
20000e76:	4290      	cmp	r0, r2
20000e78:	d908      	bls.n	20000e8c <__udivmoddi4+0x5c>
20000e7a:	eb1c 0202 	adds.w	r2, ip, r2
20000e7e:	f106 37ff 	add.w	r7, r6, #4294967295
20000e82:	d202      	bcs.n	20000e8a <__udivmoddi4+0x5a>
20000e84:	4290      	cmp	r0, r2
20000e86:	f200 8137 	bhi.w	200010f8 <__udivmoddi4+0x2c8>
20000e8a:	463e      	mov	r6, r7
20000e8c:	1a12      	subs	r2, r2, r0
20000e8e:	b2a4      	uxth	r4, r4
20000e90:	fbb2 f0f1 	udiv	r0, r2, r1
20000e94:	fb01 2210 	mls	r2, r1, r0, r2
20000e98:	fb00 fe0e 	mul.w	lr, r0, lr
20000e9c:	ea44 4402 	orr.w	r4, r4, r2, lsl #16
20000ea0:	45a6      	cmp	lr, r4
20000ea2:	d908      	bls.n	20000eb6 <__udivmoddi4+0x86>
20000ea4:	eb1c 0404 	adds.w	r4, ip, r4
20000ea8:	f100 32ff 	add.w	r2, r0, #4294967295
20000eac:	d202      	bcs.n	20000eb4 <__udivmoddi4+0x84>
20000eae:	45a6      	cmp	lr, r4
20000eb0:	f200 811c 	bhi.w	200010ec <__udivmoddi4+0x2bc>
20000eb4:	4610      	mov	r0, r2
20000eb6:	ea40 4006 	orr.w	r0, r0, r6, lsl #16
20000eba:	eba4 040e 	sub.w	r4, r4, lr
20000ebe:	2600      	movs	r6, #0
20000ec0:	b11d      	cbz	r5, 20000eca <__udivmoddi4+0x9a>
20000ec2:	40dc      	lsrs	r4, r3
20000ec4:	2300      	movs	r3, #0
20000ec6:	e9c5 4300 	strd	r4, r3, [r5]
20000eca:	4631      	mov	r1, r6
20000ecc:	e8bd 8ff0 	ldmia.w	sp!, {r4, r5, r6, r7, r8, r9, sl, fp, pc}
20000ed0:	428b      	cmp	r3, r1
20000ed2:	d909      	bls.n	20000ee8 <__udivmoddi4+0xb8>
20000ed4:	2d00      	cmp	r5, #0
20000ed6:	f000 80fd 	beq.w	200010d4 <__udivmoddi4+0x2a4>
20000eda:	2600      	movs	r6, #0
20000edc:	e9c5 0100 	strd	r0, r1, [r5]
20000ee0:	4630      	mov	r0, r6
20000ee2:	4631      	mov	r1, r6
20000ee4:	e8bd 8ff0 	ldmia.w	sp!, {r4, r5, r6, r7, r8, r9, sl, fp, pc}
20000ee8:	fab3 f683 	clz	r6, r3
20000eec:	2e00      	cmp	r6, #0
20000eee:	d14b      	bne.n	20000f88 <__udivmoddi4+0x158>
20000ef0:	428b      	cmp	r3, r1
20000ef2:	f0c0 80f2 	bcc.w	200010da <__udivmoddi4+0x2aa>
20000ef6:	4282      	cmp	r2, r0
20000ef8:	f240 80ef 	bls.w	200010da <__udivmoddi4+0x2aa>
20000efc:	4630      	mov	r0, r6
20000efe:	2d00      	cmp	r5, #0
20000f00:	d0e3      	beq.n	20000eca <__udivmoddi4+0x9a>
20000f02:	e9c5 4700 	strd	r4, r7, [r5]
20000f06:	e7e0      	b.n	20000eca <__udivmoddi4+0x9a>
20000f08:	b902      	cbnz	r2, 20000f0c <__udivmoddi4+0xdc>
20000f0a:	deff      	udf	#255	; 0xff
20000f0c:	fab2 f382 	clz	r3, r2
20000f10:	2b00      	cmp	r3, #0
20000f12:	f040 809d 	bne.w	20001050 <__udivmoddi4+0x220>
20000f16:	1a89      	subs	r1, r1, r2
20000f18:	ea4f 4e12 	mov.w	lr, r2, lsr #16
20000f1c:	b297      	uxth	r7, r2
20000f1e:	2601      	movs	r6, #1
20000f20:	0c20      	lsrs	r0, r4, #16
20000f22:	fbb1 f2fe 	udiv	r2, r1, lr
20000f26:	fb0e 1112 	mls	r1, lr, r2, r1
20000f2a:	ea40 4101 	orr.w	r1, r0, r1, lsl #16
20000f2e:	fb07 f002 	mul.w	r0, r7, r2
20000f32:	4288      	cmp	r0, r1
20000f34:	d90f      	bls.n	20000f56 <__udivmoddi4+0x126>
20000f36:	eb1c 0101 	adds.w	r1, ip, r1
20000f3a:	f102 38ff 	add.w	r8, r2, #4294967295
20000f3e:	bf2c      	ite	cs
20000f40:	f04f 0901 	movcs.w	r9, #1
20000f44:	f04f 0900 	movcc.w	r9, #0
20000f48:	4288      	cmp	r0, r1
20000f4a:	d903      	bls.n	20000f54 <__udivmoddi4+0x124>
20000f4c:	f1b9 0f00 	cmp.w	r9, #0
20000f50:	f000 80cf 	beq.w	200010f2 <__udivmoddi4+0x2c2>
20000f54:	4642      	mov	r2, r8
20000f56:	1a09      	subs	r1, r1, r0
20000f58:	b2a4      	uxth	r4, r4
20000f5a:	fbb1 f0fe 	udiv	r0, r1, lr
20000f5e:	fb0e 1110 	mls	r1, lr, r0, r1
20000f62:	fb00 f707 	mul.w	r7, r0, r7
20000f66:	ea44 4401 	orr.w	r4, r4, r1, lsl #16
20000f6a:	42a7      	cmp	r7, r4
20000f6c:	d908      	bls.n	20000f80 <__udivmoddi4+0x150>
20000f6e:	eb1c 0404 	adds.w	r4, ip, r4
20000f72:	f100 31ff 	add.w	r1, r0, #4294967295
20000f76:	d202      	bcs.n	20000f7e <__udivmoddi4+0x14e>
20000f78:	42a7      	cmp	r7, r4
20000f7a:	f200 80b4 	bhi.w	200010e6 <__udivmoddi4+0x2b6>
20000f7e:	4608      	mov	r0, r1
20000f80:	1be4      	subs	r4, r4, r7
20000f82:	ea40 4002 	orr.w	r0, r0, r2, lsl #16
20000f86:	e79b      	b.n	20000ec0 <__udivmoddi4+0x90>
20000f88:	f1c6 0720 	rsb	r7, r6, #32
20000f8c:	40b3      	lsls	r3, r6
20000f8e:	fa01 f406 	lsl.w	r4, r1, r6
20000f92:	fa22 fc07 	lsr.w	ip, r2, r7
20000f96:	40f9      	lsrs	r1, r7
20000f98:	40b2      	lsls	r2, r6
20000f9a:	ea4c 0c03 	orr.w	ip, ip, r3
20000f9e:	fa20 f307 	lsr.w	r3, r0, r7
20000fa2:	ea4f 491c 	mov.w	r9, ip, lsr #16
20000fa6:	431c      	orrs	r4, r3
20000fa8:	fa1f fe8c 	uxth.w	lr, ip
20000fac:	fa00 f306 	lsl.w	r3, r0, r6
20000fb0:	0c20      	lsrs	r0, r4, #16
20000fb2:	fbb1 f8f9 	udiv	r8, r1, r9
20000fb6:	fb09 1118 	mls	r1, r9, r8, r1
20000fba:	ea40 4101 	orr.w	r1, r0, r1, lsl #16
20000fbe:	fb08 f00e 	mul.w	r0, r8, lr
20000fc2:	4288      	cmp	r0, r1
20000fc4:	d90f      	bls.n	20000fe6 <__udivmoddi4+0x1b6>
20000fc6:	eb1c 0101 	adds.w	r1, ip, r1
20000fca:	f108 3aff 	add.w	sl, r8, #4294967295
20000fce:	bf2c      	ite	cs
20000fd0:	f04f 0b01 	movcs.w	fp, #1
20000fd4:	f04f 0b00 	movcc.w	fp, #0
20000fd8:	4288      	cmp	r0, r1
20000fda:	d903      	bls.n	20000fe4 <__udivmoddi4+0x1b4>
20000fdc:	f1bb 0f00 	cmp.w	fp, #0
20000fe0:	f000 808d 	beq.w	200010fe <__udivmoddi4+0x2ce>
20000fe4:	46d0      	mov	r8, sl
20000fe6:	1a09      	subs	r1, r1, r0
20000fe8:	b2a4      	uxth	r4, r4
20000fea:	fbb1 f0f9 	udiv	r0, r1, r9
20000fee:	fb09 1110 	mls	r1, r9, r0, r1
20000ff2:	fb00 fe0e 	mul.w	lr, r0, lr
20000ff6:	ea44 4101 	orr.w	r1, r4, r1, lsl #16
20000ffa:	458e      	cmp	lr, r1
20000ffc:	d907      	bls.n	2000100e <__udivmoddi4+0x1de>
20000ffe:	eb1c 0101 	adds.w	r1, ip, r1
20001002:	f100 34ff 	add.w	r4, r0, #4294967295
20001006:	d201      	bcs.n	2000100c <__udivmoddi4+0x1dc>
20001008:	458e      	cmp	lr, r1
2000100a:	d87f      	bhi.n	2000110c <__udivmoddi4+0x2dc>
2000100c:	4620      	mov	r0, r4
2000100e:	ea40 4008 	orr.w	r0, r0, r8, lsl #16
20001012:	eba1 010e 	sub.w	r1, r1, lr
20001016:	fba0 9802 	umull	r9, r8, r0, r2
2000101a:	4541      	cmp	r1, r8
2000101c:	464c      	mov	r4, r9
2000101e:	46c6      	mov	lr, r8
20001020:	d302      	bcc.n	20001028 <__udivmoddi4+0x1f8>
20001022:	d106      	bne.n	20001032 <__udivmoddi4+0x202>
20001024:	454b      	cmp	r3, r9
20001026:	d204      	bcs.n	20001032 <__udivmoddi4+0x202>
20001028:	3801      	subs	r0, #1
2000102a:	ebb9 0402 	subs.w	r4, r9, r2
2000102e:	eb68 0e0c 	sbc.w	lr, r8, ip
20001032:	2d00      	cmp	r5, #0
20001034:	d070      	beq.n	20001118 <__udivmoddi4+0x2e8>
20001036:	1b1a      	subs	r2, r3, r4
20001038:	eb61 010e 	sbc.w	r1, r1, lr
2000103c:	fa22 f306 	lsr.w	r3, r2, r6
20001040:	fa01 f707 	lsl.w	r7, r1, r7
20001044:	40f1      	lsrs	r1, r6
20001046:	2600      	movs	r6, #0
20001048:	431f      	orrs	r7, r3
2000104a:	e9c5 7100 	strd	r7, r1, [r5]
2000104e:	e73c      	b.n	20000eca <__udivmoddi4+0x9a>
20001050:	fa02 fc03 	lsl.w	ip, r2, r3
20001054:	f1c3 0020 	rsb	r0, r3, #32
20001058:	fa01 f203 	lsl.w	r2, r1, r3
2000105c:	fa21 f600 	lsr.w	r6, r1, r0
20001060:	ea4f 4e1c 	mov.w	lr, ip, lsr #16
20001064:	fa24 f100 	lsr.w	r1, r4, r0
20001068:	fa1f f78c 	uxth.w	r7, ip
2000106c:	409c      	lsls	r4, r3
2000106e:	4311      	orrs	r1, r2
20001070:	fbb6 f0fe 	udiv	r0, r6, lr
20001074:	0c0a      	lsrs	r2, r1, #16
20001076:	fb0e 6610 	mls	r6, lr, r0, r6
2000107a:	ea42 4206 	orr.w	r2, r2, r6, lsl #16
2000107e:	fb00 f607 	mul.w	r6, r0, r7
20001082:	4296      	cmp	r6, r2
20001084:	d90e      	bls.n	200010a4 <__udivmoddi4+0x274>
20001086:	eb1c 0202 	adds.w	r2, ip, r2
2000108a:	f100 38ff 	add.w	r8, r0, #4294967295
2000108e:	bf2c      	ite	cs
20001090:	f04f 0901 	movcs.w	r9, #1
20001094:	f04f 0900 	movcc.w	r9, #0
20001098:	4296      	cmp	r6, r2
2000109a:	d902      	bls.n	200010a2 <__udivmoddi4+0x272>
2000109c:	f1b9 0f00 	cmp.w	r9, #0
200010a0:	d031      	beq.n	20001106 <__udivmoddi4+0x2d6>
200010a2:	4640      	mov	r0, r8
200010a4:	1b92      	subs	r2, r2, r6
200010a6:	b289      	uxth	r1, r1
200010a8:	fbb2 f6fe 	udiv	r6, r2, lr
200010ac:	fb0e 2216 	mls	r2, lr, r6, r2
200010b0:	ea41 4102 	orr.w	r1, r1, r2, lsl #16
200010b4:	fb06 f207 	mul.w	r2, r6, r7
200010b8:	428a      	cmp	r2, r1
200010ba:	d907      	bls.n	200010cc <__udivmoddi4+0x29c>
200010bc:	eb1c 0101 	adds.w	r1, ip, r1
200010c0:	f106 38ff 	add.w	r8, r6, #4294967295
200010c4:	d201      	bcs.n	200010ca <__udivmoddi4+0x29a>
200010c6:	428a      	cmp	r2, r1
200010c8:	d823      	bhi.n	20001112 <__udivmoddi4+0x2e2>
200010ca:	4646      	mov	r6, r8
200010cc:	1a89      	subs	r1, r1, r2
200010ce:	ea46 4600 	orr.w	r6, r6, r0, lsl #16
200010d2:	e725      	b.n	20000f20 <__udivmoddi4+0xf0>
200010d4:	462e      	mov	r6, r5
200010d6:	4628      	mov	r0, r5
200010d8:	e6f7      	b.n	20000eca <__udivmoddi4+0x9a>
200010da:	1a84      	subs	r4, r0, r2
200010dc:	eb61 0303 	sbc.w	r3, r1, r3
200010e0:	2001      	movs	r0, #1
200010e2:	461f      	mov	r7, r3
200010e4:	e70b      	b.n	20000efe <__udivmoddi4+0xce>
200010e6:	4464      	add	r4, ip
200010e8:	3802      	subs	r0, #2
200010ea:	e749      	b.n	20000f80 <__udivmoddi4+0x150>
200010ec:	4464      	add	r4, ip
200010ee:	3802      	subs	r0, #2
200010f0:	e6e1      	b.n	20000eb6 <__udivmoddi4+0x86>
200010f2:	3a02      	subs	r2, #2
200010f4:	4461      	add	r1, ip
200010f6:	e72e      	b.n	20000f56 <__udivmoddi4+0x126>
200010f8:	3e02      	subs	r6, #2
200010fa:	4462      	add	r2, ip
200010fc:	e6c6      	b.n	20000e8c <__udivmoddi4+0x5c>
200010fe:	f1a8 0802 	sub.w	r8, r8, #2
20001102:	4461      	add	r1, ip
20001104:	e76f      	b.n	20000fe6 <__udivmoddi4+0x1b6>
20001106:	3802      	subs	r0, #2
20001108:	4462      	add	r2, ip
2000110a:	e7cb      	b.n	200010a4 <__udivmoddi4+0x274>
2000110c:	3802      	subs	r0, #2
2000110e:	4461      	add	r1, ip
20001110:	e77d      	b.n	2000100e <__udivmoddi4+0x1de>
20001112:	3e02      	subs	r6, #2
20001114:	4461      	add	r1, ip
20001116:	e7d9      	b.n	200010cc <__udivmoddi4+0x29c>
20001118:	462e      	mov	r6, r5
2000111a:	e6d6      	b.n	20000eca <__udivmoddi4+0x9a>

2000111c <__aeabi_idiv0>:
2000111c:	4770      	bx	lr
2000111e:	bf00      	nop

20001120 <__memset_veneer>:
20001120:	b401      	push	{r0}
20001122:	4802      	ldr	r0, [pc, #8]	; (2000112c <__memset_veneer+0xc>)
20001124:	4684      	mov	ip, r0
20001126:	bc01      	pop	{r0}
20001128:	4760      	bx	ip
2000112a:	bf00      	nop
2000112c:	10008e31 	.word	0x10008e31

20001130 <__tu_fifo_write_veneer>:
20001130:	b401      	push	{r0}
20001132:	4802      	ldr	r0, [pc, #8]	; (2000113c <__tu_fifo_write_veneer+0xc>)
20001134:	4684      	mov	ip, r0
20001136:	bc01      	pop	{r0}
20001138:	4760      	bx	ip
2000113a:	bf00      	nop
2000113c:	10008885 	.word	0x10008885

20001140 <__tud_event_hook_cb_veneer>:
20001140:	b401      	push	{r0}
20001142:	4802      	ldr	r0, [pc, #8]	; (2000114c <__tud_event_hook_cb_veneer+0xc>)
20001144:	4684      	mov	ip, r0
20001146:	bc01      	pop	{r0}
20001148:	4760      	bx	ip
2000114a:	bf00      	nop
2000114c:	10006e05 	.word	0x10006e05

20001150 <____errno_veneer>:
20001150:	b401      	push	{r0}
20001152:	4802      	ldr	r0, [pc, #8]	; (2000115c <____errno_veneer+0xc>)
20001154:	4684      	mov	ip, r0
20001156:	bc01      	pop	{r0}
20001158:	4760      	bx	ip
2000115a:	bf00      	nop
2000115c:	10008d39 	.word	0x10008d39

20001160 <__panic_veneer>:
20001160:	b401      	push	{r0}
20001162:	4802      	ldr	r0, [pc, #8]	; (2000116c <__panic_veneer+0xc>)
20001164:	4684      	mov	ip, r0
20001166:	bc01      	pop	{r0}
20001168:	4760      	bx	ip
2000116a:	bf00      	nop
2000116c:	10002e89 	.word	0x10002e89

20001170 <__best_effort_wfe_or_timeout_veneer>:
20001170:	b401      	push	{r0}
20001172:	4802      	ldr	r0, [pc, #8]	; (2000117c <__best_effort_wfe_or_timeout_veneer+0xc>)
20001174:	4684      	mov	ip, r0
20001176:	bc01      	pop	{r0}
20001178:	4760      	bx	ip
2000117a:	bf00      	nop
2000117c:	10003c2d 	.word	0x10003c2d

20001180 <__time_us_64_veneer>:
20001180:	b401      	push	{r0}
20001182:	4802      	ldr	r0, [pc, #8]	; (2000118c <__time_us_64_veneer+0xc>)
20001184:	4684      	mov	ip, r0
20001186:	bc01      	pop	{r0}
20001188:	4760      	bx	ip
2000118a:	bf00      	nop
2000118c:	10003d3d 	.word	0x10003d3d

20001190 <_ZL11dma_rx_chan>:
20001190:	ffffffff                                ....

20001194 <_ZL11dma_tx_chan>:
20001194:	ffffffff                                ....

20001198 <_ZL22tx_bootstrap_remaining>:
20001198:	00000002                                ....

2000119c <striped_spin_lock_num>:
2000119c:	00000010                                ....

200011a0 <irq_handler_chain_slots>:
200011a0:	00000000 	.word	0x00000000
200011a4:	00010000 	.word	0x00010000
	...
200011b0:	00020000 	.word	0x00020000
	...
200011bc:	00030000 	.word	0x00030000
	...
200011c8:	00ff0000 	.word	0x00ff0000
200011cc:	00000000 	.word	0x00000000

200011d0 <irq_handler_chain_first_slot>:
200011d0:	b501      	push	{r0, lr}
200011d2:	6848      	ldr	r0, [r1, #4]
200011d4:	3101      	adds	r1, #1
200011d6:	468e      	mov	lr, r1
200011d8:	4700      	bx	r0

200011da <irq_handler_chain_remove_tail>:
200011da:	4670      	mov	r0, lr
200011dc:	3809      	subs	r0, #9
200011de:	4901      	ldr	r1, [pc, #4]	; (200011e4 <irq_handler_chain_remove_tail+0xa>)
200011e0:	4788      	blx	r1
200011e2:	bd01      	pop	{r0, pc}
200011e4:	10003359 	.word	0x10003359

200011e8 <default_alarm_pool>:
	...
200011fc:	20001670                                p.. 

20001200 <stdio_usb>:
20001200:	100065a5 10006559 100064d5 10006445     .e..Ye...d..Ed..
20001210:	00000000 00000100                       ........

20001218 <_usbd_qdef>:
20001218:	200027d0 000c0010 00000000 00000000     .'. ............
	...

20001234 <_usbd_rhport>:
20001234:	000000ff                                ....

20001238 <_impure_ptr>:
20001238:	20001240 00000000                       @.. ....

20001240 <impure_data>:
20001240:	00000000 2000152c 20001594 200015fc     ....,.. ... ... 
	...
200012e8:	00000001 00000000 abcd330e e66d1234     .........3..4.m.
200012f8:	0005deec 0000000b 00000000 00000000     ................
	...

20001668 <print_mutex>:
	...
